
PWM_STEP_Driver.elf:     file format elf32-littlearm

Sections:
Idx Name          Size      VMA       LMA       File off  Algn
  0 .isr_vector   00000188  08000000  08000000  00010000  2**0
                  CONTENTS, ALLOC, LOAD, READONLY, DATA
  1 .text         0000766c  08000190  08000190  00010190  2**4
                  CONTENTS, ALLOC, LOAD, READONLY, CODE
  2 .rodata       000000f4  080077fc  080077fc  000177fc  2**0
                  CONTENTS, ALLOC, LOAD, READONLY, DATA
  3 .ARM.extab    00000000  080078f0  080078f0  00020068  2**0
                  CONTENTS
  4 .ARM          00000000  080078f0  080078f0  00020068  2**0
                  CONTENTS
  5 .preinit_array 00000000  080078f0  080078f0  00020068  2**0
                  CONTENTS, ALLOC, LOAD, DATA
  6 .init_array   00000004  080078f0  080078f0  000178f0  2**2
                  CONTENTS, ALLOC, LOAD, DATA
  7 .fini_array   00000004  080078f4  080078f4  000178f4  2**2
                  CONTENTS, ALLOC, LOAD, DATA
  8 .data         00000068  20000000  080078f8  00020000  2**2
                  CONTENTS, ALLOC, LOAD, DATA
  9 .ccmram       00000000  10000000  10000000  00020068  2**0
                  CONTENTS
 10 .bss          000006fc  20000068  20000068  00020068  2**2
                  ALLOC
 11 ._user_heap_stack 00000604  20000764  20000764  00020068  2**0
                  ALLOC
 12 .ARM.attributes 00000030  00000000  00000000  00020068  2**0
                  CONTENTS, READONLY
 13 .comment      00000043  00000000  00000000  00020098  2**0
                  CONTENTS, READONLY
 14 .debug_frame  0000057c  00000000  00000000  000200dc  2**2
                  CONTENTS, READONLY, DEBUGGING, OCTETS

Disassembly of section .text:

08000190 <__do_global_dtors_aux>:
 8000190:	b510      	push	{r4, lr}
 8000192:	4c05      	ldr	r4, [pc, #20]	; (80001a8 <__do_global_dtors_aux+0x18>)
 8000194:	7823      	ldrb	r3, [r4, #0]
 8000196:	b933      	cbnz	r3, 80001a6 <__do_global_dtors_aux+0x16>
 8000198:	4b04      	ldr	r3, [pc, #16]	; (80001ac <__do_global_dtors_aux+0x1c>)
 800019a:	b113      	cbz	r3, 80001a2 <__do_global_dtors_aux+0x12>
 800019c:	4804      	ldr	r0, [pc, #16]	; (80001b0 <__do_global_dtors_aux+0x20>)
 800019e:	f3af 8000 	nop.w
 80001a2:	2301      	movs	r3, #1
 80001a4:	7023      	strb	r3, [r4, #0]
 80001a6:	bd10      	pop	{r4, pc}
 80001a8:	20000068 	.word	0x20000068
 80001ac:	00000000 	.word	0x00000000
 80001b0:	080077e4 	.word	0x080077e4

080001b4 <frame_dummy>:
 80001b4:	b508      	push	{r3, lr}
 80001b6:	4b03      	ldr	r3, [pc, #12]	; (80001c4 <frame_dummy+0x10>)
 80001b8:	b11b      	cbz	r3, 80001c2 <frame_dummy+0xe>
 80001ba:	4903      	ldr	r1, [pc, #12]	; (80001c8 <frame_dummy+0x14>)
 80001bc:	4803      	ldr	r0, [pc, #12]	; (80001cc <frame_dummy+0x18>)
 80001be:	f3af 8000 	nop.w
 80001c2:	bd08      	pop	{r3, pc}
 80001c4:	00000000 	.word	0x00000000
 80001c8:	2000006c 	.word	0x2000006c
 80001cc:	080077e4 	.word	0x080077e4

080001d0 <memchr>:
 80001d0:	f001 01ff 	and.w	r1, r1, #255	; 0xff
 80001d4:	2a10      	cmp	r2, #16
 80001d6:	db2b      	blt.n	8000230 <memchr+0x60>
 80001d8:	f010 0f07 	tst.w	r0, #7
 80001dc:	d008      	beq.n	80001f0 <memchr+0x20>
 80001de:	f810 3b01 	ldrb.w	r3, [r0], #1
 80001e2:	3a01      	subs	r2, #1
 80001e4:	428b      	cmp	r3, r1
 80001e6:	d02d      	beq.n	8000244 <memchr+0x74>
 80001e8:	f010 0f07 	tst.w	r0, #7
 80001ec:	b342      	cbz	r2, 8000240 <memchr+0x70>
 80001ee:	d1f6      	bne.n	80001de <memchr+0xe>
 80001f0:	b4f0      	push	{r4, r5, r6, r7}
 80001f2:	ea41 2101 	orr.w	r1, r1, r1, lsl #8
 80001f6:	ea41 4101 	orr.w	r1, r1, r1, lsl #16
 80001fa:	f022 0407 	bic.w	r4, r2, #7
 80001fe:	f07f 0700 	mvns.w	r7, #0
 8000202:	2300      	movs	r3, #0
 8000204:	e8f0 5602 	ldrd	r5, r6, [r0], #8
 8000208:	3c08      	subs	r4, #8
 800020a:	ea85 0501 	eor.w	r5, r5, r1
 800020e:	ea86 0601 	eor.w	r6, r6, r1
 8000212:	fa85 f547 	uadd8	r5, r5, r7
 8000216:	faa3 f587 	sel	r5, r3, r7
 800021a:	fa86 f647 	uadd8	r6, r6, r7
 800021e:	faa5 f687 	sel	r6, r5, r7
 8000222:	b98e      	cbnz	r6, 8000248 <memchr+0x78>
 8000224:	d1ee      	bne.n	8000204 <memchr+0x34>
 8000226:	bcf0      	pop	{r4, r5, r6, r7}
 8000228:	f001 01ff 	and.w	r1, r1, #255	; 0xff
 800022c:	f002 0207 	and.w	r2, r2, #7
 8000230:	b132      	cbz	r2, 8000240 <memchr+0x70>
 8000232:	f810 3b01 	ldrb.w	r3, [r0], #1
 8000236:	3a01      	subs	r2, #1
 8000238:	ea83 0301 	eor.w	r3, r3, r1
 800023c:	b113      	cbz	r3, 8000244 <memchr+0x74>
 800023e:	d1f8      	bne.n	8000232 <memchr+0x62>
 8000240:	2000      	movs	r0, #0
 8000242:	4770      	bx	lr
 8000244:	3801      	subs	r0, #1
 8000246:	4770      	bx	lr
 8000248:	2d00      	cmp	r5, #0
 800024a:	bf06      	itte	eq
 800024c:	4635      	moveq	r5, r6
 800024e:	3803      	subeq	r0, #3
 8000250:	3807      	subne	r0, #7
 8000252:	f015 0f01 	tst.w	r5, #1
 8000256:	d107      	bne.n	8000268 <memchr+0x98>
 8000258:	3001      	adds	r0, #1
 800025a:	f415 7f80 	tst.w	r5, #256	; 0x100
 800025e:	bf02      	ittt	eq
 8000260:	3001      	addeq	r0, #1
 8000262:	f415 3fc0 	tsteq.w	r5, #98304	; 0x18000
 8000266:	3001      	addeq	r0, #1
 8000268:	bcf0      	pop	{r4, r5, r6, r7}
 800026a:	3801      	subs	r0, #1
 800026c:	4770      	bx	lr
 800026e:	bf00      	nop

08000270 <process_data>:
 8000270:	b508      	push	{r3, lr}
 8000272:	490b      	ldr	r1, [pc, #44]	; (80002a0 <process_data+0x30>)
 8000274:	4a0b      	ldr	r2, [pc, #44]	; (80002a4 <process_data+0x34>)
 8000276:	780b      	ldrb	r3, [r1, #0]
 8000278:	7812      	ldrb	r2, [r2, #0]
 800027a:	1898      	adds	r0, r3, r2
 800027c:	280a      	cmp	r0, #10
 800027e:	dc06      	bgt.n	800028e <process_data+0x1e>
 8000280:	4809      	ldr	r0, [pc, #36]	; (80002a8 <process_data+0x38>)
 8000282:	3101      	adds	r1, #1
 8000284:	4418      	add	r0, r3
 8000286:	f006 fe5d 	bl	8006f44 <memcpy>
 800028a:	2001      	movs	r0, #1
 800028c:	bd08      	pop	{r3, pc}
 800028e:	4b07      	ldr	r3, [pc, #28]	; (80002ac <process_data+0x3c>)
 8000290:	2000      	movs	r0, #0
 8000292:	6048      	str	r0, [r1, #4]
 8000294:	6008      	str	r0, [r1, #0]
 8000296:	f8c1 0007 	str.w	r0, [r1, #7]
 800029a:	7018      	strb	r0, [r3, #0]
 800029c:	e7f6      	b.n	800028c <process_data+0x1c>
 800029e:	bf00      	nop
 80002a0:	2000008e 	.word	0x2000008e
 80002a4:	20000099 	.word	0x20000099
 80002a8:	20000084 	.word	0x20000084
 80002ac:	2000009b 	.word	0x2000009b

080002b0 <HAL_I2C_ListenCpltCallback>:
 80002b0:	f003 bf48 	b.w	8004144 <HAL_I2C_EnableListen_IT>

080002b4 <HAL_I2C_AddrCallback>:
 80002b4:	460b      	mov	r3, r1
 80002b6:	b410      	push	{r4}
 80002b8:	490b      	ldr	r1, [pc, #44]	; (80002e8 <HAL_I2C_AddrCallback+0x34>)
 80002ba:	b93b      	cbnz	r3, 80002cc <HAL_I2C_AddrCallback+0x18>
 80002bc:	4a0b      	ldr	r2, [pc, #44]	; (80002ec <HAL_I2C_AddrCallback+0x38>)
 80002be:	700b      	strb	r3, [r1, #0]
 80002c0:	7013      	strb	r3, [r2, #0]
 80002c2:	f85d 4b04 	ldr.w	r4, [sp], #4
 80002c6:	2201      	movs	r2, #1
 80002c8:	f003 bedc 	b.w	8004084 <HAL_I2C_Slave_Seq_Receive_IT>
 80002cc:	4a08      	ldr	r2, [pc, #32]	; (80002f0 <HAL_I2C_AddrCallback+0x3c>)
 80002ce:	780c      	ldrb	r4, [r1, #0]
 80002d0:	2300      	movs	r3, #0
 80002d2:	7013      	strb	r3, [r2, #0]
 80002d4:	4a07      	ldr	r2, [pc, #28]	; (80002f4 <HAL_I2C_AddrCallback+0x40>)
 80002d6:	700b      	strb	r3, [r1, #0]
 80002d8:	4907      	ldr	r1, [pc, #28]	; (80002f8 <HAL_I2C_AddrCallback+0x44>)
 80002da:	7014      	strb	r4, [r2, #0]
 80002dc:	4421      	add	r1, r4
 80002de:	2201      	movs	r2, #1
 80002e0:	f85d 4b04 	ldr.w	r4, [sp], #4
 80002e4:	f003 be6c 	b.w	8003fc0 <HAL_I2C_Slave_Seq_Transmit_IT>
 80002e8:	2000008e 	.word	0x2000008e
 80002ec:	2000009b 	.word	0x2000009b
 80002f0:	2000009d 	.word	0x2000009d
 80002f4:	2000009c 	.word	0x2000009c
 80002f8:	20000084 	.word	0x20000084

080002fc <HAL_I2C_SlaveTxCpltCallback>:
 80002fc:	b410      	push	{r4}
 80002fe:	4a08      	ldr	r2, [pc, #32]	; (8000320 <HAL_I2C_SlaveTxCpltCallback+0x24>)
 8000300:	4c08      	ldr	r4, [pc, #32]	; (8000324 <HAL_I2C_SlaveTxCpltCallback+0x28>)
 8000302:	7813      	ldrb	r3, [r2, #0]
 8000304:	3301      	adds	r3, #1
 8000306:	b2db      	uxtb	r3, r3
 8000308:	7013      	strb	r3, [r2, #0]
 800030a:	4a07      	ldr	r2, [pc, #28]	; (8000328 <HAL_I2C_SlaveTxCpltCallback+0x2c>)
 800030c:	7811      	ldrb	r1, [r2, #0]
 800030e:	4419      	add	r1, r3
 8000310:	4421      	add	r1, r4
 8000312:	f04f 7380 	mov.w	r3, #16777216	; 0x1000000
 8000316:	f85d 4b04 	ldr.w	r4, [sp], #4
 800031a:	2201      	movs	r2, #1
 800031c:	f003 be50 	b.w	8003fc0 <HAL_I2C_Slave_Seq_Transmit_IT>
 8000320:	2000009d 	.word	0x2000009d
 8000324:	20000084 	.word	0x20000084
 8000328:	2000009c 	.word	0x2000009c

0800032c <HAL_I2C_SlaveRxCpltCallback>:
 800032c:	b538      	push	{r3, r4, r5, lr}
 800032e:	4c0e      	ldr	r4, [pc, #56]	; (8000368 <HAL_I2C_SlaveRxCpltCallback+0x3c>)
 8000330:	7821      	ldrb	r1, [r4, #0]
 8000332:	3101      	adds	r1, #1
 8000334:	b2c9      	uxtb	r1, r1
 8000336:	290a      	cmp	r1, #10
 8000338:	7021      	strb	r1, [r4, #0]
 800033a:	d80c      	bhi.n	8000356 <HAL_I2C_SlaveRxCpltCallback+0x2a>
 800033c:	bf11      	iteee	ne
 800033e:	4d0b      	ldrne	r5, [pc, #44]	; (800036c <HAL_I2C_SlaveRxCpltCallback+0x40>)
 8000340:	490b      	ldreq	r1, [pc, #44]	; (8000370 <HAL_I2C_SlaveRxCpltCallback+0x44>)
 8000342:	f04f 7300 	moveq.w	r3, #33554432	; 0x2000000
 8000346:	2201      	moveq	r2, #1
 8000348:	bf1e      	ittt	ne
 800034a:	f04f 7380 	movne.w	r3, #16777216	; 0x1000000
 800034e:	2201      	movne	r2, #1
 8000350:	1949      	addne	r1, r1, r5
 8000352:	f003 fe97 	bl	8004084 <HAL_I2C_Slave_Seq_Receive_IT>
 8000356:	7823      	ldrb	r3, [r4, #0]
 8000358:	2b0b      	cmp	r3, #11
 800035a:	d103      	bne.n	8000364 <HAL_I2C_SlaveRxCpltCallback+0x38>
 800035c:	e8bd 4038 	ldmia.w	sp!, {r3, r4, r5, lr}
 8000360:	f7ff bf86 	b.w	8000270 <process_data>
 8000364:	bd38      	pop	{r3, r4, r5, pc}
 8000366:	bf00      	nop
 8000368:	2000009b 	.word	0x2000009b
 800036c:	2000008e 	.word	0x2000008e
 8000370:	20000098 	.word	0x20000098

08000374 <HAL_I2C_ErrorCallback>:
 8000374:	b510      	push	{r4, lr}
 8000376:	4604      	mov	r4, r0
 8000378:	f004 fbca 	bl	8004b10 <HAL_I2C_GetError>
 800037c:	2804      	cmp	r0, #4
 800037e:	d115      	bne.n	80003ac <HAL_I2C_ErrorCallback+0x38>
 8000380:	4a12      	ldr	r2, [pc, #72]	; (80003cc <HAL_I2C_ErrorCallback+0x58>)
 8000382:	7813      	ldrb	r3, [r2, #0]
 8000384:	b963      	cbnz	r3, 80003a0 <HAL_I2C_ErrorCallback+0x2c>
 8000386:	4912      	ldr	r1, [pc, #72]	; (80003d0 <HAL_I2C_ErrorCallback+0x5c>)
 8000388:	4812      	ldr	r0, [pc, #72]	; (80003d4 <HAL_I2C_ErrorCallback+0x60>)
 800038a:	780a      	ldrb	r2, [r1, #0]
 800038c:	700b      	strb	r3, [r1, #0]
 800038e:	3a01      	subs	r2, #1
 8000390:	7002      	strb	r2, [r0, #0]
 8000392:	f7ff ff6d 	bl	8000270 <process_data>
 8000396:	4620      	mov	r0, r4
 8000398:	e8bd 4010 	ldmia.w	sp!, {r4, lr}
 800039c:	f003 bed2 	b.w	8004144 <HAL_I2C_EnableListen_IT>
 80003a0:	490d      	ldr	r1, [pc, #52]	; (80003d8 <HAL_I2C_ErrorCallback+0x64>)
 80003a2:	3b01      	subs	r3, #1
 80003a4:	700b      	strb	r3, [r1, #0]
 80003a6:	2300      	movs	r3, #0
 80003a8:	7013      	strb	r3, [r2, #0]
 80003aa:	e7f4      	b.n	8000396 <HAL_I2C_ErrorCallback+0x22>
 80003ac:	2801      	cmp	r0, #1
 80003ae:	d1f2      	bne.n	8000396 <HAL_I2C_ErrorCallback+0x22>
 80003b0:	4620      	mov	r0, r4
 80003b2:	f003 fc1e 	bl	8003bf2 <HAL_I2C_DeInit>
 80003b6:	4620      	mov	r0, r4
 80003b8:	f003 fbca 	bl	8003b50 <HAL_I2C_Init>
 80003bc:	4a07      	ldr	r2, [pc, #28]	; (80003dc <HAL_I2C_ErrorCallback+0x68>)
 80003be:	2300      	movs	r3, #0
 80003c0:	6053      	str	r3, [r2, #4]
 80003c2:	6013      	str	r3, [r2, #0]
 80003c4:	f8c2 3007 	str.w	r3, [r2, #7]
 80003c8:	4a01      	ldr	r2, [pc, #4]	; (80003d0 <HAL_I2C_ErrorCallback+0x5c>)
 80003ca:	e7ed      	b.n	80003a8 <HAL_I2C_ErrorCallback+0x34>
 80003cc:	2000009d 	.word	0x2000009d
 80003d0:	2000009b 	.word	0x2000009b
 80003d4:	20000099 	.word	0x20000099
 80003d8:	2000009a 	.word	0x2000009a
 80003dc:	2000008e 	.word	0x2000008e

080003e0 <ADC_Select_CH1>:
 80003e0:	b57f      	push	{r0, r1, r2, r3, r4, r5, r6, lr}
 80003e2:	2300      	movs	r3, #0
 80003e4:	e9cd 3303 	strd	r3, r3, [sp, #12]
 80003e8:	9305      	str	r3, [sp, #20]
 80003ea:	2301      	movs	r3, #1
 80003ec:	e9cd 3300 	strd	r3, r3, [sp]
 80003f0:	4669      	mov	r1, sp
 80003f2:	2303      	movs	r3, #3
 80003f4:	4803      	ldr	r0, [pc, #12]	; (8000404 <ADC_Select_CH1+0x24>)
 80003f6:	9302      	str	r3, [sp, #8]
 80003f8:	f002 fcdc 	bl	8002db4 <HAL_ADC_ConfigChannel>
 80003fc:	b007      	add	sp, #28
 80003fe:	f85d fb04 	ldr.w	pc, [sp], #4
 8000402:	bf00      	nop
 8000404:	20000154 	.word	0x20000154

08000408 <ADC_Select_CH12>:
 8000408:	b57f      	push	{r0, r1, r2, r3, r4, r5, r6, lr}
 800040a:	2300      	movs	r3, #0
 800040c:	e9cd 3303 	strd	r3, r3, [sp, #12]
 8000410:	9305      	str	r3, [sp, #20]
 8000412:	220c      	movs	r2, #12
 8000414:	2301      	movs	r3, #1
 8000416:	e9cd 2300 	strd	r2, r3, [sp]
 800041a:	4669      	mov	r1, sp
 800041c:	2303      	movs	r3, #3
 800041e:	4803      	ldr	r0, [pc, #12]	; (800042c <ADC_Select_CH12+0x24>)
 8000420:	9302      	str	r3, [sp, #8]
 8000422:	f002 fcc7 	bl	8002db4 <HAL_ADC_ConfigChannel>
 8000426:	b007      	add	sp, #28
 8000428:	f85d fb04 	ldr.w	pc, [sp], #4
 800042c:	20000154 	.word	0x20000154

08000430 <ADC_read_1>:
 8000430:	b538      	push	{r3, r4, r5, lr}
 8000432:	4c0b      	ldr	r4, [pc, #44]	; (8000460 <ADC_read_1+0x30>)
 8000434:	4d0b      	ldr	r5, [pc, #44]	; (8000464 <ADC_read_1+0x34>)
 8000436:	f7ff ffd3 	bl	80003e0 <ADC_Select_CH1>
 800043a:	2300      	movs	r3, #0
 800043c:	4620      	mov	r0, r4
 800043e:	806b      	strh	r3, [r5, #2]
 8000440:	f002 f838 	bl	80024b4 <HAL_ADC_Start>
 8000444:	2164      	movs	r1, #100	; 0x64
 8000446:	4620      	mov	r0, r4
 8000448:	f002 f8fc 	bl	8002644 <HAL_ADC_PollForConversion>
 800044c:	4620      	mov	r0, r4
 800044e:	f002 fa81 	bl	8002954 <HAL_ADC_GetValue>
 8000452:	8068      	strh	r0, [r5, #2]
 8000454:	4620      	mov	r0, r4
 8000456:	f002 f8d5 	bl	8002604 <HAL_ADC_Stop>
 800045a:	8868      	ldrh	r0, [r5, #2]
 800045c:	bd38      	pop	{r3, r4, r5, pc}
 800045e:	bf00      	nop
 8000460:	20000154 	.word	0x20000154
 8000464:	200000a4 	.word	0x200000a4

08000468 <ADC_read_12>:
 8000468:	b538      	push	{r3, r4, r5, lr}
 800046a:	4c0b      	ldr	r4, [pc, #44]	; (8000498 <ADC_read_12+0x30>)
 800046c:	4d0b      	ldr	r5, [pc, #44]	; (800049c <ADC_read_12+0x34>)
 800046e:	f7ff ffcb 	bl	8000408 <ADC_Select_CH12>
 8000472:	2300      	movs	r3, #0
 8000474:	4620      	mov	r0, r4
 8000476:	802b      	strh	r3, [r5, #0]
 8000478:	f002 f81c 	bl	80024b4 <HAL_ADC_Start>
 800047c:	2164      	movs	r1, #100	; 0x64
 800047e:	4620      	mov	r0, r4
 8000480:	f002 f8e0 	bl	8002644 <HAL_ADC_PollForConversion>
 8000484:	4620      	mov	r0, r4
 8000486:	f002 fa65 	bl	8002954 <HAL_ADC_GetValue>
 800048a:	8028      	strh	r0, [r5, #0]
 800048c:	4620      	mov	r0, r4
 800048e:	f002 f8b9 	bl	8002604 <HAL_ADC_Stop>
 8000492:	8828      	ldrh	r0, [r5, #0]
 8000494:	bd38      	pop	{r3, r4, r5, pc}
 8000496:	bf00      	nop
 8000498:	20000154 	.word	0x20000154
 800049c:	200000a4 	.word	0x200000a4

080004a0 <PWM_correction>:
 80004a0:	e92d 47f0 	stmdb	sp!, {r4, r5, r6, r7, r8, r9, sl, lr}
 80004a4:	f8df a0ec 	ldr.w	sl, [pc, #236]	; 8000594 <PWM_correction+0xf4>
 80004a8:	4e34      	ldr	r6, [pc, #208]	; (800057c <PWM_correction+0xdc>)
 80004aa:	f8df 80ec 	ldr.w	r8, [pc, #236]	; 8000598 <PWM_correction+0xf8>
 80004ae:	f8df 90ec 	ldr.w	r9, [pc, #236]	; 800059c <PWM_correction+0xfc>
 80004b2:	4f33      	ldr	r7, [pc, #204]	; (8000580 <PWM_correction+0xe0>)
 80004b4:	2500      	movs	r5, #0
 80004b6:	4654      	mov	r4, sl
 80004b8:	f8b8 3000 	ldrh.w	r3, [r8]
 80004bc:	f836 2b02 	ldrh.w	r2, [r6], #2
 80004c0:	f8b9 1000 	ldrh.w	r1, [r9]
 80004c4:	b29b      	uxth	r3, r3
 80004c6:	4291      	cmp	r1, r2
 80004c8:	f82a 3b02 	strh.w	r3, [sl], #2
 80004cc:	d809      	bhi.n	80004e2 <PWM_correction+0x42>
 80004ce:	2b09      	cmp	r3, #9
 80004d0:	d907      	bls.n	80004e2 <PWM_correction+0x42>
 80004d2:	2201      	movs	r2, #1
 80004d4:	3b0a      	subs	r3, #10
 80004d6:	4611      	mov	r1, r2
 80004d8:	4638      	mov	r0, r7
 80004da:	f82a 3c02 	strh.w	r3, [sl, #-2]
 80004de:	f003 f93d 	bl	800375c <HAL_GPIO_WritePin>
 80004e2:	f836 2c02 	ldrh.w	r2, [r6, #-2]
 80004e6:	f240 635d 	movw	r3, #1629	; 0x65d
 80004ea:	429a      	cmp	r2, r3
 80004ec:	d929      	bls.n	8000542 <PWM_correction+0xa2>
 80004ee:	2100      	movs	r1, #0
 80004f0:	4824      	ldr	r0, [pc, #144]	; (8000584 <PWM_correction+0xe4>)
 80004f2:	f005 ff59 	bl	80063a8 <HAL_TIM_PWM_Stop>
 80004f6:	2104      	movs	r1, #4
 80004f8:	4822      	ldr	r0, [pc, #136]	; (8000584 <PWM_correction+0xe4>)
 80004fa:	f005 ff55 	bl	80063a8 <HAL_TIM_PWM_Stop>
 80004fe:	2100      	movs	r1, #0
 8000500:	4821      	ldr	r0, [pc, #132]	; (8000588 <PWM_correction+0xe8>)
 8000502:	f005 ff51 	bl	80063a8 <HAL_TIM_PWM_Stop>
 8000506:	2100      	movs	r1, #0
 8000508:	4820      	ldr	r0, [pc, #128]	; (800058c <PWM_correction+0xec>)
 800050a:	f005 ff4d 	bl	80063a8 <HAL_TIM_PWM_Stop>
 800050e:	2100      	movs	r1, #0
 8000510:	481c      	ldr	r0, [pc, #112]	; (8000584 <PWM_correction+0xe4>)
 8000512:	f006 f890 	bl	8006636 <HAL_TIMEx_PWMN_Stop>
 8000516:	2104      	movs	r1, #4
 8000518:	481a      	ldr	r0, [pc, #104]	; (8000584 <PWM_correction+0xe4>)
 800051a:	f006 f88c 	bl	8006636 <HAL_TIMEx_PWMN_Stop>
 800051e:	2100      	movs	r1, #0
 8000520:	4819      	ldr	r0, [pc, #100]	; (8000588 <PWM_correction+0xe8>)
 8000522:	f006 f888 	bl	8006636 <HAL_TIMEx_PWMN_Stop>
 8000526:	2100      	movs	r1, #0
 8000528:	4818      	ldr	r0, [pc, #96]	; (800058c <PWM_correction+0xec>)
 800052a:	f006 f884 	bl	8006636 <HAL_TIMEx_PWMN_Stop>
 800052e:	230a      	movs	r3, #10
 8000530:	2201      	movs	r2, #1
 8000532:	8023      	strh	r3, [r4, #0]
 8000534:	8063      	strh	r3, [r4, #2]
 8000536:	80a3      	strh	r3, [r4, #4]
 8000538:	80e3      	strh	r3, [r4, #6]
 800053a:	4611      	mov	r1, r2
 800053c:	4638      	mov	r0, r7
 800053e:	f003 f90d 	bl	800375c <HAL_GPIO_WritePin>
 8000542:	f83a 3c02 	ldrh.w	r3, [sl, #-2]
 8000546:	2b09      	cmp	r3, #9
 8000548:	d908      	bls.n	800055c <PWM_correction+0xbc>
 800054a:	f836 3c02 	ldrh.w	r3, [r6, #-2]
 800054e:	2b0a      	cmp	r3, #10
 8000550:	d804      	bhi.n	800055c <PWM_correction+0xbc>
 8000552:	2200      	movs	r2, #0
 8000554:	2101      	movs	r1, #1
 8000556:	4638      	mov	r0, r7
 8000558:	f003 f900 	bl	800375c <HAL_GPIO_WritePin>
 800055c:	3501      	adds	r5, #1
 800055e:	b2ed      	uxtb	r5, r5
 8000560:	2d04      	cmp	r5, #4
 8000562:	d1a9      	bne.n	80004b8 <PWM_correction+0x18>
 8000564:	8862      	ldrh	r2, [r4, #2]
 8000566:	8823      	ldrh	r3, [r4, #0]
 8000568:	4413      	add	r3, r2
 800056a:	88a2      	ldrh	r2, [r4, #4]
 800056c:	4413      	add	r3, r2
 800056e:	88e2      	ldrh	r2, [r4, #6]
 8000570:	4413      	add	r3, r2
 8000572:	4a07      	ldr	r2, [pc, #28]	; (8000590 <PWM_correction+0xf0>)
 8000574:	109b      	asrs	r3, r3, #2
 8000576:	8013      	strh	r3, [r2, #0]
 8000578:	e8bd 87f0 	ldmia.w	sp!, {r4, r5, r6, r7, r8, r9, sl, pc}
 800057c:	200000a4 	.word	0x200000a4
 8000580:	48001400 	.word	0x48001400
 8000584:	200002f4 	.word	0x200002f4
 8000588:	20000424 	.word	0x20000424
 800058c:	20000340 	.word	0x20000340
 8000590:	200005e0 	.word	0x200005e0
 8000594:	20000004 	.word	0x20000004
 8000598:	200005de 	.word	0x200005de
 800059c:	20000002 	.word	0x20000002

080005a0 <I2C_send>:
 80005a0:	b530      	push	{r4, r5, lr}
 80005a2:	4605      	mov	r5, r0
 80005a4:	b085      	sub	sp, #20
 80005a6:	460c      	mov	r4, r1
 80005a8:	4816      	ldr	r0, [pc, #88]	; (8000604 <I2C_send+0x64>)
 80005aa:	f04f 33ff 	mov.w	r3, #4294967295
 80005ae:	2201      	movs	r2, #1
 80005b0:	214e      	movs	r1, #78	; 0x4e
 80005b2:	f003 fc65 	bl	8003e80 <HAL_I2C_IsDeviceReady>
 80005b6:	2800      	cmp	r0, #0
 80005b8:	d1f6      	bne.n	80005a8 <I2C_send+0x8>
 80005ba:	f025 030f 	bic.w	r3, r5, #15
 80005be:	4323      	orrs	r3, r4
 80005c0:	ea44 1005 	orr.w	r0, r4, r5, lsl #4
 80005c4:	f043 020c 	orr.w	r2, r3, #12
 80005c8:	b2c0      	uxtb	r0, r0
 80005ca:	f043 0308 	orr.w	r3, r3, #8
 80005ce:	f88d 300d 	strb.w	r3, [sp, #13]
 80005d2:	f040 030c 	orr.w	r3, r0, #12
 80005d6:	f88d 300e 	strb.w	r3, [sp, #14]
 80005da:	f040 0008 	orr.w	r0, r0, #8
 80005de:	f04f 33ff 	mov.w	r3, #4294967295
 80005e2:	f88d 200c 	strb.w	r2, [sp, #12]
 80005e6:	f88d 000f 	strb.w	r0, [sp, #15]
 80005ea:	9300      	str	r3, [sp, #0]
 80005ec:	aa03      	add	r2, sp, #12
 80005ee:	2304      	movs	r3, #4
 80005f0:	214e      	movs	r1, #78	; 0x4e
 80005f2:	4804      	ldr	r0, [pc, #16]	; (8000604 <I2C_send+0x64>)
 80005f4:	f003 fb16 	bl	8003c24 <HAL_I2C_Master_Transmit>
 80005f8:	2005      	movs	r0, #5
 80005fa:	f001 fd29 	bl	8002050 <HAL_Delay>
 80005fe:	b005      	add	sp, #20
 8000600:	bd30      	pop	{r4, r5, pc}
 8000602:	bf00      	nop
 8000604:	2000027c 	.word	0x2000027c

08000608 <lcd_write_nibble>:
 8000608:	b530      	push	{r4, r5, lr}
 800060a:	4b14      	ldr	r3, [pc, #80]	; (800065c <lcd_write_nibble+0x54>)
 800060c:	4c14      	ldr	r4, [pc, #80]	; (8000660 <lcd_write_nibble+0x58>)
 800060e:	781b      	ldrb	r3, [r3, #0]
 8000610:	ea41 1000 	orr.w	r0, r1, r0, lsl #4
 8000614:	b085      	sub	sp, #20
 8000616:	ea40 00c3 	orr.w	r0, r0, r3, lsl #3
 800061a:	2564      	movs	r5, #100	; 0x64
 800061c:	f040 0004 	orr.w	r0, r0, #4
 8000620:	f10d 020f 	add.w	r2, sp, #15
 8000624:	f88d 000f 	strb.w	r0, [sp, #15]
 8000628:	2301      	movs	r3, #1
 800062a:	214e      	movs	r1, #78	; 0x4e
 800062c:	9500      	str	r5, [sp, #0]
 800062e:	4620      	mov	r0, r4
 8000630:	f003 faf8 	bl	8003c24 <HAL_I2C_Master_Transmit>
 8000634:	2001      	movs	r0, #1
 8000636:	f001 fd0b 	bl	8002050 <HAL_Delay>
 800063a:	f89d 300f 	ldrb.w	r3, [sp, #15]
 800063e:	9500      	str	r5, [sp, #0]
 8000640:	f023 0304 	bic.w	r3, r3, #4
 8000644:	f88d 300f 	strb.w	r3, [sp, #15]
 8000648:	f10d 020f 	add.w	r2, sp, #15
 800064c:	2301      	movs	r3, #1
 800064e:	214e      	movs	r1, #78	; 0x4e
 8000650:	4620      	mov	r0, r4
 8000652:	f003 fae7 	bl	8003c24 <HAL_I2C_Master_Transmit>
 8000656:	b005      	add	sp, #20
 8000658:	bd30      	pop	{r4, r5, pc}
 800065a:	bf00      	nop
 800065c:	20000000 	.word	0x20000000
 8000660:	2000027c 	.word	0x2000027c

08000664 <lcd_send_cmd>:
 8000664:	b510      	push	{r4, lr}
 8000666:	2100      	movs	r1, #0
 8000668:	4604      	mov	r4, r0
 800066a:	0900      	lsrs	r0, r0, #4
 800066c:	f7ff ffcc 	bl	8000608 <lcd_write_nibble>
 8000670:	f004 000f 	and.w	r0, r4, #15
 8000674:	2100      	movs	r1, #0
 8000676:	3c01      	subs	r4, #1
 8000678:	f7ff ffc6 	bl	8000608 <lcd_write_nibble>
 800067c:	2c01      	cmp	r4, #1
 800067e:	d804      	bhi.n	800068a <lcd_send_cmd+0x26>
 8000680:	e8bd 4010 	ldmia.w	sp!, {r4, lr}
 8000684:	2002      	movs	r0, #2
 8000686:	f001 bce3 	b.w	8002050 <HAL_Delay>
 800068a:	bd10      	pop	{r4, pc}

0800068c <lcd_send_data>:
 800068c:	b510      	push	{r4, lr}
 800068e:	2101      	movs	r1, #1
 8000690:	4604      	mov	r4, r0
 8000692:	0900      	lsrs	r0, r0, #4
 8000694:	f7ff ffb8 	bl	8000608 <lcd_write_nibble>
 8000698:	f004 000f 	and.w	r0, r4, #15
 800069c:	2101      	movs	r1, #1
 800069e:	e8bd 4010 	ldmia.w	sp!, {r4, lr}
 80006a2:	f7ff bfb1 	b.w	8000608 <lcd_write_nibble>

080006a6 <lcd_init>:
 80006a6:	b508      	push	{r3, lr}
 80006a8:	2032      	movs	r0, #50	; 0x32
 80006aa:	f001 fcd1 	bl	8002050 <HAL_Delay>
 80006ae:	2100      	movs	r1, #0
 80006b0:	2003      	movs	r0, #3
 80006b2:	f7ff ffa9 	bl	8000608 <lcd_write_nibble>
 80006b6:	2005      	movs	r0, #5
 80006b8:	f001 fcca 	bl	8002050 <HAL_Delay>
 80006bc:	2100      	movs	r1, #0
 80006be:	2003      	movs	r0, #3
 80006c0:	f7ff ffa2 	bl	8000608 <lcd_write_nibble>
 80006c4:	2001      	movs	r0, #1
 80006c6:	f001 fcc3 	bl	8002050 <HAL_Delay>
 80006ca:	2100      	movs	r1, #0
 80006cc:	2003      	movs	r0, #3
 80006ce:	f7ff ff9b 	bl	8000608 <lcd_write_nibble>
 80006d2:	2001      	movs	r0, #1
 80006d4:	f001 fcbc 	bl	8002050 <HAL_Delay>
 80006d8:	2100      	movs	r1, #0
 80006da:	2002      	movs	r0, #2
 80006dc:	f7ff ff94 	bl	8000608 <lcd_write_nibble>
 80006e0:	2028      	movs	r0, #40	; 0x28
 80006e2:	f7ff ffbf 	bl	8000664 <lcd_send_cmd>
 80006e6:	200c      	movs	r0, #12
 80006e8:	f7ff ffbc 	bl	8000664 <lcd_send_cmd>
 80006ec:	2006      	movs	r0, #6
 80006ee:	f7ff ffb9 	bl	8000664 <lcd_send_cmd>
 80006f2:	2001      	movs	r0, #1
 80006f4:	f7ff ffb6 	bl	8000664 <lcd_send_cmd>
 80006f8:	e8bd 4008 	ldmia.w	sp!, {r3, lr}
 80006fc:	2002      	movs	r0, #2
 80006fe:	f001 bca7 	b.w	8002050 <HAL_Delay>

08000702 <lcd_write_string>:
 8000702:	b510      	push	{r4, lr}
 8000704:	1e44      	subs	r4, r0, #1
 8000706:	f814 0f01 	ldrb.w	r0, [r4, #1]!
 800070a:	b900      	cbnz	r0, 800070e <lcd_write_string+0xc>
 800070c:	bd10      	pop	{r4, pc}
 800070e:	f7ff ffbd 	bl	800068c <lcd_send_data>
 8000712:	e7f8      	b.n	8000706 <lcd_write_string+0x4>

08000714 <lcd_set_cursor>:
 8000714:	3802      	subs	r0, #2
 8000716:	b2c0      	uxtb	r0, r0
 8000718:	2802      	cmp	r0, #2
 800071a:	bf9a      	itte	ls
 800071c:	4b04      	ldrls	r3, [pc, #16]	; (8000730 <lcd_set_cursor+0x1c>)
 800071e:	5c18      	ldrbls	r0, [r3, r0]
 8000720:	2080      	movhi	r0, #128	; 0x80
 8000722:	4401      	add	r1, r0
 8000724:	f061 007f 	orn	r0, r1, #127	; 0x7f
 8000728:	b2c0      	uxtb	r0, r0
 800072a:	f7ff bf9b 	b.w	8000664 <lcd_send_cmd>
 800072e:	bf00      	nop
 8000730:	0800787f 	.word	0x0800787f

08000734 <lcd_clear>:
 8000734:	b508      	push	{r3, lr}
 8000736:	2001      	movs	r0, #1
 8000738:	f7ff ff94 	bl	8000664 <lcd_send_cmd>
 800073c:	e8bd 4008 	ldmia.w	sp!, {r3, lr}
 8000740:	2002      	movs	r0, #2
 8000742:	f001 bc85 	b.w	8002050 <HAL_Delay>
	...

08000748 <filter>:
 8000748:	490b      	ldr	r1, [pc, #44]	; (8000778 <filter+0x30>)
 800074a:	b570      	push	{r4, r5, r6, lr}
 800074c:	680b      	ldr	r3, [r1, #0]
 800074e:	4c0b      	ldr	r4, [pc, #44]	; (800077c <filter+0x34>)
 8000750:	4d0b      	ldr	r5, [pc, #44]	; (8000780 <filter+0x38>)
 8000752:	f854 2023 	ldr.w	r2, [r4, r3, lsl #2]
 8000756:	682e      	ldr	r6, [r5, #0]
 8000758:	f844 0023 	str.w	r0, [r4, r3, lsl #2]
 800075c:	1a82      	subs	r2, r0, r2
 800075e:	3301      	adds	r3, #1
 8000760:	2014      	movs	r0, #20
 8000762:	4432      	add	r2, r6
 8000764:	fb93 f4f0 	sdiv	r4, r3, r0
 8000768:	fb00 3314 	mls	r3, r0, r4, r3
 800076c:	602a      	str	r2, [r5, #0]
 800076e:	600b      	str	r3, [r1, #0]
 8000770:	fb92 f0f0 	sdiv	r0, r2, r0
 8000774:	bd70      	pop	{r4, r5, r6, pc}
 8000776:	bf00      	nop
 8000778:	200005d4 	.word	0x200005d4
 800077c:	20000580 	.word	0x20000580
 8000780:	2000060c 	.word	0x2000060c

08000784 <page>:
 8000784:	b510      	push	{r4, lr}
 8000786:	4815      	ldr	r0, [pc, #84]	; (80007dc <page+0x58>)
 8000788:	4c15      	ldr	r4, [pc, #84]	; (80007e0 <page+0x5c>)
 800078a:	2120      	movs	r1, #32
 800078c:	f002 ffe0 	bl	8003750 <HAL_GPIO_ReadPin>
 8000790:	7823      	ldrb	r3, [r4, #0]
 8000792:	4318      	orrs	r0, r3
 8000794:	b2c0      	uxtb	r0, r0
 8000796:	b960      	cbnz	r0, 80007b2 <page+0x2e>
 8000798:	2201      	movs	r2, #1
 800079a:	4812      	ldr	r0, [pc, #72]	; (80007e4 <page+0x60>)
 800079c:	2102      	movs	r1, #2
 800079e:	f002 ffdd 	bl	800375c <HAL_GPIO_WritePin>
 80007a2:	4a11      	ldr	r2, [pc, #68]	; (80007e8 <page+0x64>)
 80007a4:	2301      	movs	r3, #1
 80007a6:	7023      	strb	r3, [r4, #0]
 80007a8:	7813      	ldrb	r3, [r2, #0]
 80007aa:	3301      	adds	r3, #1
 80007ac:	7013      	strb	r3, [r2, #0]
 80007ae:	f7ff ffc1 	bl	8000734 <lcd_clear>
 80007b2:	480a      	ldr	r0, [pc, #40]	; (80007dc <page+0x58>)
 80007b4:	2120      	movs	r1, #32
 80007b6:	f002 ffcb 	bl	8003750 <HAL_GPIO_ReadPin>
 80007ba:	b170      	cbz	r0, 80007da <page+0x56>
 80007bc:	7823      	ldrb	r3, [r4, #0]
 80007be:	b163      	cbz	r3, 80007da <page+0x56>
 80007c0:	2200      	movs	r2, #0
 80007c2:	4808      	ldr	r0, [pc, #32]	; (80007e4 <page+0x60>)
 80007c4:	2102      	movs	r1, #2
 80007c6:	f002 ffc9 	bl	800375c <HAL_GPIO_WritePin>
 80007ca:	4a07      	ldr	r2, [pc, #28]	; (80007e8 <page+0x64>)
 80007cc:	7813      	ldrb	r3, [r2, #0]
 80007ce:	2b03      	cmp	r3, #3
 80007d0:	f04f 0300 	mov.w	r3, #0
 80007d4:	bf88      	it	hi
 80007d6:	7013      	strbhi	r3, [r2, #0]
 80007d8:	7023      	strb	r3, [r4, #0]
 80007da:	bd10      	pop	{r4, pc}
 80007dc:	48000400 	.word	0x48000400
 80007e0:	200005d8 	.word	0x200005d8
 80007e4:	48001400 	.word	0x48001400
 80007e8:	200005d9 	.word	0x200005d9

080007ec <SystemClock_Config>:
 80007ec:	b510      	push	{r4, lr}
 80007ee:	b09e      	sub	sp, #120	; 0x78
 80007f0:	2220      	movs	r2, #32
 80007f2:	2100      	movs	r1, #0
 80007f4:	a806      	add	r0, sp, #24
 80007f6:	f006 fb71 	bl	8006edc <memset>
 80007fa:	2214      	movs	r2, #20
 80007fc:	2100      	movs	r1, #0
 80007fe:	4668      	mov	r0, sp
 8000800:	f006 fb6c 	bl	8006edc <memset>
 8000804:	223c      	movs	r2, #60	; 0x3c
 8000806:	eb0d 0002 	add.w	r0, sp, r2
 800080a:	2100      	movs	r1, #0
 800080c:	f006 fb66 	bl	8006edc <memset>
 8000810:	230a      	movs	r3, #10
 8000812:	9305      	str	r3, [sp, #20]
 8000814:	2210      	movs	r2, #16
 8000816:	2301      	movs	r3, #1
 8000818:	e9cd 3209 	strd	r3, r2, [sp, #36]	; 0x24
 800081c:	930b      	str	r3, [sp, #44]	; 0x2c
 800081e:	2402      	movs	r4, #2
 8000820:	f44f 1360 	mov.w	r3, #3670016	; 0x380000
 8000824:	a805      	add	r0, sp, #20
 8000826:	940c      	str	r4, [sp, #48]	; 0x30
 8000828:	930e      	str	r3, [sp, #56]	; 0x38
 800082a:	f004 f9bf 	bl	8004bac <HAL_RCC_OscConfig>
 800082e:	b108      	cbz	r0, 8000834 <SystemClock_Config+0x48>
 8000830:	b672      	cpsid	i
 8000832:	e7fe      	b.n	8000832 <SystemClock_Config+0x46>
 8000834:	230f      	movs	r3, #15
 8000836:	e9cd 3400 	strd	r3, r4, [sp]
 800083a:	f44f 6380 	mov.w	r3, #1024	; 0x400
 800083e:	e9cd 3003 	strd	r3, r0, [sp, #12]
 8000842:	9002      	str	r0, [sp, #8]
 8000844:	4621      	mov	r1, r4
 8000846:	4668      	mov	r0, sp
 8000848:	f004 fc40 	bl	80050cc <HAL_RCC_ClockConfig>
 800084c:	b108      	cbz	r0, 8000852 <SystemClock_Config+0x66>
 800084e:	b672      	cpsid	i
 8000850:	e7fe      	b.n	8000850 <SystemClock_Config+0x64>
 8000852:	4b0c      	ldr	r3, [pc, #48]	; (8000884 <SystemClock_Config+0x98>)
 8000854:	930f      	str	r3, [sp, #60]	; 0x3c
 8000856:	f44f 7280 	mov.w	r2, #256	; 0x100
 800085a:	f44f 5300 	mov.w	r3, #8192	; 0x2000
 800085e:	e9cd 0011 	strd	r0, r0, [sp, #68]	; 0x44
 8000862:	e9cd 2318 	strd	r2, r3, [sp, #96]	; 0x60
 8000866:	e9cd 001b 	strd	r0, r0, [sp, #108]	; 0x6c
 800086a:	9016      	str	r0, [sp, #88]	; 0x58
 800086c:	f44f 7300 	mov.w	r3, #512	; 0x200
 8000870:	a80f      	add	r0, sp, #60	; 0x3c
 8000872:	9310      	str	r3, [sp, #64]	; 0x40
 8000874:	f004 fd02 	bl	800527c <HAL_RCCEx_PeriphCLKConfig>
 8000878:	b108      	cbz	r0, 800087e <SystemClock_Config+0x92>
 800087a:	b672      	cpsid	i
 800087c:	e7fe      	b.n	800087c <SystemClock_Config+0x90>
 800087e:	b01e      	add	sp, #120	; 0x78
 8000880:	bd10      	pop	{r4, pc}
 8000882:	bf00      	nop
 8000884:	000131a3 	.word	0x000131a3

08000888 <main>:
 8000888:	e92d 4ff0 	stmdb	sp!, {r4, r5, r6, r7, r8, r9, sl, fp, lr}
 800088c:	4db7      	ldr	r5, [pc, #732]	; (8000b6c <main+0x2e4>)
 800088e:	b0a5      	sub	sp, #148	; 0x94
 8000890:	f001 fbba 	bl	8002008 <HAL_Init>
 8000894:	f7ff ffaa 	bl	80007ec <SystemClock_Config>
 8000898:	2214      	movs	r2, #20
 800089a:	2100      	movs	r1, #0
 800089c:	a819      	add	r0, sp, #100	; 0x64
 800089e:	f006 fb1d 	bl	8006edc <memset>
 80008a2:	696b      	ldr	r3, [r5, #20]
 80008a4:	48b2      	ldr	r0, [pc, #712]	; (8000b70 <main+0x2e8>)
 80008a6:	f443 2300 	orr.w	r3, r3, #524288	; 0x80000
 80008aa:	616b      	str	r3, [r5, #20]
 80008ac:	696b      	ldr	r3, [r5, #20]
 80008ae:	f403 2300 	and.w	r3, r3, #524288	; 0x80000
 80008b2:	9307      	str	r3, [sp, #28]
 80008b4:	9b07      	ldr	r3, [sp, #28]
 80008b6:	696b      	ldr	r3, [r5, #20]
 80008b8:	f443 0380 	orr.w	r3, r3, #4194304	; 0x400000
 80008bc:	616b      	str	r3, [r5, #20]
 80008be:	696b      	ldr	r3, [r5, #20]
 80008c0:	f403 0380 	and.w	r3, r3, #4194304	; 0x400000
 80008c4:	9308      	str	r3, [sp, #32]
 80008c6:	9b08      	ldr	r3, [sp, #32]
 80008c8:	696b      	ldr	r3, [r5, #20]
 80008ca:	f443 3300 	orr.w	r3, r3, #131072	; 0x20000
 80008ce:	616b      	str	r3, [r5, #20]
 80008d0:	696b      	ldr	r3, [r5, #20]
 80008d2:	f403 3300 	and.w	r3, r3, #131072	; 0x20000
 80008d6:	9309      	str	r3, [sp, #36]	; 0x24
 80008d8:	9b09      	ldr	r3, [sp, #36]	; 0x24
 80008da:	696b      	ldr	r3, [r5, #20]
 80008dc:	f443 2380 	orr.w	r3, r3, #262144	; 0x40000
 80008e0:	616b      	str	r3, [r5, #20]
 80008e2:	696b      	ldr	r3, [r5, #20]
 80008e4:	f403 2380 	and.w	r3, r3, #262144	; 0x40000
 80008e8:	930a      	str	r3, [sp, #40]	; 0x28
 80008ea:	2200      	movs	r2, #0
 80008ec:	f44f 4100 	mov.w	r1, #32768	; 0x8000
 80008f0:	9b0a      	ldr	r3, [sp, #40]	; 0x28
 80008f2:	f002 ff33 	bl	800375c <HAL_GPIO_WritePin>
 80008f6:	489f      	ldr	r0, [pc, #636]	; (8000b74 <main+0x2ec>)
 80008f8:	2200      	movs	r2, #0
 80008fa:	2103      	movs	r1, #3
 80008fc:	f002 ff2e 	bl	800375c <HAL_GPIO_WritePin>
 8000900:	489d      	ldr	r0, [pc, #628]	; (8000b78 <main+0x2f0>)
 8000902:	2200      	movs	r2, #0
 8000904:	f44f 5170 	mov.w	r1, #15360	; 0x3c00
 8000908:	f002 ff28 	bl	800375c <HAL_GPIO_WritePin>
 800090c:	2200      	movs	r2, #0
 800090e:	f44f 6180 	mov.w	r1, #1024	; 0x400
 8000912:	f04f 4090 	mov.w	r0, #1207959552	; 0x48000000
 8000916:	2400      	movs	r4, #0
 8000918:	f002 ff20 	bl	800375c <HAL_GPIO_WritePin>
 800091c:	f44f 1944 	mov.w	r9, #3211264	; 0x310000
 8000920:	f44f 43c0 	mov.w	r3, #24576	; 0x6000
 8000924:	4892      	ldr	r0, [pc, #584]	; (8000b70 <main+0x2e8>)
 8000926:	941b      	str	r4, [sp, #108]	; 0x6c
 8000928:	a919      	add	r1, sp, #100	; 0x64
 800092a:	2601      	movs	r6, #1
 800092c:	e9cd 3919 	strd	r3, r9, [sp, #100]	; 0x64
 8000930:	f002 fdd0 	bl	80034d4 <HAL_GPIO_Init>
 8000934:	f44f 4300 	mov.w	r3, #32768	; 0x8000
 8000938:	488d      	ldr	r0, [pc, #564]	; (8000b70 <main+0x2e8>)
 800093a:	a919      	add	r1, sp, #100	; 0x64
 800093c:	e9cd 3619 	strd	r3, r6, [sp, #100]	; 0x64
 8000940:	2703      	movs	r7, #3
 8000942:	e9cd 441b 	strd	r4, r4, [sp, #108]	; 0x6c
 8000946:	f002 fdc5 	bl	80034d4 <HAL_GPIO_Init>
 800094a:	488a      	ldr	r0, [pc, #552]	; (8000b74 <main+0x2ec>)
 800094c:	a919      	add	r1, sp, #100	; 0x64
 800094e:	f04f 0802 	mov.w	r8, #2
 8000952:	e9cd 7619 	strd	r7, r6, [sp, #100]	; 0x64
 8000956:	e9cd 441b 	strd	r4, r4, [sp, #108]	; 0x6c
 800095a:	f002 fdbb 	bl	80034d4 <HAL_GPIO_Init>
 800095e:	a919      	add	r1, sp, #100	; 0x64
 8000960:	f04f 4090 	mov.w	r0, #1207959552	; 0x48000000
 8000964:	e9cd 8919 	strd	r8, r9, [sp, #100]	; 0x64
 8000968:	941b      	str	r4, [sp, #108]	; 0x6c
 800096a:	f002 fdb3 	bl	80034d4 <HAL_GPIO_Init>
 800096e:	f44f 5370 	mov.w	r3, #15360	; 0x3c00
 8000972:	4881      	ldr	r0, [pc, #516]	; (8000b78 <main+0x2f0>)
 8000974:	a919      	add	r1, sp, #100	; 0x64
 8000976:	e9cd 3619 	strd	r3, r6, [sp, #100]	; 0x64
 800097a:	e9cd 441b 	strd	r4, r4, [sp, #108]	; 0x6c
 800097e:	f002 fda9 	bl	80034d4 <HAL_GPIO_Init>
 8000982:	f44f 6380 	mov.w	r3, #1024	; 0x400
 8000986:	a919      	add	r1, sp, #100	; 0x64
 8000988:	f04f 4090 	mov.w	r0, #1207959552	; 0x48000000
 800098c:	e9cd 3619 	strd	r3, r6, [sp, #100]	; 0x64
 8000990:	e9cd 441b 	strd	r4, r4, [sp, #108]	; 0x6c
 8000994:	f002 fd9e 	bl	80034d4 <HAL_GPIO_Init>
 8000998:	2320      	movs	r3, #32
 800099a:	4877      	ldr	r0, [pc, #476]	; (8000b78 <main+0x2f0>)
 800099c:	941b      	str	r4, [sp, #108]	; 0x6c
 800099e:	a919      	add	r1, sp, #100	; 0x64
 80009a0:	e9cd 3419 	strd	r3, r4, [sp, #100]	; 0x64
 80009a4:	f002 fd96 	bl	80034d4 <HAL_GPIO_Init>
 80009a8:	4622      	mov	r2, r4
 80009aa:	4621      	mov	r1, r4
 80009ac:	2007      	movs	r0, #7
 80009ae:	f002 fc23 	bl	80031f8 <HAL_NVIC_SetPriority>
 80009b2:	2007      	movs	r0, #7
 80009b4:	f002 fc52 	bl	800325c <HAL_NVIC_EnableIRQ>
 80009b8:	4622      	mov	r2, r4
 80009ba:	4639      	mov	r1, r7
 80009bc:	2028      	movs	r0, #40	; 0x28
 80009be:	f002 fc1b 	bl	80031f8 <HAL_NVIC_SetPriority>
 80009c2:	2028      	movs	r0, #40	; 0x28
 80009c4:	f002 fc4a 	bl	800325c <HAL_NVIC_EnableIRQ>
 80009c8:	696b      	ldr	r3, [r5, #20]
 80009ca:	4333      	orrs	r3, r6
 80009cc:	616b      	str	r3, [r5, #20]
 80009ce:	696b      	ldr	r3, [r5, #20]
 80009d0:	4033      	ands	r3, r6
 80009d2:	9305      	str	r3, [sp, #20]
 80009d4:	9b05      	ldr	r3, [sp, #20]
 80009d6:	696b      	ldr	r3, [r5, #20]
 80009d8:	ea43 0308 	orr.w	r3, r3, r8
 80009dc:	616b      	str	r3, [r5, #20]
 80009de:	696b      	ldr	r3, [r5, #20]
 80009e0:	4d66      	ldr	r5, [pc, #408]	; (8000b7c <main+0x2f4>)
 80009e2:	ea03 0308 	and.w	r3, r3, r8
 80009e6:	4622      	mov	r2, r4
 80009e8:	4621      	mov	r1, r4
 80009ea:	9306      	str	r3, [sp, #24]
 80009ec:	2010      	movs	r0, #16
 80009ee:	9b06      	ldr	r3, [sp, #24]
 80009f0:	f002 fc02 	bl	80031f8 <HAL_NVIC_SetPriority>
 80009f4:	2010      	movs	r0, #16
 80009f6:	f002 fc31 	bl	800325c <HAL_NVIC_EnableIRQ>
 80009fa:	4622      	mov	r2, r4
 80009fc:	4621      	mov	r1, r4
 80009fe:	2011      	movs	r0, #17
 8000a00:	f002 fbfa 	bl	80031f8 <HAL_NVIC_SetPriority>
 8000a04:	2011      	movs	r0, #17
 8000a06:	f002 fc29 	bl	800325c <HAL_NVIC_EnableIRQ>
 8000a0a:	4622      	mov	r2, r4
 8000a0c:	4621      	mov	r1, r4
 8000a0e:	2038      	movs	r0, #56	; 0x38
 8000a10:	f002 fbf2 	bl	80031f8 <HAL_NVIC_SetPriority>
 8000a14:	2038      	movs	r0, #56	; 0x38
 8000a16:	f002 fc21 	bl	800325c <HAL_NVIC_EnableIRQ>
 8000a1a:	2218      	movs	r2, #24
 8000a1c:	4621      	mov	r1, r4
 8000a1e:	a819      	add	r0, sp, #100	; 0x64
 8000a20:	f006 fa5c 	bl	8006edc <memset>
 8000a24:	4b56      	ldr	r3, [pc, #344]	; (8000b80 <main+0x2f8>)
 8000a26:	f885 4020 	strb.w	r4, [r5, #32]
 8000a2a:	e9c5 3400 	strd	r3, r4, [r5]
 8000a2e:	f44f 7380 	mov.w	r3, #256	; 0x100
 8000a32:	f04f 0a05 	mov.w	sl, #5
 8000a36:	f04f 0904 	mov.w	r9, #4
 8000a3a:	832b      	strh	r3, [r5, #24]
 8000a3c:	4628      	mov	r0, r5
 8000a3e:	e9c5 640a 	strd	r6, r4, [r5, #40]	; 0x28
 8000a42:	e9c5 4402 	strd	r4, r4, [r5, #8]
 8000a46:	f8c5 a01c 	str.w	sl, [r5, #28]
 8000a4a:	f885 4030 	strb.w	r4, [r5, #48]	; 0x30
 8000a4e:	612e      	str	r6, [r5, #16]
 8000a50:	f8c5 9014 	str.w	r9, [r5, #20]
 8000a54:	636c      	str	r4, [r5, #52]	; 0x34
 8000a56:	f001 fc09 	bl	800226c <HAL_ADC_Init>
 8000a5a:	b108      	cbz	r0, 8000a60 <main+0x1d8>
 8000a5c:	b672      	cpsid	i
 8000a5e:	e7fe      	b.n	8000a5e <main+0x1d6>
 8000a60:	e9cd 801b 	strd	r8, r0, [sp, #108]	; 0x6c
 8000a64:	e9cd 001d 	strd	r0, r0, [sp, #116]	; 0x74
 8000a68:	a919      	add	r1, sp, #100	; 0x64
 8000a6a:	4628      	mov	r0, r5
 8000a6c:	e9cd 6619 	strd	r6, r6, [sp, #100]	; 0x64
 8000a70:	f002 f9a0 	bl	8002db4 <HAL_ADC_ConfigChannel>
 8000a74:	b108      	cbz	r0, 8000a7a <main+0x1f2>
 8000a76:	b672      	cpsid	i
 8000a78:	e7fe      	b.n	8000a78 <main+0x1f0>
 8000a7a:	a919      	add	r1, sp, #100	; 0x64
 8000a7c:	4628      	mov	r0, r5
 8000a7e:	e9cd 8819 	strd	r8, r8, [sp, #100]	; 0x64
 8000a82:	f002 f997 	bl	8002db4 <HAL_ADC_ConfigChannel>
 8000a86:	b108      	cbz	r0, 8000a8c <main+0x204>
 8000a88:	b672      	cpsid	i
 8000a8a:	e7fe      	b.n	8000a8a <main+0x202>
 8000a8c:	a919      	add	r1, sp, #100	; 0x64
 8000a8e:	4628      	mov	r0, r5
 8000a90:	e9cd 7719 	strd	r7, r7, [sp, #100]	; 0x64
 8000a94:	f002 f98e 	bl	8002db4 <HAL_ADC_ConfigChannel>
 8000a98:	b108      	cbz	r0, 8000a9e <main+0x216>
 8000a9a:	b672      	cpsid	i
 8000a9c:	e7fe      	b.n	8000a9c <main+0x214>
 8000a9e:	a919      	add	r1, sp, #100	; 0x64
 8000aa0:	4628      	mov	r0, r5
 8000aa2:	e9cd 9919 	strd	r9, r9, [sp, #100]	; 0x64
 8000aa6:	f002 f985 	bl	8002db4 <HAL_ADC_ConfigChannel>
 8000aaa:	b108      	cbz	r0, 8000ab0 <main+0x228>
 8000aac:	b672      	cpsid	i
 8000aae:	e7fe      	b.n	8000aae <main+0x226>
 8000ab0:	230c      	movs	r3, #12
 8000ab2:	a919      	add	r1, sp, #100	; 0x64
 8000ab4:	4628      	mov	r0, r5
 8000ab6:	e9cd 3a19 	strd	r3, sl, [sp, #100]	; 0x64
 8000aba:	f002 f97b 	bl	8002db4 <HAL_ADC_ConfigChannel>
 8000abe:	4604      	mov	r4, r0
 8000ac0:	b108      	cbz	r0, 8000ac6 <main+0x23e>
 8000ac2:	b672      	cpsid	i
 8000ac4:	e7fe      	b.n	8000ac4 <main+0x23c>
 8000ac6:	4601      	mov	r1, r0
 8000ac8:	2210      	movs	r2, #16
 8000aca:	a80e      	add	r0, sp, #56	; 0x38
 8000acc:	f006 fa06 	bl	8006edc <memset>
 8000ad0:	221c      	movs	r2, #28
 8000ad2:	4621      	mov	r1, r4
 8000ad4:	a812      	add	r0, sp, #72	; 0x48
 8000ad6:	e9cd 440b 	strd	r4, r4, [sp, #44]	; 0x2c
 8000ada:	940d      	str	r4, [sp, #52]	; 0x34
 8000adc:	f006 f9fe 	bl	8006edc <memset>
 8000ae0:	222c      	movs	r2, #44	; 0x2c
 8000ae2:	4621      	mov	r1, r4
 8000ae4:	a819      	add	r0, sp, #100	; 0x64
 8000ae6:	f006 f9f9 	bl	8006edc <memset>
 8000aea:	4d26      	ldr	r5, [pc, #152]	; (8000b84 <main+0x2fc>)
 8000aec:	4b26      	ldr	r3, [pc, #152]	; (8000b88 <main+0x300>)
 8000aee:	60ac      	str	r4, [r5, #8]
 8000af0:	e9c5 3400 	strd	r3, r4, [r5]
 8000af4:	f44f 63fa 	mov.w	r3, #2000	; 0x7d0
 8000af8:	e9c5 3403 	strd	r3, r4, [r5, #12]
 8000afc:	4628      	mov	r0, r5
 8000afe:	2380      	movs	r3, #128	; 0x80
 8000b00:	616c      	str	r4, [r5, #20]
 8000b02:	61ab      	str	r3, [r5, #24]
 8000b04:	f005 f89c 	bl	8005c40 <HAL_TIM_Base_Init>
 8000b08:	b108      	cbz	r0, 8000b0e <main+0x286>
 8000b0a:	b672      	cpsid	i
 8000b0c:	e7fe      	b.n	8000b0c <main+0x284>
 8000b0e:	f44f 5380 	mov.w	r3, #4096	; 0x1000
 8000b12:	a90e      	add	r1, sp, #56	; 0x38
 8000b14:	4628      	mov	r0, r5
 8000b16:	930e      	str	r3, [sp, #56]	; 0x38
 8000b18:	f005 fab8 	bl	800608c <HAL_TIM_ConfigClockSource>
 8000b1c:	b108      	cbz	r0, 8000b22 <main+0x29a>
 8000b1e:	b672      	cpsid	i
 8000b20:	e7fe      	b.n	8000b20 <main+0x298>
 8000b22:	4628      	mov	r0, r5
 8000b24:	f005 f8bc 	bl	8005ca0 <HAL_TIM_PWM_Init>
 8000b28:	b108      	cbz	r0, 8000b2e <main+0x2a6>
 8000b2a:	b672      	cpsid	i
 8000b2c:	e7fe      	b.n	8000b2c <main+0x2a4>
 8000b2e:	e9cd 000b 	strd	r0, r0, [sp, #44]	; 0x2c
 8000b32:	900d      	str	r0, [sp, #52]	; 0x34
 8000b34:	a90b      	add	r1, sp, #44	; 0x2c
 8000b36:	4628      	mov	r0, r5
 8000b38:	f005 fd80 	bl	800663c <HAL_TIMEx_MasterConfigSynchronization>
 8000b3c:	b108      	cbz	r0, 8000b42 <main+0x2ba>
 8000b3e:	b672      	cpsid	i
 8000b40:	e7fe      	b.n	8000b40 <main+0x2b8>
 8000b42:	2200      	movs	r2, #0
 8000b44:	f04f 0960 	mov.w	r9, #96	; 0x60
 8000b48:	f44f 737a 	mov.w	r3, #1000	; 0x3e8
 8000b4c:	2604      	movs	r6, #4
 8000b4e:	480d      	ldr	r0, [pc, #52]	; (8000b84 <main+0x2fc>)
 8000b50:	9218      	str	r2, [sp, #96]	; 0x60
 8000b52:	a912      	add	r1, sp, #72	; 0x48
 8000b54:	e9cd 9312 	strd	r9, r3, [sp, #72]	; 0x48
 8000b58:	e9cd 2214 	strd	r2, r2, [sp, #80]	; 0x50
 8000b5c:	e9cd 6216 	strd	r6, r2, [sp, #88]	; 0x58
 8000b60:	f005 f944 	bl	8005dec <HAL_TIM_PWM_ConfigChannel>
 8000b64:	b190      	cbz	r0, 8000b8c <main+0x304>
 8000b66:	b672      	cpsid	i
 8000b68:	e7fe      	b.n	8000b68 <main+0x2e0>
 8000b6a:	bf00      	nop
 8000b6c:	40021000 	.word	0x40021000
 8000b70:	48000800 	.word	0x48000800
 8000b74:	48001400 	.word	0x48001400
 8000b78:	48000400 	.word	0x48000400
 8000b7c:	20000104 	.word	0x20000104
 8000b80:	50000100 	.word	0x50000100
 8000b84:	200002f4 	.word	0x200002f4
 8000b88:	40012c00 	.word	0x40012c00
 8000b8c:	48aa      	ldr	r0, [pc, #680]	; (8000e38 <main+0x5b0>)
 8000b8e:	4632      	mov	r2, r6
 8000b90:	a912      	add	r1, sp, #72	; 0x48
 8000b92:	f005 f92b 	bl	8005dec <HAL_TIM_PWM_ConfigChannel>
 8000b96:	b108      	cbz	r0, 8000b9c <main+0x314>
 8000b98:	b672      	cpsid	i
 8000b9a:	e7fe      	b.n	8000b9a <main+0x312>
 8000b9c:	2332      	movs	r3, #50	; 0x32
 8000b9e:	e9cd 301c 	strd	r3, r0, [sp, #112]	; 0x70
 8000ba2:	f44f 5300 	mov.w	r3, #8192	; 0x2000
 8000ba6:	e9cd 301e 	strd	r3, r0, [sp, #120]	; 0x78
 8000baa:	f04f 7300 	mov.w	r3, #33554432	; 0x2000000
 8000bae:	e9cd 0019 	strd	r0, r0, [sp, #100]	; 0x64
 8000bb2:	e9cd 3021 	strd	r3, r0, [sp, #132]	; 0x84
 8000bb6:	901b      	str	r0, [sp, #108]	; 0x6c
 8000bb8:	9020      	str	r0, [sp, #128]	; 0x80
 8000bba:	9023      	str	r0, [sp, #140]	; 0x8c
 8000bbc:	a919      	add	r1, sp, #100	; 0x64
 8000bbe:	489e      	ldr	r0, [pc, #632]	; (8000e38 <main+0x5b0>)
 8000bc0:	f005 fd7e 	bl	80066c0 <HAL_TIMEx_ConfigBreakDeadTime>
 8000bc4:	4605      	mov	r5, r0
 8000bc6:	b108      	cbz	r0, 8000bcc <main+0x344>
 8000bc8:	b672      	cpsid	i
 8000bca:	e7fe      	b.n	8000bca <main+0x342>
 8000bcc:	489a      	ldr	r0, [pc, #616]	; (8000e38 <main+0x5b0>)
 8000bce:	4c9b      	ldr	r4, [pc, #620]	; (8000e3c <main+0x5b4>)
 8000bd0:	f001 f810 	bl	8001bf4 <HAL_TIM_MspPostInit>
 8000bd4:	2210      	movs	r2, #16
 8000bd6:	4629      	mov	r1, r5
 8000bd8:	a812      	add	r0, sp, #72	; 0x48
 8000bda:	f006 f97f 	bl	8006edc <memset>
 8000bde:	2210      	movs	r2, #16
 8000be0:	4629      	mov	r1, r5
 8000be2:	a819      	add	r0, sp, #100	; 0x64
 8000be4:	e9cd 550e 	strd	r5, r5, [sp, #56]	; 0x38
 8000be8:	9510      	str	r5, [sp, #64]	; 0x40
 8000bea:	2701      	movs	r7, #1
 8000bec:	f006 f976 	bl	8006edc <memset>
 8000bf0:	f04f 4380 	mov.w	r3, #1073741824	; 0x40000000
 8000bf4:	e9c4 3700 	strd	r3, r7, [r4]
 8000bf8:	4b91      	ldr	r3, [pc, #580]	; (8000e40 <main+0x5b8>)
 8000bfa:	60a5      	str	r5, [r4, #8]
 8000bfc:	4620      	mov	r0, r4
 8000bfe:	e9c4 3503 	strd	r3, r5, [r4, #12]
 8000c02:	61a5      	str	r5, [r4, #24]
 8000c04:	f005 f81c 	bl	8005c40 <HAL_TIM_Base_Init>
 8000c08:	b108      	cbz	r0, 8000c0e <main+0x386>
 8000c0a:	b672      	cpsid	i
 8000c0c:	e7fe      	b.n	8000c0c <main+0x384>
 8000c0e:	f44f 5380 	mov.w	r3, #4096	; 0x1000
 8000c12:	a912      	add	r1, sp, #72	; 0x48
 8000c14:	4620      	mov	r0, r4
 8000c16:	9312      	str	r3, [sp, #72]	; 0x48
 8000c18:	f005 fa38 	bl	800608c <HAL_TIM_ConfigClockSource>
 8000c1c:	b108      	cbz	r0, 8000c22 <main+0x39a>
 8000c1e:	b672      	cpsid	i
 8000c20:	e7fe      	b.n	8000c20 <main+0x398>
 8000c22:	4620      	mov	r0, r4
 8000c24:	f005 f86c 	bl	8005d00 <HAL_TIM_IC_Init>
 8000c28:	b108      	cbz	r0, 8000c2e <main+0x3a6>
 8000c2a:	b672      	cpsid	i
 8000c2c:	e7fe      	b.n	8000c2c <main+0x3a4>
 8000c2e:	900e      	str	r0, [sp, #56]	; 0x38
 8000c30:	9010      	str	r0, [sp, #64]	; 0x40
 8000c32:	a90e      	add	r1, sp, #56	; 0x38
 8000c34:	4620      	mov	r0, r4
 8000c36:	f005 fd01 	bl	800663c <HAL_TIMEx_MasterConfigSynchronization>
 8000c3a:	4602      	mov	r2, r0
 8000c3c:	b108      	cbz	r0, 8000c42 <main+0x3ba>
 8000c3e:	b672      	cpsid	i
 8000c40:	e7fe      	b.n	8000c40 <main+0x3b8>
 8000c42:	e9cd 0719 	strd	r0, r7, [sp, #100]	; 0x64
 8000c46:	901b      	str	r0, [sp, #108]	; 0x6c
 8000c48:	250c      	movs	r5, #12
 8000c4a:	a919      	add	r1, sp, #100	; 0x64
 8000c4c:	4620      	mov	r0, r4
 8000c4e:	951c      	str	r5, [sp, #112]	; 0x70
 8000c50:	f005 f97c 	bl	8005f4c <HAL_TIM_IC_ConfigChannel>
 8000c54:	b108      	cbz	r0, 8000c5a <main+0x3d2>
 8000c56:	b672      	cpsid	i
 8000c58:	e7fe      	b.n	8000c58 <main+0x3d0>
 8000c5a:	2302      	movs	r3, #2
 8000c5c:	901c      	str	r0, [sp, #112]	; 0x70
 8000c5e:	4632      	mov	r2, r6
 8000c60:	a919      	add	r1, sp, #100	; 0x64
 8000c62:	4620      	mov	r0, r4
 8000c64:	e9cd 3319 	strd	r3, r3, [sp, #100]	; 0x64
 8000c68:	f005 f970 	bl	8005f4c <HAL_TIM_IC_ConfigChannel>
 8000c6c:	b108      	cbz	r0, 8000c72 <main+0x3ea>
 8000c6e:	b672      	cpsid	i
 8000c70:	e7fe      	b.n	8000c70 <main+0x3e8>
 8000c72:	4b74      	ldr	r3, [pc, #464]	; (8000e44 <main+0x5bc>)
 8000c74:	f8df 81f0 	ldr.w	r8, [pc, #496]	; 8000e68 <main+0x5e0>
 8000c78:	e9c3 0002 	strd	r0, r0, [r3, #8]
 8000c7c:	e9c3 0504 	strd	r0, r5, [r3, #16]
 8000c80:	e9c3 0006 	strd	r0, r0, [r3, #24]
 8000c84:	e9c3 0008 	strd	r0, r0, [r3, #32]
 8000c88:	f44f 5216 	mov.w	r2, #9600	; 0x2580
 8000c8c:	4618      	mov	r0, r3
 8000c8e:	e9c3 8200 	strd	r8, r2, [r3]
 8000c92:	f006 f8d3 	bl	8006e3c <HAL_UART_Init>
 8000c96:	b108      	cbz	r0, 8000c9c <main+0x414>
 8000c98:	b672      	cpsid	i
 8000c9a:	e7fe      	b.n	8000c9a <main+0x412>
 8000c9c:	486a      	ldr	r0, [pc, #424]	; (8000e48 <main+0x5c0>)
 8000c9e:	f8df e1cc 	ldr.w	lr, [pc, #460]	; 8000e6c <main+0x5e4>
 8000ca2:	f44f 4316 	mov.w	r3, #38400	; 0x9600
 8000ca6:	e9c0 e300 	strd	lr, r3, [r0]
 8000caa:	220c      	movs	r2, #12
 8000cac:	2300      	movs	r3, #0
 8000cae:	e9c0 3302 	strd	r3, r3, [r0, #8]
 8000cb2:	e9c0 2305 	strd	r2, r3, [r0, #20]
 8000cb6:	e9c0 3307 	strd	r3, r3, [r0, #28]
 8000cba:	6103      	str	r3, [r0, #16]
 8000cbc:	6243      	str	r3, [r0, #36]	; 0x24
 8000cbe:	f006 f8bd 	bl	8006e3c <HAL_UART_Init>
 8000cc2:	4605      	mov	r5, r0
 8000cc4:	b108      	cbz	r0, 8000cca <main+0x442>
 8000cc6:	b672      	cpsid	i
 8000cc8:	e7fe      	b.n	8000cc8 <main+0x440>
 8000cca:	4601      	mov	r1, r0
 8000ccc:	2210      	movs	r2, #16
 8000cce:	a80e      	add	r0, sp, #56	; 0x38
 8000cd0:	f006 f904 	bl	8006edc <memset>
 8000cd4:	221c      	movs	r2, #28
 8000cd6:	4629      	mov	r1, r5
 8000cd8:	a812      	add	r0, sp, #72	; 0x48
 8000cda:	e9cd 550b 	strd	r5, r5, [sp, #44]	; 0x2c
 8000cde:	950d      	str	r5, [sp, #52]	; 0x34
 8000ce0:	f006 f8fc 	bl	8006edc <memset>
 8000ce4:	222c      	movs	r2, #44	; 0x2c
 8000ce6:	4629      	mov	r1, r5
 8000ce8:	a819      	add	r0, sp, #100	; 0x64
 8000cea:	f006 f8f7 	bl	8006edc <memset>
 8000cee:	4c57      	ldr	r4, [pc, #348]	; (8000e4c <main+0x5c4>)
 8000cf0:	4b57      	ldr	r3, [pc, #348]	; (8000e50 <main+0x5c8>)
 8000cf2:	60a5      	str	r5, [r4, #8]
 8000cf4:	e9c4 3500 	strd	r3, r5, [r4]
 8000cf8:	f44f 63fa 	mov.w	r3, #2000	; 0x7d0
 8000cfc:	e9c4 3503 	strd	r3, r5, [r4, #12]
 8000d00:	4620      	mov	r0, r4
 8000d02:	2380      	movs	r3, #128	; 0x80
 8000d04:	6165      	str	r5, [r4, #20]
 8000d06:	61a3      	str	r3, [r4, #24]
 8000d08:	f004 ff9a 	bl	8005c40 <HAL_TIM_Base_Init>
 8000d0c:	b108      	cbz	r0, 8000d12 <main+0x48a>
 8000d0e:	b672      	cpsid	i
 8000d10:	e7fe      	b.n	8000d10 <main+0x488>
 8000d12:	f44f 5380 	mov.w	r3, #4096	; 0x1000
 8000d16:	a90e      	add	r1, sp, #56	; 0x38
 8000d18:	4620      	mov	r0, r4
 8000d1a:	930e      	str	r3, [sp, #56]	; 0x38
 8000d1c:	f005 f9b6 	bl	800608c <HAL_TIM_ConfigClockSource>
 8000d20:	b108      	cbz	r0, 8000d26 <main+0x49e>
 8000d22:	b672      	cpsid	i
 8000d24:	e7fe      	b.n	8000d24 <main+0x49c>
 8000d26:	4620      	mov	r0, r4
 8000d28:	f004 ffba 	bl	8005ca0 <HAL_TIM_PWM_Init>
 8000d2c:	b108      	cbz	r0, 8000d32 <main+0x4aa>
 8000d2e:	b672      	cpsid	i
 8000d30:	e7fe      	b.n	8000d30 <main+0x4a8>
 8000d32:	e9cd 000b 	strd	r0, r0, [sp, #44]	; 0x2c
 8000d36:	900d      	str	r0, [sp, #52]	; 0x34
 8000d38:	a90b      	add	r1, sp, #44	; 0x2c
 8000d3a:	4620      	mov	r0, r4
 8000d3c:	f005 fc7e 	bl	800663c <HAL_TIMEx_MasterConfigSynchronization>
 8000d40:	4602      	mov	r2, r0
 8000d42:	b108      	cbz	r0, 8000d48 <main+0x4c0>
 8000d44:	b672      	cpsid	i
 8000d46:	e7fe      	b.n	8000d46 <main+0x4be>
 8000d48:	e9cd 0014 	strd	r0, r0, [sp, #80]	; 0x50
 8000d4c:	e9cd 0016 	strd	r0, r0, [sp, #88]	; 0x58
 8000d50:	f04f 0c60 	mov.w	ip, #96	; 0x60
 8000d54:	f44f 737a 	mov.w	r3, #1000	; 0x3e8
 8000d58:	9018      	str	r0, [sp, #96]	; 0x60
 8000d5a:	a912      	add	r1, sp, #72	; 0x48
 8000d5c:	4620      	mov	r0, r4
 8000d5e:	e9cd c312 	strd	ip, r3, [sp, #72]	; 0x48
 8000d62:	f005 f843 	bl	8005dec <HAL_TIM_PWM_ConfigChannel>
 8000d66:	b108      	cbz	r0, 8000d6c <main+0x4e4>
 8000d68:	b672      	cpsid	i
 8000d6a:	e7fe      	b.n	8000d6a <main+0x4e2>
 8000d6c:	2332      	movs	r3, #50	; 0x32
 8000d6e:	e9cd 301c 	strd	r3, r0, [sp, #112]	; 0x70
 8000d72:	f44f 5300 	mov.w	r3, #8192	; 0x2000
 8000d76:	e9cd 301e 	strd	r3, r0, [sp, #120]	; 0x78
 8000d7a:	f04f 7300 	mov.w	r3, #33554432	; 0x2000000
 8000d7e:	e9cd 0019 	strd	r0, r0, [sp, #100]	; 0x64
 8000d82:	e9cd 3021 	strd	r3, r0, [sp, #132]	; 0x84
 8000d86:	901b      	str	r0, [sp, #108]	; 0x6c
 8000d88:	9020      	str	r0, [sp, #128]	; 0x80
 8000d8a:	9023      	str	r0, [sp, #140]	; 0x8c
 8000d8c:	a919      	add	r1, sp, #100	; 0x64
 8000d8e:	4620      	mov	r0, r4
 8000d90:	f005 fc96 	bl	80066c0 <HAL_TIMEx_ConfigBreakDeadTime>
 8000d94:	4605      	mov	r5, r0
 8000d96:	b108      	cbz	r0, 8000d9c <main+0x514>
 8000d98:	b672      	cpsid	i
 8000d9a:	e7fe      	b.n	8000d9a <main+0x512>
 8000d9c:	4620      	mov	r0, r4
 8000d9e:	f000 ff29 	bl	8001bf4 <HAL_TIM_MspPostInit>
 8000da2:	4c2c      	ldr	r4, [pc, #176]	; (8000e54 <main+0x5cc>)
 8000da4:	4b2c      	ldr	r3, [pc, #176]	; (8000e58 <main+0x5d0>)
 8000da6:	4e2d      	ldr	r6, [pc, #180]	; (8000e5c <main+0x5d4>)
 8000da8:	6225      	str	r5, [r4, #32]
 8000daa:	e9c4 6300 	strd	r6, r3, [r4]
 8000dae:	2724      	movs	r7, #36	; 0x24
 8000db0:	2301      	movs	r3, #1
 8000db2:	4620      	mov	r0, r4
 8000db4:	e9c4 7302 	strd	r7, r3, [r4, #8]
 8000db8:	e9c4 5504 	strd	r5, r5, [r4, #16]
 8000dbc:	e9c4 5506 	strd	r5, r5, [r4, #24]
 8000dc0:	f002 fec6 	bl	8003b50 <HAL_I2C_Init>
 8000dc4:	4601      	mov	r1, r0
 8000dc6:	b108      	cbz	r0, 8000dcc <main+0x544>
 8000dc8:	b672      	cpsid	i
 8000dca:	e7fe      	b.n	8000dca <main+0x542>
 8000dcc:	4620      	mov	r0, r4
 8000dce:	f003 fea1 	bl	8004b14 <HAL_I2CEx_ConfigAnalogFilter>
 8000dd2:	4601      	mov	r1, r0
 8000dd4:	b108      	cbz	r0, 8000dda <main+0x552>
 8000dd6:	b672      	cpsid	i
 8000dd8:	e7fe      	b.n	8000dd8 <main+0x550>
 8000dda:	4620      	mov	r0, r4
 8000ddc:	f003 fec0 	bl	8004b60 <HAL_I2CEx_ConfigDigitalFilter>
 8000de0:	b108      	cbz	r0, 8000de6 <main+0x55e>
 8000de2:	b672      	cpsid	i
 8000de4:	e7fe      	b.n	8000de4 <main+0x55c>
 8000de6:	2214      	movs	r2, #20
 8000de8:	2100      	movs	r1, #0
 8000dea:	a819      	add	r0, sp, #100	; 0x64
 8000dec:	f006 f876 	bl	8006edc <memset>
 8000df0:	4c1b      	ldr	r4, [pc, #108]	; (8000e60 <main+0x5d8>)
 8000df2:	4a1c      	ldr	r2, [pc, #112]	; (8000e64 <main+0x5dc>)
 8000df4:	2300      	movs	r3, #0
 8000df6:	207f      	movs	r0, #127	; 0x7f
 8000df8:	e9c4 2300 	strd	r2, r3, [r4]
 8000dfc:	f240 1237 	movw	r2, #311	; 0x137
 8000e00:	e9c4 0202 	strd	r0, r2, [r4, #8]
 8000e04:	4620      	mov	r0, r4
 8000e06:	e9c4 3304 	strd	r3, r3, [r4, #16]
 8000e0a:	9312      	str	r3, [sp, #72]	; 0x48
 8000e0c:	61a3      	str	r3, [r4, #24]
 8000e0e:	f004 fb82 	bl	8005516 <HAL_RTC_Init>
 8000e12:	b108      	cbz	r0, 8000e18 <main+0x590>
 8000e14:	b672      	cpsid	i
 8000e16:	e7fe      	b.n	8000e16 <main+0x58e>
 8000e18:	e9cd 001c 	strd	r0, r0, [sp, #112]	; 0x70
 8000e1c:	2309      	movs	r3, #9
 8000e1e:	f88d 0066 	strb.w	r0, [sp, #102]	; 0x66
 8000e22:	2201      	movs	r2, #1
 8000e24:	a919      	add	r1, sp, #100	; 0x64
 8000e26:	4620      	mov	r0, r4
 8000e28:	f8ad 3064 	strh.w	r3, [sp, #100]	; 0x64
 8000e2c:	f004 fbc6 	bl	80055bc <HAL_RTC_SetTime>
 8000e30:	b1f0      	cbz	r0, 8000e70 <main+0x5e8>
 8000e32:	b672      	cpsid	i
 8000e34:	e7fe      	b.n	8000e34 <main+0x5ac>
 8000e36:	bf00      	nop
 8000e38:	200002f4 	.word	0x200002f4
 8000e3c:	2000038c 	.word	0x2000038c
 8000e40:	03d09000 	.word	0x03d09000
 8000e44:	20000470 	.word	0x20000470
 8000e48:	200004f8 	.word	0x200004f8
 8000e4c:	20000424 	.word	0x20000424
 8000e50:	40013400 	.word	0x40013400
 8000e54:	2000027c 	.word	0x2000027c
 8000e58:	2000090e 	.word	0x2000090e
 8000e5c:	40005400 	.word	0x40005400
 8000e60:	200002d4 	.word	0x200002d4
 8000e64:	40002800 	.word	0x40002800
 8000e68:	40013800 	.word	0x40013800
 8000e6c:	40004400 	.word	0x40004400
 8000e70:	4b87      	ldr	r3, [pc, #540]	; (8001090 <main+0x808>)
 8000e72:	9312      	str	r3, [sp, #72]	; 0x48
 8000e74:	4620      	mov	r0, r4
 8000e76:	2201      	movs	r2, #1
 8000e78:	a912      	add	r1, sp, #72	; 0x48
 8000e7a:	f004 fbf9 	bl	8005670 <HAL_RTC_SetDate>
 8000e7e:	4604      	mov	r4, r0
 8000e80:	b108      	cbz	r0, 8000e86 <main+0x5fe>
 8000e82:	b672      	cpsid	i
 8000e84:	e7fe      	b.n	8000e84 <main+0x5fc>
 8000e86:	4601      	mov	r1, r0
 8000e88:	2210      	movs	r2, #16
 8000e8a:	a80e      	add	r0, sp, #56	; 0x38
 8000e8c:	f006 f826 	bl	8006edc <memset>
 8000e90:	221c      	movs	r2, #28
 8000e92:	4621      	mov	r1, r4
 8000e94:	a812      	add	r0, sp, #72	; 0x48
 8000e96:	e9cd 440b 	strd	r4, r4, [sp, #44]	; 0x2c
 8000e9a:	940d      	str	r4, [sp, #52]	; 0x34
 8000e9c:	f006 f81e 	bl	8006edc <memset>
 8000ea0:	222c      	movs	r2, #44	; 0x2c
 8000ea2:	4621      	mov	r1, r4
 8000ea4:	a819      	add	r0, sp, #100	; 0x64
 8000ea6:	f006 f819 	bl	8006edc <memset>
 8000eaa:	4d7a      	ldr	r5, [pc, #488]	; (8001094 <main+0x80c>)
 8000eac:	4b7a      	ldr	r3, [pc, #488]	; (8001098 <main+0x810>)
 8000eae:	60ac      	str	r4, [r5, #8]
 8000eb0:	e9c5 3400 	strd	r3, r4, [r5]
 8000eb4:	f44f 63fa 	mov.w	r3, #2000	; 0x7d0
 8000eb8:	e9c5 3403 	strd	r3, r4, [r5, #12]
 8000ebc:	4628      	mov	r0, r5
 8000ebe:	2380      	movs	r3, #128	; 0x80
 8000ec0:	616c      	str	r4, [r5, #20]
 8000ec2:	61ab      	str	r3, [r5, #24]
 8000ec4:	f004 febc 	bl	8005c40 <HAL_TIM_Base_Init>
 8000ec8:	b108      	cbz	r0, 8000ece <main+0x646>
 8000eca:	b672      	cpsid	i
 8000ecc:	e7fe      	b.n	8000ecc <main+0x644>
 8000ece:	f44f 5380 	mov.w	r3, #4096	; 0x1000
 8000ed2:	a90e      	add	r1, sp, #56	; 0x38
 8000ed4:	4628      	mov	r0, r5
 8000ed6:	930e      	str	r3, [sp, #56]	; 0x38
 8000ed8:	f005 f8d8 	bl	800608c <HAL_TIM_ConfigClockSource>
 8000edc:	b108      	cbz	r0, 8000ee2 <main+0x65a>
 8000ede:	b672      	cpsid	i
 8000ee0:	e7fe      	b.n	8000ee0 <main+0x658>
 8000ee2:	4628      	mov	r0, r5
 8000ee4:	f004 fedc 	bl	8005ca0 <HAL_TIM_PWM_Init>
 8000ee8:	b108      	cbz	r0, 8000eee <main+0x666>
 8000eea:	b672      	cpsid	i
 8000eec:	e7fe      	b.n	8000eec <main+0x664>
 8000eee:	900b      	str	r0, [sp, #44]	; 0x2c
 8000ef0:	900d      	str	r0, [sp, #52]	; 0x34
 8000ef2:	a90b      	add	r1, sp, #44	; 0x2c
 8000ef4:	4628      	mov	r0, r5
 8000ef6:	f005 fba1 	bl	800663c <HAL_TIMEx_MasterConfigSynchronization>
 8000efa:	4602      	mov	r2, r0
 8000efc:	b108      	cbz	r0, 8000f02 <main+0x67a>
 8000efe:	b672      	cpsid	i
 8000f00:	e7fe      	b.n	8000f00 <main+0x678>
 8000f02:	2160      	movs	r1, #96	; 0x60
 8000f04:	f44f 737a 	mov.w	r3, #1000	; 0x3e8
 8000f08:	e9cd 1312 	strd	r1, r3, [sp, #72]	; 0x48
 8000f0c:	e9cd 0014 	strd	r0, r0, [sp, #80]	; 0x50
 8000f10:	e9cd 0016 	strd	r0, r0, [sp, #88]	; 0x58
 8000f14:	9018      	str	r0, [sp, #96]	; 0x60
 8000f16:	a912      	add	r1, sp, #72	; 0x48
 8000f18:	4628      	mov	r0, r5
 8000f1a:	f004 ff67 	bl	8005dec <HAL_TIM_PWM_ConfigChannel>
 8000f1e:	b108      	cbz	r0, 8000f24 <main+0x69c>
 8000f20:	b672      	cpsid	i
 8000f22:	e7fe      	b.n	8000f22 <main+0x69a>
 8000f24:	f44f 5300 	mov.w	r3, #8192	; 0x2000
 8000f28:	e9cd 0019 	strd	r0, r0, [sp, #100]	; 0x64
 8000f2c:	e9cd 001b 	strd	r0, r0, [sp, #108]	; 0x6c
 8000f30:	e9cd 301e 	strd	r3, r0, [sp, #120]	; 0x78
 8000f34:	901d      	str	r0, [sp, #116]	; 0x74
 8000f36:	9023      	str	r0, [sp, #140]	; 0x8c
 8000f38:	a919      	add	r1, sp, #100	; 0x64
 8000f3a:	4628      	mov	r0, r5
 8000f3c:	f005 fbc0 	bl	80066c0 <HAL_TIMEx_ConfigBreakDeadTime>
 8000f40:	4604      	mov	r4, r0
 8000f42:	b108      	cbz	r0, 8000f48 <main+0x6c0>
 8000f44:	b672      	cpsid	i
 8000f46:	e7fe      	b.n	8000f46 <main+0x6be>
 8000f48:	4628      	mov	r0, r5
 8000f4a:	f000 fe53 	bl	8001bf4 <HAL_TIM_MspPostInit>
 8000f4e:	2218      	movs	r2, #24
 8000f50:	4621      	mov	r1, r4
 8000f52:	a819      	add	r0, sp, #100	; 0x64
 8000f54:	e9cd 4412 	strd	r4, r4, [sp, #72]	; 0x48
 8000f58:	9414      	str	r4, [sp, #80]	; 0x50
 8000f5a:	f005 ffbf 	bl	8006edc <memset>
 8000f5e:	484f      	ldr	r0, [pc, #316]	; (800109c <main+0x814>)
 8000f60:	2301      	movs	r3, #1
 8000f62:	6283      	str	r3, [r0, #40]	; 0x28
 8000f64:	61c3      	str	r3, [r0, #28]
 8000f66:	f04f 43a0 	mov.w	r3, #1342177280	; 0x50000000
 8000f6a:	e9c0 3400 	strd	r3, r4, [r0]
 8000f6e:	8304      	strh	r4, [r0, #24]
 8000f70:	2304      	movs	r3, #4
 8000f72:	e9c0 4402 	strd	r4, r4, [r0, #8]
 8000f76:	f880 4020 	strb.w	r4, [r0, #32]
 8000f7a:	62c4      	str	r4, [r0, #44]	; 0x2c
 8000f7c:	f880 4030 	strb.w	r4, [r0, #48]	; 0x30
 8000f80:	6104      	str	r4, [r0, #16]
 8000f82:	6143      	str	r3, [r0, #20]
 8000f84:	6344      	str	r4, [r0, #52]	; 0x34
 8000f86:	f001 f971 	bl	800226c <HAL_ADC_Init>
 8000f8a:	b108      	cbz	r0, 8000f90 <main+0x708>
 8000f8c:	b672      	cpsid	i
 8000f8e:	e7fe      	b.n	8000f8e <main+0x706>
 8000f90:	2300      	movs	r3, #0
 8000f92:	4842      	ldr	r0, [pc, #264]	; (800109c <main+0x814>)
 8000f94:	9312      	str	r3, [sp, #72]	; 0x48
 8000f96:	a912      	add	r1, sp, #72	; 0x48
 8000f98:	f002 f898 	bl	80030cc <HAL_ADCEx_MultiModeConfigChannel>
 8000f9c:	b108      	cbz	r0, 8000fa2 <main+0x71a>
 8000f9e:	b672      	cpsid	i
 8000fa0:	e7fe      	b.n	8000fa0 <main+0x718>
 8000fa2:	e9cd 001d 	strd	r0, r0, [sp, #116]	; 0x74
 8000fa6:	901c      	str	r0, [sp, #112]	; 0x70
 8000fa8:	f04f 0904 	mov.w	r9, #4
 8000fac:	483b      	ldr	r0, [pc, #236]	; (800109c <main+0x814>)
 8000fae:	2601      	movs	r6, #1
 8000fb0:	f04f 0802 	mov.w	r8, #2
 8000fb4:	a919      	add	r1, sp, #100	; 0x64
 8000fb6:	e9cd 9619 	strd	r9, r6, [sp, #100]	; 0x64
 8000fba:	f8cd 806c 	str.w	r8, [sp, #108]	; 0x6c
 8000fbe:	f001 fef9 	bl	8002db4 <HAL_ADC_ConfigChannel>
 8000fc2:	4604      	mov	r4, r0
 8000fc4:	b108      	cbz	r0, 8000fca <main+0x742>
 8000fc6:	b672      	cpsid	i
 8000fc8:	e7fe      	b.n	8000fc8 <main+0x740>
 8000fca:	4d35      	ldr	r5, [pc, #212]	; (80010a0 <main+0x818>)
 8000fcc:	9014      	str	r0, [sp, #80]	; 0x50
 8000fce:	e9cd 0012 	strd	r0, r0, [sp, #72]	; 0x48
 8000fd2:	4601      	mov	r1, r0
 8000fd4:	2218      	movs	r2, #24
 8000fd6:	a819      	add	r0, sp, #100	; 0x64
 8000fd8:	f005 ff80 	bl	8006edc <memset>
 8000fdc:	4b31      	ldr	r3, [pc, #196]	; (80010a4 <main+0x81c>)
 8000fde:	832c      	strh	r4, [r5, #24]
 8000fe0:	4628      	mov	r0, r5
 8000fe2:	e9c5 640a 	strd	r6, r4, [r5, #40]	; 0x28
 8000fe6:	e9c5 3400 	strd	r3, r4, [r5]
 8000fea:	e9c5 4402 	strd	r4, r4, [r5, #8]
 8000fee:	e9c5 4904 	strd	r4, r9, [r5, #16]
 8000ff2:	f885 4020 	strb.w	r4, [r5, #32]
 8000ff6:	61ee      	str	r6, [r5, #28]
 8000ff8:	f885 4030 	strb.w	r4, [r5, #48]	; 0x30
 8000ffc:	636c      	str	r4, [r5, #52]	; 0x34
 8000ffe:	f001 f935 	bl	800226c <HAL_ADC_Init>
 8001002:	b108      	cbz	r0, 8001008 <main+0x780>
 8001004:	b672      	cpsid	i
 8001006:	e7fe      	b.n	8001006 <main+0x77e>
 8001008:	9012      	str	r0, [sp, #72]	; 0x48
 800100a:	a912      	add	r1, sp, #72	; 0x48
 800100c:	4628      	mov	r0, r5
 800100e:	f002 f85d 	bl	80030cc <HAL_ADCEx_MultiModeConfigChannel>
 8001012:	b108      	cbz	r0, 8001018 <main+0x790>
 8001014:	b672      	cpsid	i
 8001016:	e7fe      	b.n	8001016 <main+0x78e>
 8001018:	e9cd 801b 	strd	r8, r0, [sp, #108]	; 0x6c
 800101c:	e9cd 001d 	strd	r0, r0, [sp, #116]	; 0x74
 8001020:	a919      	add	r1, sp, #100	; 0x64
 8001022:	4628      	mov	r0, r5
 8001024:	e9cd 6619 	strd	r6, r6, [sp, #100]	; 0x64
 8001028:	f001 fec4 	bl	8002db4 <HAL_ADC_ConfigChannel>
 800102c:	4604      	mov	r4, r0
 800102e:	b108      	cbz	r0, 8001034 <main+0x7ac>
 8001030:	b672      	cpsid	i
 8001032:	e7fe      	b.n	8001032 <main+0x7aa>
 8001034:	4601      	mov	r1, r0
 8001036:	2210      	movs	r2, #16
 8001038:	a819      	add	r0, sp, #100	; 0x64
 800103a:	f005 ff4f 	bl	8006edc <memset>
 800103e:	4f1a      	ldr	r7, [pc, #104]	; (80010a8 <main+0x820>)
 8001040:	4b1a      	ldr	r3, [pc, #104]	; (80010ac <main+0x824>)
 8001042:	9414      	str	r4, [sp, #80]	; 0x50
 8001044:	e9c7 3400 	strd	r3, r4, [r7]
 8001048:	f64f 73ff 	movw	r3, #65535	; 0xffff
 800104c:	e9c7 3403 	strd	r3, r4, [r7, #12]
 8001050:	4638      	mov	r0, r7
 8001052:	2380      	movs	r3, #128	; 0x80
 8001054:	e9cd 4412 	strd	r4, r4, [sp, #72]	; 0x48
 8001058:	60bc      	str	r4, [r7, #8]
 800105a:	61bb      	str	r3, [r7, #24]
 800105c:	f004 fdf0 	bl	8005c40 <HAL_TIM_Base_Init>
 8001060:	b108      	cbz	r0, 8001066 <main+0x7de>
 8001062:	b672      	cpsid	i
 8001064:	e7fe      	b.n	8001064 <main+0x7dc>
 8001066:	f44f 5b80 	mov.w	fp, #4096	; 0x1000
 800106a:	a919      	add	r1, sp, #100	; 0x64
 800106c:	4638      	mov	r0, r7
 800106e:	f8cd b064 	str.w	fp, [sp, #100]	; 0x64
 8001072:	f005 f80b 	bl	800608c <HAL_TIM_ConfigClockSource>
 8001076:	b108      	cbz	r0, 800107c <main+0x7f4>
 8001078:	b672      	cpsid	i
 800107a:	e7fe      	b.n	800107a <main+0x7f2>
 800107c:	9012      	str	r0, [sp, #72]	; 0x48
 800107e:	9014      	str	r0, [sp, #80]	; 0x50
 8001080:	a912      	add	r1, sp, #72	; 0x48
 8001082:	4638      	mov	r0, r7
 8001084:	f005 fada 	bl	800663c <HAL_TIMEx_MasterConfigSynchronization>
 8001088:	4607      	mov	r7, r0
 800108a:	b188      	cbz	r0, 80010b0 <main+0x828>
 800108c:	b672      	cpsid	i
 800108e:	e7fe      	b.n	800108e <main+0x806>
 8001090:	00010601 	.word	0x00010601
 8001094:	20000340 	.word	0x20000340
 8001098:	40014000 	.word	0x40014000
 800109c:	200000b4 	.word	0x200000b4
 80010a0:	20000154 	.word	0x20000154
 80010a4:	50000400 	.word	0x50000400
 80010a8:	200003d8 	.word	0x200003d8
 80010ac:	40000400 	.word	0x40000400
 80010b0:	48c3      	ldr	r0, [pc, #780]	; (80013c0 <main+0xb38>)
 80010b2:	4cc4      	ldr	r4, [pc, #784]	; (80013c4 <main+0xb3c>)
 80010b4:	f8df a38c 	ldr.w	sl, [pc, #908]	; 8001444 <main+0xbbc>
 80010b8:	4632      	mov	r2, r6
 80010ba:	4631      	mov	r1, r6
 80010bc:	f002 fb4e 	bl	800375c <HAL_GPIO_WritePin>
 80010c0:	4632      	mov	r2, r6
 80010c2:	f44f 6180 	mov.w	r1, #1024	; 0x400
 80010c6:	f04f 4090 	mov.w	r0, #1207959552	; 0x48000000
 80010ca:	f002 fb47 	bl	800375c <HAL_GPIO_WritePin>
 80010ce:	4bbe      	ldr	r3, [pc, #760]	; (80013c8 <main+0xb40>)
 80010d0:	8822      	ldrh	r2, [r4, #0]
 80010d2:	635a      	str	r2, [r3, #52]	; 0x34
 80010d4:	8862      	ldrh	r2, [r4, #2]
 80010d6:	639a      	str	r2, [r3, #56]	; 0x38
 80010d8:	88a2      	ldrh	r2, [r4, #4]
 80010da:	f8c3 2834 	str.w	r2, [r3, #2100]	; 0x834
 80010de:	f503 6300 	add.w	r3, r3, #2048	; 0x800
 80010e2:	88e2      	ldrh	r2, [r4, #6]
 80010e4:	f8c3 2c34 	str.w	r2, [r3, #3124]	; 0xc34
 80010e8:	4639      	mov	r1, r7
 80010ea:	48b8      	ldr	r0, [pc, #736]	; (80013cc <main+0xb44>)
 80010ec:	f005 f902 	bl	80062f4 <HAL_TIM_PWM_Start>
 80010f0:	4649      	mov	r1, r9
 80010f2:	48b6      	ldr	r0, [pc, #728]	; (80013cc <main+0xb44>)
 80010f4:	f005 f8fe 	bl	80062f4 <HAL_TIM_PWM_Start>
 80010f8:	4639      	mov	r1, r7
 80010fa:	48b5      	ldr	r0, [pc, #724]	; (80013d0 <main+0xb48>)
 80010fc:	f005 f8fa 	bl	80062f4 <HAL_TIM_PWM_Start>
 8001100:	4639      	mov	r1, r7
 8001102:	48b4      	ldr	r0, [pc, #720]	; (80013d4 <main+0xb4c>)
 8001104:	f005 f8f6 	bl	80062f4 <HAL_TIM_PWM_Start>
 8001108:	4639      	mov	r1, r7
 800110a:	48b3      	ldr	r0, [pc, #716]	; (80013d8 <main+0xb50>)
 800110c:	f005 f94e 	bl	80063ac <HAL_TIM_IC_Start_IT>
 8001110:	4649      	mov	r1, r9
 8001112:	48b1      	ldr	r0, [pc, #708]	; (80013d8 <main+0xb50>)
 8001114:	f005 f94a 	bl	80063ac <HAL_TIM_IC_Start_IT>
 8001118:	4650      	mov	r0, sl
 800111a:	4632      	mov	r2, r6
 800111c:	f44f 6100 	mov.w	r1, #2048	; 0x800
 8001120:	f002 fb1c 	bl	800375c <HAL_GPIO_WritePin>
 8001124:	4650      	mov	r0, sl
 8001126:	4632      	mov	r2, r6
 8001128:	f44f 6180 	mov.w	r1, #1024	; 0x400
 800112c:	f002 fb16 	bl	800375c <HAL_GPIO_WritePin>
 8001130:	4650      	mov	r0, sl
 8001132:	4632      	mov	r2, r6
 8001134:	4659      	mov	r1, fp
 8001136:	f002 fb11 	bl	800375c <HAL_GPIO_WritePin>
 800113a:	4632      	mov	r2, r6
 800113c:	4650      	mov	r0, sl
 800113e:	f44f 5100 	mov.w	r1, #8192	; 0x2000
 8001142:	f002 fb0b 	bl	800375c <HAL_GPIO_WritePin>
 8001146:	2105      	movs	r1, #5
 8001148:	48a4      	ldr	r0, [pc, #656]	; (80013dc <main+0xb54>)
 800114a:	f001 fc06 	bl	800295a <HAL_ADCEx_Calibration_Start>
 800114e:	4649      	mov	r1, r9
 8001150:	48a3      	ldr	r0, [pc, #652]	; (80013e0 <main+0xb58>)
 8001152:	f001 fc02 	bl	800295a <HAL_ADCEx_Calibration_Start>
 8001156:	4641      	mov	r1, r8
 8001158:	4628      	mov	r0, r5
 800115a:	f001 fbfe 	bl	800295a <HAL_ADCEx_Calibration_Start>
 800115e:	4ba1      	ldr	r3, [pc, #644]	; (80013e4 <main+0xb5c>)
 8001160:	f44f 707a 	mov.w	r0, #1000	; 0x3e8
 8001164:	701e      	strb	r6, [r3, #0]
 8001166:	f000 ff73 	bl	8002050 <HAL_Delay>
 800116a:	f8da 3000 	ldr.w	r3, [sl]
 800116e:	f443 2320 	orr.w	r3, r3, #655360	; 0xa0000
 8001172:	f8ca 3000 	str.w	r3, [sl]
 8001176:	f8da 3004 	ldr.w	r3, [sl, #4]
 800117a:	f443 7340 	orr.w	r3, r3, #768	; 0x300
 800117e:	f8ca 3004 	str.w	r3, [sl, #4]
 8001182:	f8da 300c 	ldr.w	r3, [sl, #12]
 8001186:	f443 2320 	orr.w	r3, r3, #655360	; 0xa0000
 800118a:	f8ca 300c 	str.w	r3, [sl, #12]
 800118e:	4b96      	ldr	r3, [pc, #600]	; (80013e8 <main+0xb60>)
 8001190:	695a      	ldr	r2, [r3, #20]
 8001192:	f442 2280 	orr.w	r2, r2, #262144	; 0x40000
 8001196:	615a      	str	r2, [r3, #20]
 8001198:	69da      	ldr	r2, [r3, #28]
 800119a:	f442 1200 	orr.w	r2, r2, #2097152	; 0x200000
 800119e:	61da      	str	r2, [r3, #28]
 80011a0:	f8da 3024 	ldr.w	r3, [sl, #36]	; 0x24
 80011a4:	f043 0344 	orr.w	r3, r3, #68	; 0x44
 80011a8:	f8ca 3024 	str.w	r3, [sl, #36]	; 0x24
 80011ac:	4b8f      	ldr	r3, [pc, #572]	; (80013ec <main+0xb64>)
 80011ae:	f8df a298 	ldr.w	sl, [pc, #664]	; 8001448 <main+0xbc0>
 80011b2:	681a      	ldr	r2, [r3, #0]
 80011b4:	f442 4200 	orr.w	r2, r2, #32768	; 0x8000
 80011b8:	601a      	str	r2, [r3, #0]
 80011ba:	681a      	ldr	r2, [r3, #0]
 80011bc:	f422 4200 	bic.w	r2, r2, #32768	; 0x8000
 80011c0:	601a      	str	r2, [r3, #0]
 80011c2:	f7ff fa70 	bl	80006a6 <lcd_init>
 80011c6:	f7ff fab5 	bl	8000734 <lcd_clear>
 80011ca:	463a      	mov	r2, r7
 80011cc:	487c      	ldr	r0, [pc, #496]	; (80013c0 <main+0xb38>)
 80011ce:	4631      	mov	r1, r6
 80011d0:	f002 fac4 	bl	800375c <HAL_GPIO_WritePin>
 80011d4:	4639      	mov	r1, r7
 80011d6:	2030      	movs	r0, #48	; 0x30
 80011d8:	f7ff f9e2 	bl	80005a0 <I2C_send>
 80011dc:	4640      	mov	r0, r8
 80011de:	4639      	mov	r1, r7
 80011e0:	f7ff f9de 	bl	80005a0 <I2C_send>
 80011e4:	4639      	mov	r1, r7
 80011e6:	200c      	movs	r0, #12
 80011e8:	f7ff f9da 	bl	80005a0 <I2C_send>
 80011ec:	4639      	mov	r1, r7
 80011ee:	4630      	mov	r0, r6
 80011f0:	f7ff f9d6 	bl	80005a0 <I2C_send>
 80011f4:	f8df 81e8 	ldr.w	r8, [pc, #488]	; 80013e0 <main+0xb58>
 80011f8:	4b7a      	ldr	r3, [pc, #488]	; (80013e4 <main+0xb5c>)
 80011fa:	781b      	ldrb	r3, [r3, #0]
 80011fc:	2b01      	cmp	r3, #1
 80011fe:	fa5f fb83 	uxtb.w	fp, r3
 8001202:	d1f9      	bne.n	80011f8 <main+0x970>
 8001204:	4d7a      	ldr	r5, [pc, #488]	; (80013f0 <main+0xb68>)
 8001206:	4875      	ldr	r0, [pc, #468]	; (80013dc <main+0xb54>)
 8001208:	4f7a      	ldr	r7, [pc, #488]	; (80013f4 <main+0xb6c>)
 800120a:	f001 fb65 	bl	80028d8 <HAL_ADC_Stop_DMA>
 800120e:	f8ba 3008 	ldrh.w	r3, [sl, #8]
 8001212:	80ab      	strh	r3, [r5, #4]
 8001214:	4640      	mov	r0, r8
 8001216:	f001 f94d 	bl	80024b4 <HAL_ADC_Start>
 800121a:	2164      	movs	r1, #100	; 0x64
 800121c:	4640      	mov	r0, r8
 800121e:	f001 fa11 	bl	8002644 <HAL_ADC_PollForConversion>
 8001222:	2300      	movs	r3, #0
 8001224:	80eb      	strh	r3, [r5, #6]
 8001226:	4640      	mov	r0, r8
 8001228:	f001 fb94 	bl	8002954 <HAL_ADC_GetValue>
 800122c:	80e8      	strh	r0, [r5, #6]
 800122e:	4640      	mov	r0, r8
 8001230:	f001 f9e8 	bl	8002604 <HAL_ADC_Stop>
 8001234:	f7ff f8fc 	bl	8000430 <ADC_read_1>
 8001238:	f7ff f916 	bl	8000468 <ADC_read_12>
 800123c:	886a      	ldrh	r2, [r5, #2]
 800123e:	8828      	ldrh	r0, [r5, #0]
 8001240:	88ab      	ldrh	r3, [r5, #4]
 8001242:	f8b5 9006 	ldrh.w	r9, [r5, #6]
 8001246:	9302      	str	r3, [sp, #8]
 8001248:	1881      	adds	r1, r0, r2
 800124a:	4419      	add	r1, r3
 800124c:	4449      	add	r1, r9
 800124e:	4b6a      	ldr	r3, [pc, #424]	; (80013f8 <main+0xb70>)
 8001250:	9203      	str	r2, [sp, #12]
 8001252:	108e      	asrs	r6, r1, #2
 8001254:	801e      	strh	r6, [r3, #0]
 8001256:	4e69      	ldr	r6, [pc, #420]	; (80013fc <main+0xb74>)
 8001258:	8031      	strh	r1, [r6, #0]
 800125a:	4e69      	ldr	r6, [pc, #420]	; (8001400 <main+0xb78>)
 800125c:	7831      	ldrb	r1, [r6, #0]
 800125e:	3101      	adds	r1, #1
 8001260:	7031      	strb	r1, [r6, #0]
 8001262:	f7ff fa71 	bl	8000748 <filter>
 8001266:	9a03      	ldr	r2, [sp, #12]
 8001268:	7038      	strb	r0, [r7, #0]
 800126a:	4610      	mov	r0, r2
 800126c:	f7ff fa6c 	bl	8000748 <filter>
 8001270:	9b02      	ldr	r3, [sp, #8]
 8001272:	7078      	strb	r0, [r7, #1]
 8001274:	4618      	mov	r0, r3
 8001276:	f7ff fa67 	bl	8000748 <filter>
 800127a:	70b8      	strb	r0, [r7, #2]
 800127c:	4648      	mov	r0, r9
 800127e:	f7ff fa63 	bl	8000748 <filter>
 8001282:	f8df 91c8 	ldr.w	r9, [pc, #456]	; 800144c <main+0xbc4>
 8001286:	70f8      	strb	r0, [r7, #3]
 8001288:	f899 7000 	ldrb.w	r7, [r9]
 800128c:	2f00      	cmp	r7, #0
 800128e:	d13a      	bne.n	8001306 <main+0xa7e>
 8001290:	7833      	ldrb	r3, [r6, #0]
 8001292:	2b14      	cmp	r3, #20
 8001294:	d16b      	bne.n	800136e <main+0xae6>
 8001296:	4a5b      	ldr	r2, [pc, #364]	; (8001404 <main+0xb7c>)
 8001298:	495b      	ldr	r1, [pc, #364]	; (8001408 <main+0xb80>)
 800129a:	8812      	ldrh	r2, [r2, #0]
 800129c:	9302      	str	r3, [sp, #8]
 800129e:	a819      	add	r0, sp, #100	; 0x64
 80012a0:	f005 fdfc 	bl	8006e9c <siprintf>
 80012a4:	4639      	mov	r1, r7
 80012a6:	4658      	mov	r0, fp
 80012a8:	f7ff fa34 	bl	8000714 <lcd_set_cursor>
 80012ac:	a819      	add	r0, sp, #100	; 0x64
 80012ae:	f7ff fa28 	bl	8000702 <lcd_write_string>
 80012b2:	4a56      	ldr	r2, [pc, #344]	; (800140c <main+0xb84>)
 80012b4:	9b02      	ldr	r3, [sp, #8]
 80012b6:	8812      	ldrh	r2, [r2, #0]
 80012b8:	4955      	ldr	r1, [pc, #340]	; (8001410 <main+0xb88>)
 80012ba:	fbb2 f3f3 	udiv	r3, r2, r3
 80012be:	a819      	add	r0, sp, #100	; 0x64
 80012c0:	f005 fdec 	bl	8006e9c <siprintf>
 80012c4:	4639      	mov	r1, r7
 80012c6:	2002      	movs	r0, #2
 80012c8:	f7ff fa24 	bl	8000714 <lcd_set_cursor>
 80012cc:	a819      	add	r0, sp, #100	; 0x64
 80012ce:	f7ff fa18 	bl	8000702 <lcd_write_string>
 80012d2:	4b49      	ldr	r3, [pc, #292]	; (80013f8 <main+0xb70>)
 80012d4:	494f      	ldr	r1, [pc, #316]	; (8001414 <main+0xb8c>)
 80012d6:	881a      	ldrh	r2, [r3, #0]
 80012d8:	a819      	add	r0, sp, #100	; 0x64
 80012da:	f005 fddf 	bl	8006e9c <siprintf>
 80012de:	4639      	mov	r1, r7
 80012e0:	2003      	movs	r0, #3
 80012e2:	f7ff fa17 	bl	8000714 <lcd_set_cursor>
 80012e6:	a819      	add	r0, sp, #100	; 0x64
 80012e8:	f7ff fa0b 	bl	8000702 <lcd_write_string>
 80012ec:	4b4a      	ldr	r3, [pc, #296]	; (8001418 <main+0xb90>)
 80012ee:	494b      	ldr	r1, [pc, #300]	; (800141c <main+0xb94>)
 80012f0:	881a      	ldrh	r2, [r3, #0]
 80012f2:	a819      	add	r0, sp, #100	; 0x64
 80012f4:	f005 fdd2 	bl	8006e9c <siprintf>
 80012f8:	2004      	movs	r0, #4
 80012fa:	4639      	mov	r1, r7
 80012fc:	f7ff fa0a 	bl	8000714 <lcd_set_cursor>
 8001300:	a819      	add	r0, sp, #100	; 0x64
 8001302:	f7ff f9fe 	bl	8000702 <lcd_write_string>
 8001306:	f899 2000 	ldrb.w	r2, [r9]
 800130a:	7833      	ldrb	r3, [r6, #0]
 800130c:	2a03      	cmp	r2, #3
 800130e:	d12e      	bne.n	800136e <main+0xae6>
 8001310:	2b14      	cmp	r3, #20
 8001312:	f040 80eb 	bne.w	80014ec <main+0xc64>
 8001316:	4f42      	ldr	r7, [pc, #264]	; (8001420 <main+0xb98>)
 8001318:	4842      	ldr	r0, [pc, #264]	; (8001424 <main+0xb9c>)
 800131a:	2200      	movs	r2, #0
 800131c:	4639      	mov	r1, r7
 800131e:	f004 f9f9 	bl	8005714 <HAL_RTC_GetTime>
 8001322:	4941      	ldr	r1, [pc, #260]	; (8001428 <main+0xba0>)
 8001324:	483f      	ldr	r0, [pc, #252]	; (8001424 <main+0xb9c>)
 8001326:	2200      	movs	r2, #0
 8001328:	f004 fa17 	bl	800575a <HAL_RTC_GetDate>
 800132c:	4b3f      	ldr	r3, [pc, #252]	; (800142c <main+0xba4>)
 800132e:	4a40      	ldr	r2, [pc, #256]	; (8001430 <main+0xba8>)
 8001330:	781b      	ldrb	r3, [r3, #0]
 8001332:	9300      	str	r3, [sp, #0]
 8001334:	4b3f      	ldr	r3, [pc, #252]	; (8001434 <main+0xbac>)
 8001336:	7812      	ldrb	r2, [r2, #0]
 8001338:	781b      	ldrb	r3, [r3, #0]
 800133a:	493f      	ldr	r1, [pc, #252]	; (8001438 <main+0xbb0>)
 800133c:	a819      	add	r0, sp, #100	; 0x64
 800133e:	f005 fdad 	bl	8006e9c <siprintf>
 8001342:	2100      	movs	r1, #0
 8001344:	2001      	movs	r0, #1
 8001346:	f7ff f9e5 	bl	8000714 <lcd_set_cursor>
 800134a:	a819      	add	r0, sp, #100	; 0x64
 800134c:	f7ff f9d9 	bl	8000702 <lcd_write_string>
 8001350:	78bb      	ldrb	r3, [r7, #2]
 8001352:	9300      	str	r3, [sp, #0]
 8001354:	787b      	ldrb	r3, [r7, #1]
 8001356:	783a      	ldrb	r2, [r7, #0]
 8001358:	4938      	ldr	r1, [pc, #224]	; (800143c <main+0xbb4>)
 800135a:	a819      	add	r0, sp, #100	; 0x64
 800135c:	f005 fd9e 	bl	8006e9c <siprintf>
 8001360:	2002      	movs	r0, #2
 8001362:	2100      	movs	r1, #0
 8001364:	f7ff f9d6 	bl	8000714 <lcd_set_cursor>
 8001368:	a819      	add	r0, sp, #100	; 0x64
 800136a:	f7ff f9ca 	bl	8000702 <lcd_write_string>
 800136e:	f899 b000 	ldrb.w	fp, [r9]
 8001372:	7833      	ldrb	r3, [r6, #0]
 8001374:	f1bb 0f01 	cmp.w	fp, #1
 8001378:	f040 80b8 	bne.w	80014ec <main+0xc64>
 800137c:	2b12      	cmp	r3, #18
 800137e:	f040 8082 	bne.w	8001486 <main+0xbfe>
 8001382:	8823      	ldrh	r3, [r4, #0]
 8001384:	492e      	ldr	r1, [pc, #184]	; (8001440 <main+0xbb8>)
 8001386:	2714      	movs	r7, #20
 8001388:	a819      	add	r0, sp, #100	; 0x64
 800138a:	fbb3 f2f7 	udiv	r2, r3, r7
 800138e:	f005 fd85 	bl	8006e9c <siprintf>
 8001392:	2100      	movs	r1, #0
 8001394:	4658      	mov	r0, fp
 8001396:	f7ff f9bd 	bl	8000714 <lcd_set_cursor>
 800139a:	a819      	add	r0, sp, #100	; 0x64
 800139c:	f7ff f9b1 	bl	8000702 <lcd_write_string>
 80013a0:	8863      	ldrh	r3, [r4, #2]
 80013a2:	4927      	ldr	r1, [pc, #156]	; (8001440 <main+0xbb8>)
 80013a4:	fbb3 f2f7 	udiv	r2, r3, r7
 80013a8:	a819      	add	r0, sp, #100	; 0x64
 80013aa:	f005 fd77 	bl	8006e9c <siprintf>
 80013ae:	2100      	movs	r1, #0
 80013b0:	2002      	movs	r0, #2
 80013b2:	f7ff f9af 	bl	8000714 <lcd_set_cursor>
 80013b6:	a819      	add	r0, sp, #100	; 0x64
 80013b8:	f7ff f9a3 	bl	8000702 <lcd_write_string>
 80013bc:	88a3      	ldrh	r3, [r4, #4]
 80013be:	e047      	b.n	8001450 <main+0xbc8>
 80013c0:	48001400 	.word	0x48001400
 80013c4:	20000004 	.word	0x20000004
 80013c8:	40012c00 	.word	0x40012c00
 80013cc:	200002f4 	.word	0x200002f4
 80013d0:	20000424 	.word	0x20000424
 80013d4:	20000340 	.word	0x20000340
 80013d8:	2000038c 	.word	0x2000038c
 80013dc:	20000104 	.word	0x20000104
 80013e0:	200000b4 	.word	0x200000b4
 80013e4:	200000b2 	.word	0x200000b2
 80013e8:	40021000 	.word	0x40021000
 80013ec:	40005400 	.word	0x40005400
 80013f0:	200000a4 	.word	0x200000a4
 80013f4:	2000009f 	.word	0x2000009f
 80013f8:	200000ac 	.word	0x200000ac
 80013fc:	200000ae 	.word	0x200000ae
 8001400:	2000009e 	.word	0x2000009e
 8001404:	200005e4 	.word	0x200005e4
 8001408:	080077fc 	.word	0x080077fc
 800140c:	200005e0 	.word	0x200005e0
 8001410:	08007810 	.word	0x08007810
 8001414:	08007825 	.word	0x08007825
 8001418:	200000b0 	.word	0x200000b0
 800141c:	08007833 	.word	0x08007833
 8001420:	200005ec 	.word	0x200005ec
 8001424:	200002d4 	.word	0x200002d4
 8001428:	200005e6 	.word	0x200005e6
 800142c:	20000600 	.word	0x20000600
 8001430:	200002d0 	.word	0x200002d0
 8001434:	200005d0 	.word	0x200005d0
 8001438:	0800783d 	.word	0x0800783d
 800143c:	08007843 	.word	0x08007843
 8001440:	08007857 	.word	0x08007857
 8001444:	48000400 	.word	0x48000400
 8001448:	200001a4 	.word	0x200001a4
 800144c:	200005d9 	.word	0x200005d9
 8001450:	4956      	ldr	r1, [pc, #344]	; (80015ac <main+0xd24>)
 8001452:	fbb3 f2f7 	udiv	r2, r3, r7
 8001456:	a819      	add	r0, sp, #100	; 0x64
 8001458:	f005 fd20 	bl	8006e9c <siprintf>
 800145c:	2100      	movs	r1, #0
 800145e:	2003      	movs	r0, #3
 8001460:	f7ff f958 	bl	8000714 <lcd_set_cursor>
 8001464:	a819      	add	r0, sp, #100	; 0x64
 8001466:	f7ff f94c 	bl	8000702 <lcd_write_string>
 800146a:	88e3      	ldrh	r3, [r4, #6]
 800146c:	494f      	ldr	r1, [pc, #316]	; (80015ac <main+0xd24>)
 800146e:	fbb3 f2f7 	udiv	r2, r3, r7
 8001472:	a819      	add	r0, sp, #100	; 0x64
 8001474:	f005 fd12 	bl	8006e9c <siprintf>
 8001478:	2004      	movs	r0, #4
 800147a:	2100      	movs	r1, #0
 800147c:	f7ff f94a 	bl	8000714 <lcd_set_cursor>
 8001480:	a819      	add	r0, sp, #100	; 0x64
 8001482:	f7ff f93e 	bl	8000702 <lcd_write_string>
 8001486:	7833      	ldrb	r3, [r6, #0]
 8001488:	2bfa      	cmp	r3, #250	; 0xfa
 800148a:	d12f      	bne.n	80014ec <main+0xc64>
 800148c:	882a      	ldrh	r2, [r5, #0]
 800148e:	4948      	ldr	r1, [pc, #288]	; (80015b0 <main+0xd28>)
 8001490:	a819      	add	r0, sp, #100	; 0x64
 8001492:	f005 fd03 	bl	8006e9c <siprintf>
 8001496:	210d      	movs	r1, #13
 8001498:	2001      	movs	r0, #1
 800149a:	f7ff f93b 	bl	8000714 <lcd_set_cursor>
 800149e:	a819      	add	r0, sp, #100	; 0x64
 80014a0:	f7ff f92f 	bl	8000702 <lcd_write_string>
 80014a4:	886a      	ldrh	r2, [r5, #2]
 80014a6:	4942      	ldr	r1, [pc, #264]	; (80015b0 <main+0xd28>)
 80014a8:	a819      	add	r0, sp, #100	; 0x64
 80014aa:	f005 fcf7 	bl	8006e9c <siprintf>
 80014ae:	210d      	movs	r1, #13
 80014b0:	2002      	movs	r0, #2
 80014b2:	f7ff f92f 	bl	8000714 <lcd_set_cursor>
 80014b6:	a819      	add	r0, sp, #100	; 0x64
 80014b8:	f7ff f923 	bl	8000702 <lcd_write_string>
 80014bc:	88aa      	ldrh	r2, [r5, #4]
 80014be:	493c      	ldr	r1, [pc, #240]	; (80015b0 <main+0xd28>)
 80014c0:	a819      	add	r0, sp, #100	; 0x64
 80014c2:	f005 fceb 	bl	8006e9c <siprintf>
 80014c6:	210d      	movs	r1, #13
 80014c8:	2003      	movs	r0, #3
 80014ca:	f7ff f923 	bl	8000714 <lcd_set_cursor>
 80014ce:	a819      	add	r0, sp, #100	; 0x64
 80014d0:	f7ff f917 	bl	8000702 <lcd_write_string>
 80014d4:	88ea      	ldrh	r2, [r5, #6]
 80014d6:	4936      	ldr	r1, [pc, #216]	; (80015b0 <main+0xd28>)
 80014d8:	a819      	add	r0, sp, #100	; 0x64
 80014da:	f005 fcdf 	bl	8006e9c <siprintf>
 80014de:	2004      	movs	r0, #4
 80014e0:	210d      	movs	r1, #13
 80014e2:	f7ff f917 	bl	8000714 <lcd_set_cursor>
 80014e6:	a819      	add	r0, sp, #100	; 0x64
 80014e8:	f7ff f90b 	bl	8000702 <lcd_write_string>
 80014ec:	f899 7000 	ldrb.w	r7, [r9]
 80014f0:	7833      	ldrb	r3, [r6, #0]
 80014f2:	2f02      	cmp	r7, #2
 80014f4:	d132      	bne.n	800155c <main+0xcd4>
 80014f6:	2bfa      	cmp	r3, #250	; 0xfa
 80014f8:	d130      	bne.n	800155c <main+0xcd4>
 80014fa:	4d2e      	ldr	r5, [pc, #184]	; (80015b4 <main+0xd2c>)
 80014fc:	492e      	ldr	r1, [pc, #184]	; (80015b8 <main+0xd30>)
 80014fe:	782a      	ldrb	r2, [r5, #0]
 8001500:	a819      	add	r0, sp, #100	; 0x64
 8001502:	f005 fccb 	bl	8006e9c <siprintf>
 8001506:	2106      	movs	r1, #6
 8001508:	2001      	movs	r0, #1
 800150a:	f7ff f903 	bl	8000714 <lcd_set_cursor>
 800150e:	a819      	add	r0, sp, #100	; 0x64
 8001510:	f7ff f8f7 	bl	8000702 <lcd_write_string>
 8001514:	786a      	ldrb	r2, [r5, #1]
 8001516:	4928      	ldr	r1, [pc, #160]	; (80015b8 <main+0xd30>)
 8001518:	a819      	add	r0, sp, #100	; 0x64
 800151a:	f005 fcbf 	bl	8006e9c <siprintf>
 800151e:	2106      	movs	r1, #6
 8001520:	4638      	mov	r0, r7
 8001522:	f7ff f8f7 	bl	8000714 <lcd_set_cursor>
 8001526:	a819      	add	r0, sp, #100	; 0x64
 8001528:	f7ff f8eb 	bl	8000702 <lcd_write_string>
 800152c:	78aa      	ldrb	r2, [r5, #2]
 800152e:	4922      	ldr	r1, [pc, #136]	; (80015b8 <main+0xd30>)
 8001530:	a819      	add	r0, sp, #100	; 0x64
 8001532:	f005 fcb3 	bl	8006e9c <siprintf>
 8001536:	2106      	movs	r1, #6
 8001538:	2003      	movs	r0, #3
 800153a:	f7ff f8eb 	bl	8000714 <lcd_set_cursor>
 800153e:	a819      	add	r0, sp, #100	; 0x64
 8001540:	f7ff f8df 	bl	8000702 <lcd_write_string>
 8001544:	78ea      	ldrb	r2, [r5, #3]
 8001546:	491c      	ldr	r1, [pc, #112]	; (80015b8 <main+0xd30>)
 8001548:	a819      	add	r0, sp, #100	; 0x64
 800154a:	f005 fca7 	bl	8006e9c <siprintf>
 800154e:	2004      	movs	r0, #4
 8001550:	2106      	movs	r1, #6
 8001552:	f7ff f8df 	bl	8000714 <lcd_set_cursor>
 8001556:	a819      	add	r0, sp, #100	; 0x64
 8001558:	f7ff f8d3 	bl	8000702 <lcd_write_string>
 800155c:	7833      	ldrb	r3, [r6, #0]
 800155e:	4a17      	ldr	r2, [pc, #92]	; (80015bc <main+0xd34>)
 8001560:	4817      	ldr	r0, [pc, #92]	; (80015c0 <main+0xd38>)
 8001562:	2bfc      	cmp	r3, #252	; 0xfc
 8001564:	f04f 0300 	mov.w	r3, #0
 8001568:	bf08      	it	eq
 800156a:	7033      	strbeq	r3, [r6, #0]
 800156c:	7013      	strb	r3, [r2, #0]
 800156e:	2364      	movs	r3, #100	; 0x64
 8001570:	4a10      	ldr	r2, [pc, #64]	; (80015b4 <main+0xd2c>)
 8001572:	9300      	str	r3, [sp, #0]
 8001574:	2120      	movs	r1, #32
 8001576:	230a      	movs	r3, #10
 8001578:	f002 fbea 	bl	8003d50 <HAL_I2C_Master_Receive>
 800157c:	f7fe ff90 	bl	80004a0 <PWM_correction>
 8001580:	f7ff f900 	bl	8000784 <page>
 8001584:	4b0f      	ldr	r3, [pc, #60]	; (80015c4 <main+0xd3c>)
 8001586:	8822      	ldrh	r2, [r4, #0]
 8001588:	635a      	str	r2, [r3, #52]	; 0x34
 800158a:	8862      	ldrh	r2, [r4, #2]
 800158c:	639a      	str	r2, [r3, #56]	; 0x38
 800158e:	88a2      	ldrh	r2, [r4, #4]
 8001590:	f8c3 2834 	str.w	r2, [r3, #2100]	; 0x834
 8001594:	f503 6300 	add.w	r3, r3, #2048	; 0x800
 8001598:	88e2      	ldrh	r2, [r4, #6]
 800159a:	f8c3 2c34 	str.w	r2, [r3, #3124]	; 0xc34
 800159e:	4651      	mov	r1, sl
 80015a0:	2205      	movs	r2, #5
 80015a2:	4809      	ldr	r0, [pc, #36]	; (80015c8 <main+0xd40>)
 80015a4:	f001 f8ee 	bl	8002784 <HAL_ADC_Start_DMA>
 80015a8:	e626      	b.n	80011f8 <main+0x970>
 80015aa:	bf00      	nop
 80015ac:	08007857 	.word	0x08007857
 80015b0:	08007867 	.word	0x08007867
 80015b4:	20000601 	.word	0x20000601
 80015b8:	08007870 	.word	0x08007870
 80015bc:	200000b2 	.word	0x200000b2
 80015c0:	2000027c 	.word	0x2000027c
 80015c4:	40012c00 	.word	0x40012c00
 80015c8:	20000104 	.word	0x20000104

080015cc <HAL_TIM_IC_CaptureCallback>:
 80015cc:	b570      	push	{r4, r5, r6, lr}
 80015ce:	6806      	ldr	r6, [r0, #0]
 80015d0:	f1b6 4f80 	cmp.w	r6, #1073741824	; 0x40000000
 80015d4:	4605      	mov	r5, r0
 80015d6:	d16a      	bne.n	80016ae <HAL_TIM_IC_CaptureCallback+0xe2>
 80015d8:	7f03      	ldrb	r3, [r0, #28]
 80015da:	2b01      	cmp	r3, #1
 80015dc:	d13a      	bne.n	8001654 <HAL_TIM_IC_CaptureCallback+0x88>
 80015de:	4b34      	ldr	r3, [pc, #208]	; (80016b0 <HAL_TIM_IC_CaptureCallback+0xe4>)
 80015e0:	4834      	ldr	r0, [pc, #208]	; (80016b4 <HAL_TIM_IC_CaptureCallback+0xe8>)
 80015e2:	2400      	movs	r4, #0
 80015e4:	625c      	str	r4, [r3, #36]	; 0x24
 80015e6:	4621      	mov	r1, r4
 80015e8:	f004 fede 	bl	80063a8 <HAL_TIM_PWM_Stop>
 80015ec:	2104      	movs	r1, #4
 80015ee:	4831      	ldr	r0, [pc, #196]	; (80016b4 <HAL_TIM_IC_CaptureCallback+0xe8>)
 80015f0:	f004 feda 	bl	80063a8 <HAL_TIM_PWM_Stop>
 80015f4:	4621      	mov	r1, r4
 80015f6:	4830      	ldr	r0, [pc, #192]	; (80016b8 <HAL_TIM_IC_CaptureCallback+0xec>)
 80015f8:	f004 fed6 	bl	80063a8 <HAL_TIM_PWM_Stop>
 80015fc:	4621      	mov	r1, r4
 80015fe:	482f      	ldr	r0, [pc, #188]	; (80016bc <HAL_TIM_IC_CaptureCallback+0xf0>)
 8001600:	f004 fed2 	bl	80063a8 <HAL_TIM_PWM_Stop>
 8001604:	6274      	str	r4, [r6, #36]	; 0x24
 8001606:	4621      	mov	r1, r4
 8001608:	482d      	ldr	r0, [pc, #180]	; (80016c0 <HAL_TIM_IC_CaptureCallback+0xf4>)
 800160a:	4e2e      	ldr	r6, [pc, #184]	; (80016c4 <HAL_TIM_IC_CaptureCallback+0xf8>)
 800160c:	f004 f9f0 	bl	80059f0 <HAL_TIM_ReadCapturedValue>
 8001610:	2104      	movs	r1, #4
 8001612:	8030      	strh	r0, [r6, #0]
 8001614:	482a      	ldr	r0, [pc, #168]	; (80016c0 <HAL_TIM_IC_CaptureCallback+0xf4>)
 8001616:	f004 f9eb 	bl	80059f0 <HAL_TIM_ReadCapturedValue>
 800161a:	4b2b      	ldr	r3, [pc, #172]	; (80016c8 <HAL_TIM_IC_CaptureCallback+0xfc>)
 800161c:	492b      	ldr	r1, [pc, #172]	; (80016cc <HAL_TIM_IC_CaptureCallback+0x100>)
 800161e:	8832      	ldrh	r2, [r6, #0]
 8001620:	8018      	strh	r0, [r3, #0]
 8001622:	4b2b      	ldr	r3, [pc, #172]	; (80016d0 <HAL_TIM_IC_CaptureCallback+0x104>)
 8001624:	fbb3 f3f2 	udiv	r3, r3, r2
 8001628:	800b      	strh	r3, [r1, #0]
 800162a:	4b2a      	ldr	r3, [pc, #168]	; (80016d4 <HAL_TIM_IC_CaptureCallback+0x108>)
 800162c:	fbb3 f3f2 	udiv	r3, r3, r2
 8001630:	4a29      	ldr	r2, [pc, #164]	; (80016d8 <HAL_TIM_IC_CaptureCallback+0x10c>)
 8001632:	4820      	ldr	r0, [pc, #128]	; (80016b4 <HAL_TIM_IC_CaptureCallback+0xe8>)
 8001634:	8013      	strh	r3, [r2, #0]
 8001636:	4621      	mov	r1, r4
 8001638:	f004 fffb 	bl	8006632 <HAL_TIMEx_PWMN_Start>
 800163c:	2104      	movs	r1, #4
 800163e:	481d      	ldr	r0, [pc, #116]	; (80016b4 <HAL_TIM_IC_CaptureCallback+0xe8>)
 8001640:	f004 fff7 	bl	8006632 <HAL_TIMEx_PWMN_Start>
 8001644:	4621      	mov	r1, r4
 8001646:	481c      	ldr	r0, [pc, #112]	; (80016b8 <HAL_TIM_IC_CaptureCallback+0xec>)
 8001648:	f004 fff3 	bl	8006632 <HAL_TIMEx_PWMN_Start>
 800164c:	481b      	ldr	r0, [pc, #108]	; (80016bc <HAL_TIM_IC_CaptureCallback+0xf0>)
 800164e:	4621      	mov	r1, r4
 8001650:	f004 ffef 	bl	8006632 <HAL_TIMEx_PWMN_Start>
 8001654:	7f2b      	ldrb	r3, [r5, #28]
 8001656:	2b02      	cmp	r3, #2
 8001658:	d129      	bne.n	80016ae <HAL_TIM_IC_CaptureCallback+0xe2>
 800165a:	4b15      	ldr	r3, [pc, #84]	; (80016b0 <HAL_TIM_IC_CaptureCallback+0xe4>)
 800165c:	481f      	ldr	r0, [pc, #124]	; (80016dc <HAL_TIM_IC_CaptureCallback+0x110>)
 800165e:	2400      	movs	r4, #0
 8001660:	625c      	str	r4, [r3, #36]	; 0x24
 8001662:	f44f 4100 	mov.w	r1, #32768	; 0x8000
 8001666:	f002 f87e 	bl	8003766 <HAL_GPIO_TogglePin>
 800166a:	4621      	mov	r1, r4
 800166c:	4811      	ldr	r0, [pc, #68]	; (80016b4 <HAL_TIM_IC_CaptureCallback+0xe8>)
 800166e:	f004 ffe2 	bl	8006636 <HAL_TIMEx_PWMN_Stop>
 8001672:	2104      	movs	r1, #4
 8001674:	480f      	ldr	r0, [pc, #60]	; (80016b4 <HAL_TIM_IC_CaptureCallback+0xe8>)
 8001676:	f004 ffde 	bl	8006636 <HAL_TIMEx_PWMN_Stop>
 800167a:	4621      	mov	r1, r4
 800167c:	480e      	ldr	r0, [pc, #56]	; (80016b8 <HAL_TIM_IC_CaptureCallback+0xec>)
 800167e:	f004 ffda 	bl	8006636 <HAL_TIMEx_PWMN_Stop>
 8001682:	4621      	mov	r1, r4
 8001684:	480d      	ldr	r0, [pc, #52]	; (80016bc <HAL_TIM_IC_CaptureCallback+0xf0>)
 8001686:	f004 ffd6 	bl	8006636 <HAL_TIMEx_PWMN_Stop>
 800168a:	4621      	mov	r1, r4
 800168c:	4809      	ldr	r0, [pc, #36]	; (80016b4 <HAL_TIM_IC_CaptureCallback+0xe8>)
 800168e:	f004 fe31 	bl	80062f4 <HAL_TIM_PWM_Start>
 8001692:	2104      	movs	r1, #4
 8001694:	4807      	ldr	r0, [pc, #28]	; (80016b4 <HAL_TIM_IC_CaptureCallback+0xe8>)
 8001696:	f004 fe2d 	bl	80062f4 <HAL_TIM_PWM_Start>
 800169a:	4621      	mov	r1, r4
 800169c:	4806      	ldr	r0, [pc, #24]	; (80016b8 <HAL_TIM_IC_CaptureCallback+0xec>)
 800169e:	f004 fe29 	bl	80062f4 <HAL_TIM_PWM_Start>
 80016a2:	4621      	mov	r1, r4
 80016a4:	4805      	ldr	r0, [pc, #20]	; (80016bc <HAL_TIM_IC_CaptureCallback+0xf0>)
 80016a6:	e8bd 4070 	ldmia.w	sp!, {r4, r5, r6, lr}
 80016aa:	f004 be23 	b.w	80062f4 <HAL_TIM_PWM_Start>
 80016ae:	bd70      	pop	{r4, r5, r6, pc}
 80016b0:	40000400 	.word	0x40000400
 80016b4:	200002f4 	.word	0x200002f4
 80016b8:	20000424 	.word	0x20000424
 80016bc:	20000340 	.word	0x20000340
 80016c0:	2000038c 	.word	0x2000038c
 80016c4:	200005da 	.word	0x200005da
 80016c8:	200005dc 	.word	0x200005dc
 80016cc:	200005e4 	.word	0x200005e4
 80016d0:	1c9c3800 	.word	0x1c9c3800
 80016d4:	01e84800 	.word	0x01e84800
 80016d8:	200000b0 	.word	0x200000b0
 80016dc:	48000800 	.word	0x48000800

080016e0 <HAL_GPIO_EXTI_Callback>:
 80016e0:	f5b0 5f00 	cmp.w	r0, #8192	; 0x2000
 80016e4:	b573      	push	{r0, r1, r4, r5, r6, lr}
 80016e6:	4604      	mov	r4, r0
 80016e8:	d13f      	bne.n	800176a <HAL_GPIO_EXTI_Callback+0x8a>
 80016ea:	483e      	ldr	r0, [pc, #248]	; (80017e4 <HAL_GPIO_EXTI_Callback+0x104>)
 80016ec:	f44f 4100 	mov.w	r1, #32768	; 0x8000
 80016f0:	f002 f839 	bl	8003766 <HAL_GPIO_TogglePin>
 80016f4:	483b      	ldr	r0, [pc, #236]	; (80017e4 <HAL_GPIO_EXTI_Callback+0x104>)
 80016f6:	4621      	mov	r1, r4
 80016f8:	f002 f82a 	bl	8003750 <HAL_GPIO_ReadPin>
 80016fc:	2800      	cmp	r0, #0
 80016fe:	d132      	bne.n	8001766 <HAL_GPIO_EXTI_Callback+0x86>
 8001700:	4c39      	ldr	r4, [pc, #228]	; (80017e8 <HAL_GPIO_EXTI_Callback+0x108>)
 8001702:	8823      	ldrh	r3, [r4, #0]
 8001704:	8823      	ldrh	r3, [r4, #0]
 8001706:	b29b      	uxth	r3, r3
 8001708:	2b13      	cmp	r3, #19
 800170a:	d818      	bhi.n	800173e <HAL_GPIO_EXTI_Callback+0x5e>
 800170c:	4e37      	ldr	r6, [pc, #220]	; (80017ec <HAL_GPIO_EXTI_Callback+0x10c>)
 800170e:	7832      	ldrb	r2, [r6, #0]
 8001710:	b9aa      	cbnz	r2, 800173e <HAL_GPIO_EXTI_Callback+0x5e>
 8001712:	4d37      	ldr	r5, [pc, #220]	; (80017f0 <HAL_GPIO_EXTI_Callback+0x110>)
 8001714:	4837      	ldr	r0, [pc, #220]	; (80017f4 <HAL_GPIO_EXTI_Callback+0x114>)
 8001716:	9201      	str	r2, [sp, #4]
 8001718:	4629      	mov	r1, r5
 800171a:	f003 fffb 	bl	8005714 <HAL_RTC_GetTime>
 800171e:	9a01      	ldr	r2, [sp, #4]
 8001720:	4935      	ldr	r1, [pc, #212]	; (80017f8 <HAL_GPIO_EXTI_Callback+0x118>)
 8001722:	4834      	ldr	r0, [pc, #208]	; (80017f4 <HAL_GPIO_EXTI_Callback+0x114>)
 8001724:	f004 f819 	bl	800575a <HAL_RTC_GetDate>
 8001728:	4b34      	ldr	r3, [pc, #208]	; (80017fc <HAL_GPIO_EXTI_Callback+0x11c>)
 800172a:	782a      	ldrb	r2, [r5, #0]
 800172c:	701a      	strb	r2, [r3, #0]
 800172e:	4b34      	ldr	r3, [pc, #208]	; (8001800 <HAL_GPIO_EXTI_Callback+0x120>)
 8001730:	786a      	ldrb	r2, [r5, #1]
 8001732:	701a      	strb	r2, [r3, #0]
 8001734:	4b33      	ldr	r3, [pc, #204]	; (8001804 <HAL_GPIO_EXTI_Callback+0x124>)
 8001736:	78aa      	ldrb	r2, [r5, #2]
 8001738:	701a      	strb	r2, [r3, #0]
 800173a:	2301      	movs	r3, #1
 800173c:	7033      	strb	r3, [r6, #0]
 800173e:	8823      	ldrh	r3, [r4, #0]
 8001740:	330a      	adds	r3, #10
 8001742:	b29b      	uxth	r3, r3
 8001744:	8023      	strh	r3, [r4, #0]
 8001746:	8823      	ldrh	r3, [r4, #0]
 8001748:	f240 72ce 	movw	r2, #1998	; 0x7ce
 800174c:	b29b      	uxth	r3, r3
 800174e:	4293      	cmp	r3, r2
 8001750:	bf84      	itt	hi
 8001752:	f44f 63fa 	movhi.w	r3, #2000	; 0x7d0
 8001756:	8023      	strhhi	r3, [r4, #0]
 8001758:	4b2b      	ldr	r3, [pc, #172]	; (8001808 <HAL_GPIO_EXTI_Callback+0x128>)
 800175a:	2204      	movs	r2, #4
 800175c:	701a      	strb	r2, [r3, #0]
 800175e:	4b2b      	ldr	r3, [pc, #172]	; (800180c <HAL_GPIO_EXTI_Callback+0x12c>)
 8001760:	f44f 5200 	mov.w	r2, #8192	; 0x2000
 8001764:	615a      	str	r2, [r3, #20]
 8001766:	b002      	add	sp, #8
 8001768:	bd70      	pop	{r4, r5, r6, pc}
 800176a:	f5b0 4f80 	cmp.w	r0, #16384	; 0x4000
 800176e:	d1fa      	bne.n	8001766 <HAL_GPIO_EXTI_Callback+0x86>
 8001770:	4601      	mov	r1, r0
 8001772:	481c      	ldr	r0, [pc, #112]	; (80017e4 <HAL_GPIO_EXTI_Callback+0x104>)
 8001774:	f001 ffec 	bl	8003750 <HAL_GPIO_ReadPin>
 8001778:	2801      	cmp	r0, #1
 800177a:	d104      	bne.n	8001786 <HAL_GPIO_EXTI_Callback+0xa6>
 800177c:	4819      	ldr	r0, [pc, #100]	; (80017e4 <HAL_GPIO_EXTI_Callback+0x104>)
 800177e:	f44f 4100 	mov.w	r1, #32768	; 0x8000
 8001782:	f001 fff0 	bl	8003766 <HAL_GPIO_TogglePin>
 8001786:	4817      	ldr	r0, [pc, #92]	; (80017e4 <HAL_GPIO_EXTI_Callback+0x104>)
 8001788:	f44f 4180 	mov.w	r1, #16384	; 0x4000
 800178c:	f001 ffe0 	bl	8003750 <HAL_GPIO_ReadPin>
 8001790:	2800      	cmp	r0, #0
 8001792:	d1e8      	bne.n	8001766 <HAL_GPIO_EXTI_Callback+0x86>
 8001794:	4b14      	ldr	r3, [pc, #80]	; (80017e8 <HAL_GPIO_EXTI_Callback+0x108>)
 8001796:	881a      	ldrh	r2, [r3, #0]
 8001798:	b292      	uxth	r2, r2
 800179a:	b952      	cbnz	r2, 80017b2 <HAL_GPIO_EXTI_Callback+0xd2>
 800179c:	4913      	ldr	r1, [pc, #76]	; (80017ec <HAL_GPIO_EXTI_Callback+0x10c>)
 800179e:	7808      	ldrb	r0, [r1, #0]
 80017a0:	2801      	cmp	r0, #1
 80017a2:	d106      	bne.n	80017b2 <HAL_GPIO_EXTI_Callback+0xd2>
 80017a4:	700a      	strb	r2, [r1, #0]
 80017a6:	4915      	ldr	r1, [pc, #84]	; (80017fc <HAL_GPIO_EXTI_Callback+0x11c>)
 80017a8:	700a      	strb	r2, [r1, #0]
 80017aa:	4915      	ldr	r1, [pc, #84]	; (8001800 <HAL_GPIO_EXTI_Callback+0x120>)
 80017ac:	700a      	strb	r2, [r1, #0]
 80017ae:	4915      	ldr	r1, [pc, #84]	; (8001804 <HAL_GPIO_EXTI_Callback+0x124>)
 80017b0:	700a      	strb	r2, [r1, #0]
 80017b2:	881a      	ldrh	r2, [r3, #0]
 80017b4:	3a0a      	subs	r2, #10
 80017b6:	b292      	uxth	r2, r2
 80017b8:	801a      	strh	r2, [r3, #0]
 80017ba:	881a      	ldrh	r2, [r3, #0]
 80017bc:	f640 0133 	movw	r1, #2099	; 0x833
 80017c0:	b292      	uxth	r2, r2
 80017c2:	428a      	cmp	r2, r1
 80017c4:	bf84      	itt	hi
 80017c6:	2200      	movhi	r2, #0
 80017c8:	801a      	strhhi	r2, [r3, #0]
 80017ca:	881a      	ldrh	r2, [r3, #0]
 80017cc:	b292      	uxth	r2, r2
 80017ce:	2a01      	cmp	r2, #1
 80017d0:	bf9c      	itt	ls
 80017d2:	2200      	movls	r2, #0
 80017d4:	801a      	strhls	r2, [r3, #0]
 80017d6:	4b0c      	ldr	r3, [pc, #48]	; (8001808 <HAL_GPIO_EXTI_Callback+0x128>)
 80017d8:	2204      	movs	r2, #4
 80017da:	701a      	strb	r2, [r3, #0]
 80017dc:	4b0b      	ldr	r3, [pc, #44]	; (800180c <HAL_GPIO_EXTI_Callback+0x12c>)
 80017de:	f44f 4280 	mov.w	r2, #16384	; 0x4000
 80017e2:	e7bf      	b.n	8001764 <HAL_GPIO_EXTI_Callback+0x84>
 80017e4:	48000800 	.word	0x48000800
 80017e8:	200005de 	.word	0x200005de
 80017ec:	2000060b 	.word	0x2000060b
 80017f0:	200005ec 	.word	0x200005ec
 80017f4:	200002d4 	.word	0x200002d4
 80017f8:	200005e6 	.word	0x200005e6
 80017fc:	200002d0 	.word	0x200002d0
 8001800:	200005d0 	.word	0x200005d0
 8001804:	20000600 	.word	0x20000600
 8001808:	200005e2 	.word	0x200005e2
 800180c:	40010400 	.word	0x40010400

08001810 <HAL_UART_TxCpltCallback>:
 8001810:	2200      	movs	r2, #0
 8001812:	f44f 6180 	mov.w	r1, #1024	; 0x400
 8001816:	f04f 4090 	mov.w	r0, #1207959552	; 0x48000000
 800181a:	f001 bf9f 	b.w	800375c <HAL_GPIO_WritePin>
	...

08001820 <HAL_ADC_ConvCpltCallback>:
 8001820:	6802      	ldr	r2, [r0, #0]
 8001822:	4b03      	ldr	r3, [pc, #12]	; (8001830 <HAL_ADC_ConvCpltCallback+0x10>)
 8001824:	429a      	cmp	r2, r3
 8001826:	bf02      	ittt	eq
 8001828:	4b02      	ldreq	r3, [pc, #8]	; (8001834 <HAL_ADC_ConvCpltCallback+0x14>)
 800182a:	2201      	moveq	r2, #1
 800182c:	701a      	strbeq	r2, [r3, #0]
 800182e:	4770      	bx	lr
 8001830:	50000100 	.word	0x50000100
 8001834:	200000b2 	.word	0x200000b2

08001838 <Error_Handler>:
 8001838:	b672      	cpsid	i
 800183a:	e7fe      	b.n	800183a <Error_Handler+0x2>

0800183c <HAL_MspInit>:
 800183c:	4b0f      	ldr	r3, [pc, #60]	; (800187c <HAL_MspInit+0x40>)
 800183e:	b507      	push	{r0, r1, r2, lr}
 8001840:	699a      	ldr	r2, [r3, #24]
 8001842:	f042 0201 	orr.w	r2, r2, #1
 8001846:	619a      	str	r2, [r3, #24]
 8001848:	699a      	ldr	r2, [r3, #24]
 800184a:	f002 0201 	and.w	r2, r2, #1
 800184e:	9200      	str	r2, [sp, #0]
 8001850:	9a00      	ldr	r2, [sp, #0]
 8001852:	69da      	ldr	r2, [r3, #28]
 8001854:	f042 5280 	orr.w	r2, r2, #268435456	; 0x10000000
 8001858:	61da      	str	r2, [r3, #28]
 800185a:	69db      	ldr	r3, [r3, #28]
 800185c:	2200      	movs	r2, #0
 800185e:	f003 5380 	and.w	r3, r3, #268435456	; 0x10000000
 8001862:	9301      	str	r3, [sp, #4]
 8001864:	4611      	mov	r1, r2
 8001866:	2005      	movs	r0, #5
 8001868:	9b01      	ldr	r3, [sp, #4]
 800186a:	f001 fcc5 	bl	80031f8 <HAL_NVIC_SetPriority>
 800186e:	2005      	movs	r0, #5
 8001870:	b003      	add	sp, #12
 8001872:	f85d eb04 	ldr.w	lr, [sp], #4
 8001876:	f001 bcf1 	b.w	800325c <HAL_NVIC_EnableIRQ>
 800187a:	bf00      	nop
 800187c:	40021000 	.word	0x40021000

08001880 <HAL_ADC_MspInit>:
 8001880:	b570      	push	{r4, r5, r6, lr}
 8001882:	4605      	mov	r5, r0
 8001884:	b08c      	sub	sp, #48	; 0x30
 8001886:	2214      	movs	r2, #20
 8001888:	2100      	movs	r1, #0
 800188a:	a807      	add	r0, sp, #28
 800188c:	f005 fb26 	bl	8006edc <memset>
 8001890:	682b      	ldr	r3, [r5, #0]
 8001892:	f1b3 4fa0 	cmp.w	r3, #1342177280	; 0x50000000
 8001896:	d12b      	bne.n	80018f0 <HAL_ADC_MspInit+0x70>
 8001898:	4a4d      	ldr	r2, [pc, #308]	; (80019d0 <HAL_ADC_MspInit+0x150>)
 800189a:	6813      	ldr	r3, [r2, #0]
 800189c:	3301      	adds	r3, #1
 800189e:	2b01      	cmp	r3, #1
 80018a0:	6013      	str	r3, [r2, #0]
 80018a2:	4b4c      	ldr	r3, [pc, #304]	; (80019d4 <HAL_ADC_MspInit+0x154>)
 80018a4:	d108      	bne.n	80018b8 <HAL_ADC_MspInit+0x38>
 80018a6:	695a      	ldr	r2, [r3, #20]
 80018a8:	f042 5280 	orr.w	r2, r2, #268435456	; 0x10000000
 80018ac:	615a      	str	r2, [r3, #20]
 80018ae:	695a      	ldr	r2, [r3, #20]
 80018b0:	f002 5280 	and.w	r2, r2, #268435456	; 0x10000000
 80018b4:	9200      	str	r2, [sp, #0]
 80018b6:	9a00      	ldr	r2, [sp, #0]
 80018b8:	695a      	ldr	r2, [r3, #20]
 80018ba:	f442 3200 	orr.w	r2, r2, #131072	; 0x20000
 80018be:	615a      	str	r2, [r3, #20]
 80018c0:	695b      	ldr	r3, [r3, #20]
 80018c2:	f403 3300 	and.w	r3, r3, #131072	; 0x20000
 80018c6:	9301      	str	r3, [sp, #4]
 80018c8:	2108      	movs	r1, #8
 80018ca:	9b01      	ldr	r3, [sp, #4]
 80018cc:	2303      	movs	r3, #3
 80018ce:	e9cd 1307 	strd	r1, r3, [sp, #28]
 80018d2:	f04f 4090 	mov.w	r0, #1207959552	; 0x48000000
 80018d6:	a907      	add	r1, sp, #28
 80018d8:	f001 fdfc 	bl	80034d4 <HAL_GPIO_Init>
 80018dc:	2200      	movs	r2, #0
 80018de:	2012      	movs	r0, #18
 80018e0:	4611      	mov	r1, r2
 80018e2:	f001 fc89 	bl	80031f8 <HAL_NVIC_SetPriority>
 80018e6:	2012      	movs	r0, #18
 80018e8:	f001 fcb8 	bl	800325c <HAL_NVIC_EnableIRQ>
 80018ec:	b00c      	add	sp, #48	; 0x30
 80018ee:	bd70      	pop	{r4, r5, r6, pc}
 80018f0:	4a39      	ldr	r2, [pc, #228]	; (80019d8 <HAL_ADC_MspInit+0x158>)
 80018f2:	4293      	cmp	r3, r2
 80018f4:	d14d      	bne.n	8001992 <HAL_ADC_MspInit+0x112>
 80018f6:	4a36      	ldr	r2, [pc, #216]	; (80019d0 <HAL_ADC_MspInit+0x150>)
 80018f8:	6813      	ldr	r3, [r2, #0]
 80018fa:	3301      	adds	r3, #1
 80018fc:	2b01      	cmp	r3, #1
 80018fe:	6013      	str	r3, [r2, #0]
 8001900:	4b34      	ldr	r3, [pc, #208]	; (80019d4 <HAL_ADC_MspInit+0x154>)
 8001902:	d108      	bne.n	8001916 <HAL_ADC_MspInit+0x96>
 8001904:	695a      	ldr	r2, [r3, #20]
 8001906:	f042 5280 	orr.w	r2, r2, #268435456	; 0x10000000
 800190a:	615a      	str	r2, [r3, #20]
 800190c:	695a      	ldr	r2, [r3, #20]
 800190e:	f002 5280 	and.w	r2, r2, #268435456	; 0x10000000
 8001912:	9202      	str	r2, [sp, #8]
 8001914:	9a02      	ldr	r2, [sp, #8]
 8001916:	695a      	ldr	r2, [r3, #20]
 8001918:	f442 3200 	orr.w	r2, r2, #131072	; 0x20000
 800191c:	615a      	str	r2, [r3, #20]
 800191e:	695a      	ldr	r2, [r3, #20]
 8001920:	f402 3200 	and.w	r2, r2, #131072	; 0x20000
 8001924:	9203      	str	r2, [sp, #12]
 8001926:	9a03      	ldr	r2, [sp, #12]
 8001928:	695a      	ldr	r2, [r3, #20]
 800192a:	f442 2280 	orr.w	r2, r2, #262144	; 0x40000
 800192e:	615a      	str	r2, [r3, #20]
 8001930:	695b      	ldr	r3, [r3, #20]
 8001932:	f403 2380 	and.w	r3, r3, #262144	; 0x40000
 8001936:	9304      	str	r3, [sp, #16]
 8001938:	2403      	movs	r4, #3
 800193a:	9b04      	ldr	r3, [sp, #16]
 800193c:	a907      	add	r1, sp, #28
 800193e:	23f0      	movs	r3, #240	; 0xf0
 8001940:	f04f 4090 	mov.w	r0, #1207959552	; 0x48000000
 8001944:	2600      	movs	r6, #0
 8001946:	e9cd 3407 	strd	r3, r4, [sp, #28]
 800194a:	f001 fdc3 	bl	80034d4 <HAL_GPIO_Init>
 800194e:	2304      	movs	r3, #4
 8001950:	4822      	ldr	r0, [pc, #136]	; (80019dc <HAL_ADC_MspInit+0x15c>)
 8001952:	9609      	str	r6, [sp, #36]	; 0x24
 8001954:	a907      	add	r1, sp, #28
 8001956:	e9cd 3407 	strd	r3, r4, [sp, #28]
 800195a:	f001 fdbb 	bl	80034d4 <HAL_GPIO_Init>
 800195e:	4c20      	ldr	r4, [pc, #128]	; (80019e0 <HAL_ADC_MspInit+0x160>)
 8001960:	4b20      	ldr	r3, [pc, #128]	; (80019e4 <HAL_ADC_MspInit+0x164>)
 8001962:	60a6      	str	r6, [r4, #8]
 8001964:	e9c4 3600 	strd	r3, r6, [r4]
 8001968:	2280      	movs	r2, #128	; 0x80
 800196a:	f44f 7380 	mov.w	r3, #256	; 0x100
 800196e:	e9c4 2303 	strd	r2, r3, [r4, #12]
 8001972:	f44f 6380 	mov.w	r3, #1024	; 0x400
 8001976:	e9c4 3605 	strd	r3, r6, [r4, #20]
 800197a:	4620      	mov	r0, r4
 800197c:	f44f 5380 	mov.w	r3, #4096	; 0x1000
 8001980:	61e3      	str	r3, [r4, #28]
 8001982:	f001 fcbf 	bl	8003304 <HAL_DMA_Init>
 8001986:	b108      	cbz	r0, 800198c <HAL_ADC_MspInit+0x10c>
 8001988:	f7ff ff56 	bl	8001838 <Error_Handler>
 800198c:	63ac      	str	r4, [r5, #56]	; 0x38
 800198e:	6265      	str	r5, [r4, #36]	; 0x24
 8001990:	e7a4      	b.n	80018dc <HAL_ADC_MspInit+0x5c>
 8001992:	4a15      	ldr	r2, [pc, #84]	; (80019e8 <HAL_ADC_MspInit+0x168>)
 8001994:	4293      	cmp	r3, r2
 8001996:	d1a9      	bne.n	80018ec <HAL_ADC_MspInit+0x6c>
 8001998:	4b0e      	ldr	r3, [pc, #56]	; (80019d4 <HAL_ADC_MspInit+0x154>)
 800199a:	4810      	ldr	r0, [pc, #64]	; (80019dc <HAL_ADC_MspInit+0x15c>)
 800199c:	695a      	ldr	r2, [r3, #20]
 800199e:	f042 5200 	orr.w	r2, r2, #536870912	; 0x20000000
 80019a2:	615a      	str	r2, [r3, #20]
 80019a4:	695a      	ldr	r2, [r3, #20]
 80019a6:	f002 5200 	and.w	r2, r2, #536870912	; 0x20000000
 80019aa:	9205      	str	r2, [sp, #20]
 80019ac:	9a05      	ldr	r2, [sp, #20]
 80019ae:	695a      	ldr	r2, [r3, #20]
 80019b0:	f442 2280 	orr.w	r2, r2, #262144	; 0x40000
 80019b4:	615a      	str	r2, [r3, #20]
 80019b6:	695b      	ldr	r3, [r3, #20]
 80019b8:	f403 2380 	and.w	r3, r3, #262144	; 0x40000
 80019bc:	9306      	str	r3, [sp, #24]
 80019be:	9b06      	ldr	r3, [sp, #24]
 80019c0:	a907      	add	r1, sp, #28
 80019c2:	2303      	movs	r3, #3
 80019c4:	e9cd 3307 	strd	r3, r3, [sp, #28]
 80019c8:	f001 fd84 	bl	80034d4 <HAL_GPIO_Init>
 80019cc:	e78e      	b.n	80018ec <HAL_ADC_MspInit+0x6c>
 80019ce:	bf00      	nop
 80019d0:	20000610 	.word	0x20000610
 80019d4:	40021000 	.word	0x40021000
 80019d8:	50000100 	.word	0x50000100
 80019dc:	48000400 	.word	0x48000400
 80019e0:	200001b0 	.word	0x200001b0
 80019e4:	40020408 	.word	0x40020408
 80019e8:	50000400 	.word	0x50000400

080019ec <HAL_I2C_MspInit>:
 80019ec:	b510      	push	{r4, lr}
 80019ee:	4604      	mov	r4, r0
 80019f0:	b088      	sub	sp, #32
 80019f2:	2214      	movs	r2, #20
 80019f4:	2100      	movs	r1, #0
 80019f6:	a803      	add	r0, sp, #12
 80019f8:	f005 fa70 	bl	8006edc <memset>
 80019fc:	6822      	ldr	r2, [r4, #0]
 80019fe:	4b1a      	ldr	r3, [pc, #104]	; (8001a68 <HAL_I2C_MspInit+0x7c>)
 8001a00:	429a      	cmp	r2, r3
 8001a02:	d12f      	bne.n	8001a64 <HAL_I2C_MspInit+0x78>
 8001a04:	4c19      	ldr	r4, [pc, #100]	; (8001a6c <HAL_I2C_MspInit+0x80>)
 8001a06:	481a      	ldr	r0, [pc, #104]	; (8001a70 <HAL_I2C_MspInit+0x84>)
 8001a08:	6963      	ldr	r3, [r4, #20]
 8001a0a:	f443 2380 	orr.w	r3, r3, #262144	; 0x40000
 8001a0e:	6163      	str	r3, [r4, #20]
 8001a10:	6963      	ldr	r3, [r4, #20]
 8001a12:	f403 2380 	and.w	r3, r3, #262144	; 0x40000
 8001a16:	9301      	str	r3, [sp, #4]
 8001a18:	f44f 7240 	mov.w	r2, #768	; 0x300
 8001a1c:	9b01      	ldr	r3, [sp, #4]
 8001a1e:	2312      	movs	r3, #18
 8001a20:	e9cd 2303 	strd	r2, r3, [sp, #12]
 8001a24:	2103      	movs	r1, #3
 8001a26:	2304      	movs	r3, #4
 8001a28:	e9cd 1306 	strd	r1, r3, [sp, #24]
 8001a2c:	a903      	add	r1, sp, #12
 8001a2e:	f001 fd51 	bl	80034d4 <HAL_GPIO_Init>
 8001a32:	69e3      	ldr	r3, [r4, #28]
 8001a34:	f443 1300 	orr.w	r3, r3, #2097152	; 0x200000
 8001a38:	61e3      	str	r3, [r4, #28]
 8001a3a:	69e3      	ldr	r3, [r4, #28]
 8001a3c:	2200      	movs	r2, #0
 8001a3e:	f403 1300 	and.w	r3, r3, #2097152	; 0x200000
 8001a42:	4611      	mov	r1, r2
 8001a44:	9302      	str	r3, [sp, #8]
 8001a46:	201f      	movs	r0, #31
 8001a48:	9b02      	ldr	r3, [sp, #8]
 8001a4a:	f001 fbd5 	bl	80031f8 <HAL_NVIC_SetPriority>
 8001a4e:	201f      	movs	r0, #31
 8001a50:	f001 fc04 	bl	800325c <HAL_NVIC_EnableIRQ>
 8001a54:	2200      	movs	r2, #0
 8001a56:	2020      	movs	r0, #32
 8001a58:	4611      	mov	r1, r2
 8001a5a:	f001 fbcd 	bl	80031f8 <HAL_NVIC_SetPriority>
 8001a5e:	2020      	movs	r0, #32
 8001a60:	f001 fbfc 	bl	800325c <HAL_NVIC_EnableIRQ>
 8001a64:	b008      	add	sp, #32
 8001a66:	bd10      	pop	{r4, pc}
 8001a68:	40005400 	.word	0x40005400
 8001a6c:	40021000 	.word	0x40021000
 8001a70:	48000400 	.word	0x48000400

08001a74 <HAL_I2C_MspDeInit>:
 8001a74:	b508      	push	{r3, lr}
 8001a76:	6802      	ldr	r2, [r0, #0]
 8001a78:	4b0d      	ldr	r3, [pc, #52]	; (8001ab0 <HAL_I2C_MspDeInit+0x3c>)
 8001a7a:	429a      	cmp	r2, r3
 8001a7c:	d116      	bne.n	8001aac <HAL_I2C_MspDeInit+0x38>
 8001a7e:	4a0d      	ldr	r2, [pc, #52]	; (8001ab4 <HAL_I2C_MspDeInit+0x40>)
 8001a80:	480d      	ldr	r0, [pc, #52]	; (8001ab8 <HAL_I2C_MspDeInit+0x44>)
 8001a82:	69d3      	ldr	r3, [r2, #28]
 8001a84:	f423 1300 	bic.w	r3, r3, #2097152	; 0x200000
 8001a88:	61d3      	str	r3, [r2, #28]
 8001a8a:	f44f 7180 	mov.w	r1, #256	; 0x100
 8001a8e:	f001 fde5 	bl	800365c <HAL_GPIO_DeInit>
 8001a92:	4809      	ldr	r0, [pc, #36]	; (8001ab8 <HAL_I2C_MspDeInit+0x44>)
 8001a94:	f44f 7100 	mov.w	r1, #512	; 0x200
 8001a98:	f001 fde0 	bl	800365c <HAL_GPIO_DeInit>
 8001a9c:	201f      	movs	r0, #31
 8001a9e:	f001 fbeb 	bl	8003278 <HAL_NVIC_DisableIRQ>
 8001aa2:	e8bd 4008 	ldmia.w	sp!, {r3, lr}
 8001aa6:	2020      	movs	r0, #32
 8001aa8:	f001 bbe6 	b.w	8003278 <HAL_NVIC_DisableIRQ>
 8001aac:	bd08      	pop	{r3, pc}
 8001aae:	bf00      	nop
 8001ab0:	40005400 	.word	0x40005400
 8001ab4:	40021000 	.word	0x40021000
 8001ab8:	48000400 	.word	0x48000400

08001abc <HAL_RTC_MspInit>:
 8001abc:	6802      	ldr	r2, [r0, #0]
 8001abe:	4b07      	ldr	r3, [pc, #28]	; (8001adc <HAL_RTC_MspInit+0x20>)
 8001ac0:	429a      	cmp	r2, r3
 8001ac2:	d10a      	bne.n	8001ada <HAL_RTC_MspInit+0x1e>
 8001ac4:	f44f 4200 	mov.w	r2, #32768	; 0x8000
 8001ac8:	fa92 f2a2 	rbit	r2, r2
 8001acc:	4b04      	ldr	r3, [pc, #16]	; (8001ae0 <HAL_RTC_MspInit+0x24>)
 8001ace:	fab2 f282 	clz	r2, r2
 8001ad2:	4413      	add	r3, r2
 8001ad4:	009b      	lsls	r3, r3, #2
 8001ad6:	2201      	movs	r2, #1
 8001ad8:	601a      	str	r2, [r3, #0]
 8001ada:	4770      	bx	lr
 8001adc:	40002800 	.word	0x40002800
 8001ae0:	10908100 	.word	0x10908100

08001ae4 <HAL_TIM_Base_MspInit>:
 8001ae4:	b510      	push	{r4, lr}
 8001ae6:	4604      	mov	r4, r0
 8001ae8:	b08c      	sub	sp, #48	; 0x30
 8001aea:	2214      	movs	r2, #20
 8001aec:	2100      	movs	r1, #0
 8001aee:	a807      	add	r0, sp, #28
 8001af0:	f005 f9f4 	bl	8006edc <memset>
 8001af4:	6823      	ldr	r3, [r4, #0]
 8001af6:	4a3a      	ldr	r2, [pc, #232]	; (8001be0 <HAL_TIM_Base_MspInit+0xfc>)
 8001af8:	4293      	cmp	r3, r2
 8001afa:	d110      	bne.n	8001b1e <HAL_TIM_Base_MspInit+0x3a>
 8001afc:	4b39      	ldr	r3, [pc, #228]	; (8001be4 <HAL_TIM_Base_MspInit+0x100>)
 8001afe:	699a      	ldr	r2, [r3, #24]
 8001b00:	f442 6200 	orr.w	r2, r2, #2048	; 0x800
 8001b04:	619a      	str	r2, [r3, #24]
 8001b06:	699b      	ldr	r3, [r3, #24]
 8001b08:	f403 6300 	and.w	r3, r3, #2048	; 0x800
 8001b0c:	9301      	str	r3, [sp, #4]
 8001b0e:	9b01      	ldr	r3, [sp, #4]
 8001b10:	2200      	movs	r2, #0
 8001b12:	2018      	movs	r0, #24
 8001b14:	4611      	mov	r1, r2
 8001b16:	f001 fb6f 	bl	80031f8 <HAL_NVIC_SetPriority>
 8001b1a:	2018      	movs	r0, #24
 8001b1c:	e026      	b.n	8001b6c <HAL_TIM_Base_MspInit+0x88>
 8001b1e:	f1b3 4f80 	cmp.w	r3, #1073741824	; 0x40000000
 8001b22:	d127      	bne.n	8001b74 <HAL_TIM_Base_MspInit+0x90>
 8001b24:	f503 3304 	add.w	r3, r3, #135168	; 0x21000
 8001b28:	a907      	add	r1, sp, #28
 8001b2a:	69da      	ldr	r2, [r3, #28]
 8001b2c:	f042 0201 	orr.w	r2, r2, #1
 8001b30:	61da      	str	r2, [r3, #28]
 8001b32:	69da      	ldr	r2, [r3, #28]
 8001b34:	f002 0201 	and.w	r2, r2, #1
 8001b38:	9202      	str	r2, [sp, #8]
 8001b3a:	9a02      	ldr	r2, [sp, #8]
 8001b3c:	695a      	ldr	r2, [r3, #20]
 8001b3e:	f442 3200 	orr.w	r2, r2, #131072	; 0x20000
 8001b42:	615a      	str	r2, [r3, #20]
 8001b44:	695b      	ldr	r3, [r3, #20]
 8001b46:	f403 3300 	and.w	r3, r3, #131072	; 0x20000
 8001b4a:	9303      	str	r3, [sp, #12]
 8001b4c:	2202      	movs	r2, #2
 8001b4e:	9b03      	ldr	r3, [sp, #12]
 8001b50:	f04f 4090 	mov.w	r0, #1207959552	; 0x48000000
 8001b54:	2301      	movs	r3, #1
 8001b56:	e9cd 3207 	strd	r3, r2, [sp, #28]
 8001b5a:	930b      	str	r3, [sp, #44]	; 0x2c
 8001b5c:	f001 fcba 	bl	80034d4 <HAL_GPIO_Init>
 8001b60:	2200      	movs	r2, #0
 8001b62:	201c      	movs	r0, #28
 8001b64:	4611      	mov	r1, r2
 8001b66:	f001 fb47 	bl	80031f8 <HAL_NVIC_SetPriority>
 8001b6a:	201c      	movs	r0, #28
 8001b6c:	f001 fb76 	bl	800325c <HAL_NVIC_EnableIRQ>
 8001b70:	b00c      	add	sp, #48	; 0x30
 8001b72:	bd10      	pop	{r4, pc}
 8001b74:	4a1c      	ldr	r2, [pc, #112]	; (8001be8 <HAL_TIM_Base_MspInit+0x104>)
 8001b76:	4293      	cmp	r3, r2
 8001b78:	d110      	bne.n	8001b9c <HAL_TIM_Base_MspInit+0xb8>
 8001b7a:	4b1a      	ldr	r3, [pc, #104]	; (8001be4 <HAL_TIM_Base_MspInit+0x100>)
 8001b7c:	69da      	ldr	r2, [r3, #28]
 8001b7e:	f042 0202 	orr.w	r2, r2, #2
 8001b82:	61da      	str	r2, [r3, #28]
 8001b84:	69db      	ldr	r3, [r3, #28]
 8001b86:	2200      	movs	r2, #0
 8001b88:	f003 0302 	and.w	r3, r3, #2
 8001b8c:	9304      	str	r3, [sp, #16]
 8001b8e:	201d      	movs	r0, #29
 8001b90:	4611      	mov	r1, r2
 8001b92:	9b04      	ldr	r3, [sp, #16]
 8001b94:	f001 fb30 	bl	80031f8 <HAL_NVIC_SetPriority>
 8001b98:	201d      	movs	r0, #29
 8001b9a:	e7e7      	b.n	8001b6c <HAL_TIM_Base_MspInit+0x88>
 8001b9c:	4a13      	ldr	r2, [pc, #76]	; (8001bec <HAL_TIM_Base_MspInit+0x108>)
 8001b9e:	4293      	cmp	r3, r2
 8001ba0:	d110      	bne.n	8001bc4 <HAL_TIM_Base_MspInit+0xe0>
 8001ba2:	4b10      	ldr	r3, [pc, #64]	; (8001be4 <HAL_TIM_Base_MspInit+0x100>)
 8001ba4:	699a      	ldr	r2, [r3, #24]
 8001ba6:	f442 5200 	orr.w	r2, r2, #8192	; 0x2000
 8001baa:	619a      	str	r2, [r3, #24]
 8001bac:	699b      	ldr	r3, [r3, #24]
 8001bae:	2200      	movs	r2, #0
 8001bb0:	f403 5300 	and.w	r3, r3, #8192	; 0x2000
 8001bb4:	9305      	str	r3, [sp, #20]
 8001bb6:	202b      	movs	r0, #43	; 0x2b
 8001bb8:	4611      	mov	r1, r2
 8001bba:	9b05      	ldr	r3, [sp, #20]
 8001bbc:	f001 fb1c 	bl	80031f8 <HAL_NVIC_SetPriority>
 8001bc0:	202b      	movs	r0, #43	; 0x2b
 8001bc2:	e7d3      	b.n	8001b6c <HAL_TIM_Base_MspInit+0x88>
 8001bc4:	4a0a      	ldr	r2, [pc, #40]	; (8001bf0 <HAL_TIM_Base_MspInit+0x10c>)
 8001bc6:	4293      	cmp	r3, r2
 8001bc8:	d1d2      	bne.n	8001b70 <HAL_TIM_Base_MspInit+0x8c>
 8001bca:	4b06      	ldr	r3, [pc, #24]	; (8001be4 <HAL_TIM_Base_MspInit+0x100>)
 8001bcc:	699a      	ldr	r2, [r3, #24]
 8001bce:	f442 3280 	orr.w	r2, r2, #65536	; 0x10000
 8001bd2:	619a      	str	r2, [r3, #24]
 8001bd4:	699b      	ldr	r3, [r3, #24]
 8001bd6:	f403 3380 	and.w	r3, r3, #65536	; 0x10000
 8001bda:	9306      	str	r3, [sp, #24]
 8001bdc:	9b06      	ldr	r3, [sp, #24]
 8001bde:	e797      	b.n	8001b10 <HAL_TIM_Base_MspInit+0x2c>
 8001be0:	40012c00 	.word	0x40012c00
 8001be4:	40021000 	.word	0x40021000
 8001be8:	40000400 	.word	0x40000400
 8001bec:	40013400 	.word	0x40013400
 8001bf0:	40014000 	.word	0x40014000

08001bf4 <HAL_TIM_MspPostInit>:
 8001bf4:	b510      	push	{r4, lr}
 8001bf6:	2214      	movs	r2, #20
 8001bf8:	b08a      	sub	sp, #40	; 0x28
 8001bfa:	4604      	mov	r4, r0
 8001bfc:	2100      	movs	r1, #0
 8001bfe:	eb0d 0002 	add.w	r0, sp, r2
 8001c02:	f005 f96b 	bl	8006edc <memset>
 8001c06:	6823      	ldr	r3, [r4, #0]
 8001c08:	4a33      	ldr	r2, [pc, #204]	; (8001cd8 <HAL_TIM_MspPostInit+0xe4>)
 8001c0a:	4293      	cmp	r3, r2
 8001c0c:	d117      	bne.n	8001c3e <HAL_TIM_MspPostInit+0x4a>
 8001c0e:	4b33      	ldr	r3, [pc, #204]	; (8001cdc <HAL_TIM_MspPostInit+0xe8>)
 8001c10:	695a      	ldr	r2, [r3, #20]
 8001c12:	f442 3200 	orr.w	r2, r2, #131072	; 0x20000
 8001c16:	615a      	str	r2, [r3, #20]
 8001c18:	695b      	ldr	r3, [r3, #20]
 8001c1a:	f403 3300 	and.w	r3, r3, #131072	; 0x20000
 8001c1e:	9301      	str	r3, [sp, #4]
 8001c20:	9b01      	ldr	r3, [sp, #4]
 8001c22:	f44f 52d8 	mov.w	r2, #6912	; 0x1b00
 8001c26:	2302      	movs	r3, #2
 8001c28:	e9cd 2305 	strd	r2, r3, [sp, #20]
 8001c2c:	2306      	movs	r3, #6
 8001c2e:	9309      	str	r3, [sp, #36]	; 0x24
 8001c30:	a905      	add	r1, sp, #20
 8001c32:	f04f 4090 	mov.w	r0, #1207959552	; 0x48000000
 8001c36:	f001 fc4d 	bl	80034d4 <HAL_GPIO_Init>
 8001c3a:	b00a      	add	sp, #40	; 0x28
 8001c3c:	bd10      	pop	{r4, pc}
 8001c3e:	4a28      	ldr	r2, [pc, #160]	; (8001ce0 <HAL_TIM_MspPostInit+0xec>)
 8001c40:	4293      	cmp	r3, r2
 8001c42:	d128      	bne.n	8001c96 <HAL_TIM_MspPostInit+0xa2>
 8001c44:	4b25      	ldr	r3, [pc, #148]	; (8001cdc <HAL_TIM_MspPostInit+0xe8>)
 8001c46:	695a      	ldr	r2, [r3, #20]
 8001c48:	f442 3200 	orr.w	r2, r2, #131072	; 0x20000
 8001c4c:	615a      	str	r2, [r3, #20]
 8001c4e:	695a      	ldr	r2, [r3, #20]
 8001c50:	f402 3200 	and.w	r2, r2, #131072	; 0x20000
 8001c54:	9202      	str	r2, [sp, #8]
 8001c56:	9a02      	ldr	r2, [sp, #8]
 8001c58:	695a      	ldr	r2, [r3, #20]
 8001c5a:	f442 2280 	orr.w	r2, r2, #262144	; 0x40000
 8001c5e:	615a      	str	r2, [r3, #20]
 8001c60:	695b      	ldr	r3, [r3, #20]
 8001c62:	f403 2380 	and.w	r3, r3, #262144	; 0x40000
 8001c66:	9303      	str	r3, [sp, #12]
 8001c68:	2402      	movs	r4, #2
 8001c6a:	9b03      	ldr	r3, [sp, #12]
 8001c6c:	9409      	str	r4, [sp, #36]	; 0x24
 8001c6e:	f44f 4300 	mov.w	r3, #32768	; 0x8000
 8001c72:	a905      	add	r1, sp, #20
 8001c74:	f04f 4090 	mov.w	r0, #1207959552	; 0x48000000
 8001c78:	e9cd 3405 	strd	r3, r4, [sp, #20]
 8001c7c:	f001 fc2a 	bl	80034d4 <HAL_GPIO_Init>
 8001c80:	2308      	movs	r3, #8
 8001c82:	e9cd 3405 	strd	r3, r4, [sp, #20]
 8001c86:	2300      	movs	r3, #0
 8001c88:	e9cd 3307 	strd	r3, r3, [sp, #28]
 8001c8c:	2304      	movs	r3, #4
 8001c8e:	9309      	str	r3, [sp, #36]	; 0x24
 8001c90:	4814      	ldr	r0, [pc, #80]	; (8001ce4 <HAL_TIM_MspPostInit+0xf0>)
 8001c92:	a905      	add	r1, sp, #20
 8001c94:	e7cf      	b.n	8001c36 <HAL_TIM_MspPostInit+0x42>
 8001c96:	4a14      	ldr	r2, [pc, #80]	; (8001ce8 <HAL_TIM_MspPostInit+0xf4>)
 8001c98:	4293      	cmp	r3, r2
 8001c9a:	d1ce      	bne.n	8001c3a <HAL_TIM_MspPostInit+0x46>
 8001c9c:	4b0f      	ldr	r3, [pc, #60]	; (8001cdc <HAL_TIM_MspPostInit+0xe8>)
 8001c9e:	4811      	ldr	r0, [pc, #68]	; (8001ce4 <HAL_TIM_MspPostInit+0xf0>)
 8001ca0:	695a      	ldr	r2, [r3, #20]
 8001ca2:	f442 2280 	orr.w	r2, r2, #262144	; 0x40000
 8001ca6:	615a      	str	r2, [r3, #20]
 8001ca8:	695b      	ldr	r3, [r3, #20]
 8001caa:	f403 2380 	and.w	r3, r3, #262144	; 0x40000
 8001cae:	9304      	str	r3, [sp, #16]
 8001cb0:	2402      	movs	r4, #2
 8001cb2:	9b04      	ldr	r3, [sp, #16]
 8001cb4:	f44f 4380 	mov.w	r3, #16384	; 0x4000
 8001cb8:	e9cd 3405 	strd	r3, r4, [sp, #20]
 8001cbc:	a905      	add	r1, sp, #20
 8001cbe:	2301      	movs	r3, #1
 8001cc0:	9309      	str	r3, [sp, #36]	; 0x24
 8001cc2:	f001 fc07 	bl	80034d4 <HAL_GPIO_Init>
 8001cc6:	f44f 4300 	mov.w	r3, #32768	; 0x8000
 8001cca:	e9cd 3405 	strd	r3, r4, [sp, #20]
 8001cce:	2300      	movs	r3, #0
 8001cd0:	e9cd 3307 	strd	r3, r3, [sp, #28]
 8001cd4:	9409      	str	r4, [sp, #36]	; 0x24
 8001cd6:	e7db      	b.n	8001c90 <HAL_TIM_MspPostInit+0x9c>
 8001cd8:	40012c00 	.word	0x40012c00
 8001cdc:	40021000 	.word	0x40021000
 8001ce0:	40013400 	.word	0x40013400
 8001ce4:	48000400 	.word	0x48000400
 8001ce8:	40014000 	.word	0x40014000

08001cec <HAL_UART_MspInit>:
 8001cec:	e92d 41f0 	stmdb	sp!, {r4, r5, r6, r7, r8, lr}
 8001cf0:	2214      	movs	r2, #20
 8001cf2:	b08a      	sub	sp, #40	; 0x28
 8001cf4:	4605      	mov	r5, r0
 8001cf6:	2100      	movs	r1, #0
 8001cf8:	eb0d 0002 	add.w	r0, sp, r2
 8001cfc:	f005 f8ee 	bl	8006edc <memset>
 8001d00:	682b      	ldr	r3, [r5, #0]
 8001d02:	4a47      	ldr	r2, [pc, #284]	; (8001e20 <HAL_UART_MspInit+0x134>)
 8001d04:	4293      	cmp	r3, r2
 8001d06:	d121      	bne.n	8001d4c <HAL_UART_MspInit+0x60>
 8001d08:	4b46      	ldr	r3, [pc, #280]	; (8001e24 <HAL_UART_MspInit+0x138>)
 8001d0a:	699a      	ldr	r2, [r3, #24]
 8001d0c:	f442 4280 	orr.w	r2, r2, #16384	; 0x4000
 8001d10:	619a      	str	r2, [r3, #24]
 8001d12:	699a      	ldr	r2, [r3, #24]
 8001d14:	f402 4280 	and.w	r2, r2, #16384	; 0x4000
 8001d18:	9200      	str	r2, [sp, #0]
 8001d1a:	9a00      	ldr	r2, [sp, #0]
 8001d1c:	695a      	ldr	r2, [r3, #20]
 8001d1e:	f442 2280 	orr.w	r2, r2, #262144	; 0x40000
 8001d22:	615a      	str	r2, [r3, #20]
 8001d24:	695b      	ldr	r3, [r3, #20]
 8001d26:	f403 2380 	and.w	r3, r3, #262144	; 0x40000
 8001d2a:	9301      	str	r3, [sp, #4]
 8001d2c:	21c0      	movs	r1, #192	; 0xc0
 8001d2e:	9b01      	ldr	r3, [sp, #4]
 8001d30:	2302      	movs	r3, #2
 8001d32:	e9cd 1305 	strd	r1, r3, [sp, #20]
 8001d36:	2003      	movs	r0, #3
 8001d38:	2307      	movs	r3, #7
 8001d3a:	e9cd 0308 	strd	r0, r3, [sp, #32]
 8001d3e:	a905      	add	r1, sp, #20
 8001d40:	4839      	ldr	r0, [pc, #228]	; (8001e28 <HAL_UART_MspInit+0x13c>)
 8001d42:	f001 fbc7 	bl	80034d4 <HAL_GPIO_Init>
 8001d46:	b00a      	add	sp, #40	; 0x28
 8001d48:	e8bd 81f0 	ldmia.w	sp!, {r4, r5, r6, r7, r8, pc}
 8001d4c:	4a37      	ldr	r2, [pc, #220]	; (8001e2c <HAL_UART_MspInit+0x140>)
 8001d4e:	4293      	cmp	r3, r2
 8001d50:	d1f9      	bne.n	8001d46 <HAL_UART_MspInit+0x5a>
 8001d52:	4b34      	ldr	r3, [pc, #208]	; (8001e24 <HAL_UART_MspInit+0x138>)
 8001d54:	69da      	ldr	r2, [r3, #28]
 8001d56:	f442 3200 	orr.w	r2, r2, #131072	; 0x20000
 8001d5a:	61da      	str	r2, [r3, #28]
 8001d5c:	69da      	ldr	r2, [r3, #28]
 8001d5e:	f402 3200 	and.w	r2, r2, #131072	; 0x20000
 8001d62:	9202      	str	r2, [sp, #8]
 8001d64:	9a02      	ldr	r2, [sp, #8]
 8001d66:	695a      	ldr	r2, [r3, #20]
 8001d68:	f442 3200 	orr.w	r2, r2, #131072	; 0x20000
 8001d6c:	615a      	str	r2, [r3, #20]
 8001d6e:	695a      	ldr	r2, [r3, #20]
 8001d70:	f402 3200 	and.w	r2, r2, #131072	; 0x20000
 8001d74:	9203      	str	r2, [sp, #12]
 8001d76:	9a03      	ldr	r2, [sp, #12]
 8001d78:	695a      	ldr	r2, [r3, #20]
 8001d7a:	f442 2280 	orr.w	r2, r2, #262144	; 0x40000
 8001d7e:	615a      	str	r2, [r3, #20]
 8001d80:	695b      	ldr	r3, [r3, #20]
 8001d82:	f403 2380 	and.w	r3, r3, #262144	; 0x40000
 8001d86:	9304      	str	r3, [sp, #16]
 8001d88:	2602      	movs	r6, #2
 8001d8a:	2407      	movs	r4, #7
 8001d8c:	9b04      	ldr	r3, [sp, #16]
 8001d8e:	f04f 0803 	mov.w	r8, #3
 8001d92:	2304      	movs	r3, #4
 8001d94:	a905      	add	r1, sp, #20
 8001d96:	f04f 4090 	mov.w	r0, #1207959552	; 0x48000000
 8001d9a:	2710      	movs	r7, #16
 8001d9c:	e9cd 3605 	strd	r3, r6, [sp, #20]
 8001da0:	e9cd 8408 	strd	r8, r4, [sp, #32]
 8001da4:	f001 fb96 	bl	80034d4 <HAL_GPIO_Init>
 8001da8:	e9cd 7605 	strd	r7, r6, [sp, #20]
 8001dac:	481e      	ldr	r0, [pc, #120]	; (8001e28 <HAL_UART_MspInit+0x13c>)
 8001dae:	9409      	str	r4, [sp, #36]	; 0x24
 8001db0:	2600      	movs	r6, #0
 8001db2:	a905      	add	r1, sp, #20
 8001db4:	4c1e      	ldr	r4, [pc, #120]	; (8001e30 <HAL_UART_MspInit+0x144>)
 8001db6:	e9cd 6807 	strd	r6, r8, [sp, #28]
 8001dba:	f001 fb8b 	bl	80034d4 <HAL_GPIO_Init>
 8001dbe:	4b1d      	ldr	r3, [pc, #116]	; (8001e34 <HAL_UART_MspInit+0x148>)
 8001dc0:	60a6      	str	r6, [r4, #8]
 8001dc2:	e9c4 3700 	strd	r3, r7, [r4]
 8001dc6:	2380      	movs	r3, #128	; 0x80
 8001dc8:	e9c4 3603 	strd	r3, r6, [r4, #12]
 8001dcc:	4620      	mov	r0, r4
 8001dce:	f44f 5380 	mov.w	r3, #4096	; 0x1000
 8001dd2:	e9c4 6605 	strd	r6, r6, [r4, #20]
 8001dd6:	61e3      	str	r3, [r4, #28]
 8001dd8:	f001 fa94 	bl	8003304 <HAL_DMA_Init>
 8001ddc:	b108      	cbz	r0, 8001de2 <HAL_UART_MspInit+0xf6>
 8001dde:	f7ff fd2b 	bl	8001838 <Error_Handler>
 8001de2:	4a15      	ldr	r2, [pc, #84]	; (8001e38 <HAL_UART_MspInit+0x14c>)
 8001de4:	672c      	str	r4, [r5, #112]	; 0x70
 8001de6:	6265      	str	r5, [r4, #36]	; 0x24
 8001de8:	4c14      	ldr	r4, [pc, #80]	; (8001e3c <HAL_UART_MspInit+0x150>)
 8001dea:	2300      	movs	r3, #0
 8001dec:	e9c4 2300 	strd	r2, r3, [r4]
 8001df0:	4620      	mov	r0, r4
 8001df2:	2280      	movs	r2, #128	; 0x80
 8001df4:	e9c4 2303 	strd	r2, r3, [r4, #12]
 8001df8:	e9c4 3305 	strd	r3, r3, [r4, #20]
 8001dfc:	60a3      	str	r3, [r4, #8]
 8001dfe:	61e3      	str	r3, [r4, #28]
 8001e00:	f001 fa80 	bl	8003304 <HAL_DMA_Init>
 8001e04:	b108      	cbz	r0, 8001e0a <HAL_UART_MspInit+0x11e>
 8001e06:	f7ff fd17 	bl	8001838 <Error_Handler>
 8001e0a:	2200      	movs	r2, #0
 8001e0c:	676c      	str	r4, [r5, #116]	; 0x74
 8001e0e:	4611      	mov	r1, r2
 8001e10:	2026      	movs	r0, #38	; 0x26
 8001e12:	6265      	str	r5, [r4, #36]	; 0x24
 8001e14:	f001 f9f0 	bl	80031f8 <HAL_NVIC_SetPriority>
 8001e18:	2026      	movs	r0, #38	; 0x26
 8001e1a:	f001 fa1f 	bl	800325c <HAL_NVIC_EnableIRQ>
 8001e1e:	e792      	b.n	8001d46 <HAL_UART_MspInit+0x5a>
 8001e20:	40013800 	.word	0x40013800
 8001e24:	40021000 	.word	0x40021000
 8001e28:	48000400 	.word	0x48000400
 8001e2c:	40004400 	.word	0x40004400
 8001e30:	20000238 	.word	0x20000238
 8001e34:	40020080 	.word	0x40020080
 8001e38:	4002006c 	.word	0x4002006c
 8001e3c:	200001f4 	.word	0x200001f4

08001e40 <NMI_Handler>:
 8001e40:	e7fe      	b.n	8001e40 <NMI_Handler>

08001e42 <HardFault_Handler>:
 8001e42:	e7fe      	b.n	8001e42 <HardFault_Handler>

08001e44 <MemManage_Handler>:
 8001e44:	e7fe      	b.n	8001e44 <MemManage_Handler>

08001e46 <BusFault_Handler>:
 8001e46:	e7fe      	b.n	8001e46 <BusFault_Handler>

08001e48 <UsageFault_Handler>:
 8001e48:	e7fe      	b.n	8001e48 <UsageFault_Handler>

08001e4a <SVC_Handler>:
 8001e4a:	4770      	bx	lr

08001e4c <DebugMon_Handler>:
 8001e4c:	4770      	bx	lr

08001e4e <PendSV_Handler>:
 8001e4e:	4770      	bx	lr

08001e50 <SysTick_Handler>:
 8001e50:	f000 b8ec 	b.w	800202c <HAL_IncTick>

08001e54 <RCC_IRQHandler>:
 8001e54:	4770      	bx	lr

08001e56 <EXTI1_IRQHandler>:
 8001e56:	2002      	movs	r0, #2
 8001e58:	f001 bc8e 	b.w	8003778 <HAL_GPIO_EXTI_IRQHandler>

08001e5c <DMA1_Channel6_IRQHandler>:
 8001e5c:	4801      	ldr	r0, [pc, #4]	; (8001e64 <DMA1_Channel6_IRQHandler+0x8>)
 8001e5e:	f001 baef 	b.w	8003440 <HAL_DMA_IRQHandler>
 8001e62:	bf00      	nop
 8001e64:	200001f4 	.word	0x200001f4

08001e68 <DMA1_Channel7_IRQHandler>:
 8001e68:	4801      	ldr	r0, [pc, #4]	; (8001e70 <DMA1_Channel7_IRQHandler+0x8>)
 8001e6a:	f001 bae9 	b.w	8003440 <HAL_DMA_IRQHandler>
 8001e6e:	bf00      	nop
 8001e70:	20000238 	.word	0x20000238

08001e74 <ADC1_2_IRQHandler>:
 8001e74:	b508      	push	{r3, lr}
 8001e76:	4804      	ldr	r0, [pc, #16]	; (8001e88 <ADC1_2_IRQHandler+0x14>)
 8001e78:	f000 fdba 	bl	80029f0 <HAL_ADC_IRQHandler>
 8001e7c:	e8bd 4008 	ldmia.w	sp!, {r3, lr}
 8001e80:	4802      	ldr	r0, [pc, #8]	; (8001e8c <ADC1_2_IRQHandler+0x18>)
 8001e82:	f000 bdb5 	b.w	80029f0 <HAL_ADC_IRQHandler>
 8001e86:	bf00      	nop
 8001e88:	200000b4 	.word	0x200000b4
 8001e8c:	20000104 	.word	0x20000104

08001e90 <TIM1_BRK_TIM15_IRQHandler>:
 8001e90:	b508      	push	{r3, lr}
 8001e92:	4804      	ldr	r0, [pc, #16]	; (8001ea4 <TIM1_BRK_TIM15_IRQHandler+0x14>)
 8001e94:	f003 fdc6 	bl	8005a24 <HAL_TIM_IRQHandler>
 8001e98:	e8bd 4008 	ldmia.w	sp!, {r3, lr}
 8001e9c:	4802      	ldr	r0, [pc, #8]	; (8001ea8 <TIM1_BRK_TIM15_IRQHandler+0x18>)
 8001e9e:	f003 bdc1 	b.w	8005a24 <HAL_TIM_IRQHandler>
 8001ea2:	bf00      	nop
 8001ea4:	200002f4 	.word	0x200002f4
 8001ea8:	20000340 	.word	0x20000340

08001eac <TIM2_IRQHandler>:
 8001eac:	4801      	ldr	r0, [pc, #4]	; (8001eb4 <TIM2_IRQHandler+0x8>)
 8001eae:	f003 bdb9 	b.w	8005a24 <HAL_TIM_IRQHandler>
 8001eb2:	bf00      	nop
 8001eb4:	2000038c 	.word	0x2000038c

08001eb8 <TIM3_IRQHandler>:
 8001eb8:	4801      	ldr	r0, [pc, #4]	; (8001ec0 <TIM3_IRQHandler+0x8>)
 8001eba:	f003 bdb3 	b.w	8005a24 <HAL_TIM_IRQHandler>
 8001ebe:	bf00      	nop
 8001ec0:	200003d8 	.word	0x200003d8

08001ec4 <I2C1_EV_IRQHandler>:
 8001ec4:	4801      	ldr	r0, [pc, #4]	; (8001ecc <I2C1_EV_IRQHandler+0x8>)
 8001ec6:	f002 b951 	b.w	800416c <HAL_I2C_EV_IRQHandler>
 8001eca:	bf00      	nop
 8001ecc:	2000027c 	.word	0x2000027c

08001ed0 <I2C1_ER_IRQHandler>:
 8001ed0:	4801      	ldr	r0, [pc, #4]	; (8001ed8 <I2C1_ER_IRQHandler+0x8>)
 8001ed2:	f002 bc46 	b.w	8004762 <HAL_I2C_ER_IRQHandler>
 8001ed6:	bf00      	nop
 8001ed8:	2000027c 	.word	0x2000027c

08001edc <USART2_IRQHandler>:
 8001edc:	4801      	ldr	r0, [pc, #4]	; (8001ee4 <USART2_IRQHandler+0x8>)
 8001ede:	f004 bc69 	b.w	80067b4 <HAL_UART_IRQHandler>
 8001ee2:	bf00      	nop
 8001ee4:	200004f8 	.word	0x200004f8

08001ee8 <EXTI15_10_IRQHandler>:
 8001ee8:	b508      	push	{r3, lr}
 8001eea:	f44f 5000 	mov.w	r0, #8192	; 0x2000
 8001eee:	f001 fc43 	bl	8003778 <HAL_GPIO_EXTI_IRQHandler>
 8001ef2:	e8bd 4008 	ldmia.w	sp!, {r3, lr}
 8001ef6:	f44f 4080 	mov.w	r0, #16384	; 0x4000
 8001efa:	f001 bc3d 	b.w	8003778 <HAL_GPIO_EXTI_IRQHandler>
	...

08001f00 <TIM8_BRK_IRQHandler>:
 8001f00:	4801      	ldr	r0, [pc, #4]	; (8001f08 <TIM8_BRK_IRQHandler+0x8>)
 8001f02:	f003 bd8f 	b.w	8005a24 <HAL_TIM_IRQHandler>
 8001f06:	bf00      	nop
 8001f08:	20000424 	.word	0x20000424

08001f0c <DMA2_Channel1_IRQHandler>:
 8001f0c:	4801      	ldr	r0, [pc, #4]	; (8001f14 <DMA2_Channel1_IRQHandler+0x8>)
 8001f0e:	f001 ba97 	b.w	8003440 <HAL_DMA_IRQHandler>
 8001f12:	bf00      	nop
 8001f14:	200001b0 	.word	0x200001b0

08001f18 <_sbrk>:
 8001f18:	4a0b      	ldr	r2, [pc, #44]	; (8001f48 <_sbrk+0x30>)
 8001f1a:	6811      	ldr	r1, [r2, #0]
 8001f1c:	b510      	push	{r4, lr}
 8001f1e:	4603      	mov	r3, r0
 8001f20:	b909      	cbnz	r1, 8001f26 <_sbrk+0xe>
 8001f22:	490a      	ldr	r1, [pc, #40]	; (8001f4c <_sbrk+0x34>)
 8001f24:	6011      	str	r1, [r2, #0]
 8001f26:	6810      	ldr	r0, [r2, #0]
 8001f28:	4909      	ldr	r1, [pc, #36]	; (8001f50 <_sbrk+0x38>)
 8001f2a:	4c0a      	ldr	r4, [pc, #40]	; (8001f54 <_sbrk+0x3c>)
 8001f2c:	4403      	add	r3, r0
 8001f2e:	1b09      	subs	r1, r1, r4
 8001f30:	428b      	cmp	r3, r1
 8001f32:	d906      	bls.n	8001f42 <_sbrk+0x2a>
 8001f34:	f004 ffda 	bl	8006eec <__errno>
 8001f38:	230c      	movs	r3, #12
 8001f3a:	6003      	str	r3, [r0, #0]
 8001f3c:	f04f 30ff 	mov.w	r0, #4294967295
 8001f40:	bd10      	pop	{r4, pc}
 8001f42:	6013      	str	r3, [r2, #0]
 8001f44:	e7fc      	b.n	8001f40 <_sbrk+0x28>
 8001f46:	bf00      	nop
 8001f48:	20000614 	.word	0x20000614
 8001f4c:	20000768 	.word	0x20000768
 8001f50:	2000a000 	.word	0x2000a000
 8001f54:	00000400 	.word	0x00000400

08001f58 <SystemInit>:
 8001f58:	4a03      	ldr	r2, [pc, #12]	; (8001f68 <SystemInit+0x10>)
 8001f5a:	f8d2 3088 	ldr.w	r3, [r2, #136]	; 0x88
 8001f5e:	f443 0370 	orr.w	r3, r3, #15728640	; 0xf00000
 8001f62:	f8c2 3088 	str.w	r3, [r2, #136]	; 0x88
 8001f66:	4770      	bx	lr
 8001f68:	e000ed00 	.word	0xe000ed00

08001f6c <Reset_Handler>:
 8001f6c:	f8df d034 	ldr.w	sp, [pc, #52]	; 8001fa4 <LoopForever+0x2>
 8001f70:	f7ff fff2 	bl	8001f58 <SystemInit>
 8001f74:	480c      	ldr	r0, [pc, #48]	; (8001fa8 <LoopForever+0x6>)
 8001f76:	490d      	ldr	r1, [pc, #52]	; (8001fac <LoopForever+0xa>)
 8001f78:	4a0d      	ldr	r2, [pc, #52]	; (8001fb0 <LoopForever+0xe>)
 8001f7a:	2300      	movs	r3, #0
 8001f7c:	e002      	b.n	8001f84 <LoopCopyDataInit>

08001f7e <CopyDataInit>:
 8001f7e:	58d4      	ldr	r4, [r2, r3]
 8001f80:	50c4      	str	r4, [r0, r3]
 8001f82:	3304      	adds	r3, #4

08001f84 <LoopCopyDataInit>:
 8001f84:	18c4      	adds	r4, r0, r3
 8001f86:	428c      	cmp	r4, r1
 8001f88:	d3f9      	bcc.n	8001f7e <CopyDataInit>
 8001f8a:	4a0a      	ldr	r2, [pc, #40]	; (8001fb4 <LoopForever+0x12>)
 8001f8c:	4c0a      	ldr	r4, [pc, #40]	; (8001fb8 <LoopForever+0x16>)
 8001f8e:	2300      	movs	r3, #0
 8001f90:	e001      	b.n	8001f96 <LoopFillZerobss>

08001f92 <FillZerobss>:
 8001f92:	6013      	str	r3, [r2, #0]
 8001f94:	3204      	adds	r2, #4

08001f96 <LoopFillZerobss>:
 8001f96:	42a2      	cmp	r2, r4
 8001f98:	d3fb      	bcc.n	8001f92 <FillZerobss>
 8001f9a:	f004 ffad 	bl	8006ef8 <__libc_init_array>
 8001f9e:	f7fe fc73 	bl	8000888 <main>

08001fa2 <LoopForever>:
 8001fa2:	e7fe      	b.n	8001fa2 <LoopForever>
 8001fa4:	2000a000 	.word	0x2000a000
 8001fa8:	20000000 	.word	0x20000000
 8001fac:	20000068 	.word	0x20000068
 8001fb0:	080078f8 	.word	0x080078f8
 8001fb4:	20000068 	.word	0x20000068
 8001fb8:	20000764 	.word	0x20000764

08001fbc <ADC3_IRQHandler>:
 8001fbc:	e7fe      	b.n	8001fbc <ADC3_IRQHandler>
	...

08001fc0 <HAL_InitTick>:
 8001fc0:	b538      	push	{r3, r4, r5, lr}
 8001fc2:	4b0e      	ldr	r3, [pc, #56]	; (8001ffc <HAL_InitTick+0x3c>)
 8001fc4:	781a      	ldrb	r2, [r3, #0]
 8001fc6:	f44f 737a 	mov.w	r3, #1000	; 0x3e8
 8001fca:	fbb3 f3f2 	udiv	r3, r3, r2
 8001fce:	4a0c      	ldr	r2, [pc, #48]	; (8002000 <HAL_InitTick+0x40>)
 8001fd0:	4605      	mov	r5, r0
 8001fd2:	6810      	ldr	r0, [r2, #0]
 8001fd4:	fbb0 f0f3 	udiv	r0, r0, r3
 8001fd8:	f001 f960 	bl	800329c <HAL_SYSTICK_Config>
 8001fdc:	4604      	mov	r4, r0
 8001fde:	b958      	cbnz	r0, 8001ff8 <HAL_InitTick+0x38>
 8001fe0:	2d0f      	cmp	r5, #15
 8001fe2:	d809      	bhi.n	8001ff8 <HAL_InitTick+0x38>
 8001fe4:	4602      	mov	r2, r0
 8001fe6:	4629      	mov	r1, r5
 8001fe8:	f04f 30ff 	mov.w	r0, #4294967295
 8001fec:	f001 f904 	bl	80031f8 <HAL_NVIC_SetPriority>
 8001ff0:	4b04      	ldr	r3, [pc, #16]	; (8002004 <HAL_InitTick+0x44>)
 8001ff2:	4620      	mov	r0, r4
 8001ff4:	601d      	str	r5, [r3, #0]
 8001ff6:	bd38      	pop	{r3, r4, r5, pc}
 8001ff8:	2001      	movs	r0, #1
 8001ffa:	e7fc      	b.n	8001ff6 <HAL_InitTick+0x36>
 8001ffc:	20000010 	.word	0x20000010
 8002000:	2000000c 	.word	0x2000000c
 8002004:	20000014 	.word	0x20000014

08002008 <HAL_Init>:
 8002008:	4a07      	ldr	r2, [pc, #28]	; (8002028 <HAL_Init+0x20>)
 800200a:	b508      	push	{r3, lr}
 800200c:	6813      	ldr	r3, [r2, #0]
 800200e:	f043 0310 	orr.w	r3, r3, #16
 8002012:	6013      	str	r3, [r2, #0]
 8002014:	2003      	movs	r0, #3
 8002016:	f001 f8dd 	bl	80031d4 <HAL_NVIC_SetPriorityGrouping>
 800201a:	200f      	movs	r0, #15
 800201c:	f7ff ffd0 	bl	8001fc0 <HAL_InitTick>
 8002020:	f7ff fc0c 	bl	800183c <HAL_MspInit>
 8002024:	2000      	movs	r0, #0
 8002026:	bd08      	pop	{r3, pc}
 8002028:	40022000 	.word	0x40022000

0800202c <HAL_IncTick>:
 800202c:	4a03      	ldr	r2, [pc, #12]	; (800203c <HAL_IncTick+0x10>)
 800202e:	4b04      	ldr	r3, [pc, #16]	; (8002040 <HAL_IncTick+0x14>)
 8002030:	6811      	ldr	r1, [r2, #0]
 8002032:	781b      	ldrb	r3, [r3, #0]
 8002034:	440b      	add	r3, r1
 8002036:	6013      	str	r3, [r2, #0]
 8002038:	4770      	bx	lr
 800203a:	bf00      	nop
 800203c:	20000618 	.word	0x20000618
 8002040:	20000010 	.word	0x20000010

08002044 <HAL_GetTick>:
 8002044:	4b01      	ldr	r3, [pc, #4]	; (800204c <HAL_GetTick+0x8>)
 8002046:	6818      	ldr	r0, [r3, #0]
 8002048:	4770      	bx	lr
 800204a:	bf00      	nop
 800204c:	20000618 	.word	0x20000618

08002050 <HAL_Delay>:
 8002050:	b538      	push	{r3, r4, r5, lr}
 8002052:	4604      	mov	r4, r0
 8002054:	f7ff fff6 	bl	8002044 <HAL_GetTick>
 8002058:	1c63      	adds	r3, r4, #1
 800205a:	bf1c      	itt	ne
 800205c:	4b05      	ldrne	r3, [pc, #20]	; (8002074 <HAL_Delay+0x24>)
 800205e:	781b      	ldrbne	r3, [r3, #0]
 8002060:	4605      	mov	r5, r0
 8002062:	bf18      	it	ne
 8002064:	18e4      	addne	r4, r4, r3
 8002066:	f7ff ffed 	bl	8002044 <HAL_GetTick>
 800206a:	1b43      	subs	r3, r0, r5
 800206c:	42a3      	cmp	r3, r4
 800206e:	d3fa      	bcc.n	8002066 <HAL_Delay+0x16>
 8002070:	bd38      	pop	{r3, r4, r5, pc}
 8002072:	bf00      	nop
 8002074:	20000010 	.word	0x20000010

08002078 <HAL_ADC_ConvHalfCpltCallback>:
 8002078:	4770      	bx	lr

0800207a <HAL_ADC_LevelOutOfWindowCallback>:
 800207a:	4770      	bx	lr

0800207c <HAL_ADC_ErrorCallback>:
 800207c:	4770      	bx	lr

0800207e <ADC_Disable>:
 800207e:	b538      	push	{r3, r4, r5, lr}
 8002080:	6803      	ldr	r3, [r0, #0]
 8002082:	4604      	mov	r4, r0
 8002084:	6898      	ldr	r0, [r3, #8]
 8002086:	f000 0003 	and.w	r0, r0, #3
 800208a:	2801      	cmp	r0, #1
 800208c:	d001      	beq.n	8002092 <ADC_Disable+0x14>
 800208e:	2000      	movs	r0, #0
 8002090:	bd38      	pop	{r3, r4, r5, pc}
 8002092:	681a      	ldr	r2, [r3, #0]
 8002094:	07d1      	lsls	r1, r2, #31
 8002096:	d5fa      	bpl.n	800208e <ADC_Disable+0x10>
 8002098:	689a      	ldr	r2, [r3, #8]
 800209a:	f002 020d 	and.w	r2, r2, #13
 800209e:	2a01      	cmp	r2, #1
 80020a0:	d11f      	bne.n	80020e2 <ADC_Disable+0x64>
 80020a2:	689a      	ldr	r2, [r3, #8]
 80020a4:	f042 0202 	orr.w	r2, r2, #2
 80020a8:	609a      	str	r2, [r3, #8]
 80020aa:	2203      	movs	r2, #3
 80020ac:	601a      	str	r2, [r3, #0]
 80020ae:	f7ff ffc9 	bl	8002044 <HAL_GetTick>
 80020b2:	4605      	mov	r5, r0
 80020b4:	6823      	ldr	r3, [r4, #0]
 80020b6:	689b      	ldr	r3, [r3, #8]
 80020b8:	07db      	lsls	r3, r3, #31
 80020ba:	d5e8      	bpl.n	800208e <ADC_Disable+0x10>
 80020bc:	f7ff ffc2 	bl	8002044 <HAL_GetTick>
 80020c0:	1b40      	subs	r0, r0, r5
 80020c2:	2802      	cmp	r0, #2
 80020c4:	d9f6      	bls.n	80020b4 <ADC_Disable+0x36>
 80020c6:	6823      	ldr	r3, [r4, #0]
 80020c8:	689b      	ldr	r3, [r3, #8]
 80020ca:	07da      	lsls	r2, r3, #31
 80020cc:	d5f2      	bpl.n	80020b4 <ADC_Disable+0x36>
 80020ce:	6c23      	ldr	r3, [r4, #64]	; 0x40
 80020d0:	f043 0310 	orr.w	r3, r3, #16
 80020d4:	6423      	str	r3, [r4, #64]	; 0x40
 80020d6:	6c63      	ldr	r3, [r4, #68]	; 0x44
 80020d8:	f043 0301 	orr.w	r3, r3, #1
 80020dc:	6463      	str	r3, [r4, #68]	; 0x44
 80020de:	2001      	movs	r0, #1
 80020e0:	e7d6      	b.n	8002090 <ADC_Disable+0x12>
 80020e2:	6c23      	ldr	r3, [r4, #64]	; 0x40
 80020e4:	f043 0310 	orr.w	r3, r3, #16
 80020e8:	6423      	str	r3, [r4, #64]	; 0x40
 80020ea:	6c63      	ldr	r3, [r4, #68]	; 0x44
 80020ec:	f043 0301 	orr.w	r3, r3, #1
 80020f0:	6463      	str	r3, [r4, #68]	; 0x44
 80020f2:	e7cd      	b.n	8002090 <ADC_Disable+0x12>

080020f4 <ADC_ConversionStop>:
 80020f4:	6803      	ldr	r3, [r0, #0]
 80020f6:	689a      	ldr	r2, [r3, #8]
 80020f8:	f012 0f0c 	tst.w	r2, #12
 80020fc:	b570      	push	{r4, r5, r6, lr}
 80020fe:	4604      	mov	r4, r0
 8002100:	d101      	bne.n	8002106 <ADC_ConversionStop+0x12>
 8002102:	2000      	movs	r0, #0
 8002104:	bd70      	pop	{r4, r5, r6, pc}
 8002106:	68da      	ldr	r2, [r3, #12]
 8002108:	0190      	lsls	r0, r2, #6
 800210a:	d525      	bpl.n	8002158 <ADC_ConversionStop+0x64>
 800210c:	8b20      	ldrh	r0, [r4, #24]
 800210e:	f240 1201 	movw	r2, #257	; 0x101
 8002112:	4290      	cmp	r0, r2
 8002114:	d120      	bne.n	8002158 <ADC_ConversionStop+0x64>
 8002116:	4a23      	ldr	r2, [pc, #140]	; (80021a4 <ADC_ConversionStop+0xb0>)
 8002118:	6819      	ldr	r1, [r3, #0]
 800211a:	0649      	lsls	r1, r1, #25
 800211c:	d510      	bpl.n	8002140 <ADC_ConversionStop+0x4c>
 800211e:	2240      	movs	r2, #64	; 0x40
 8002120:	601a      	str	r2, [r3, #0]
 8002122:	210c      	movs	r1, #12
 8002124:	689a      	ldr	r2, [r3, #8]
 8002126:	0752      	lsls	r2, r2, #29
 8002128:	d506      	bpl.n	8002138 <ADC_ConversionStop+0x44>
 800212a:	689a      	ldr	r2, [r3, #8]
 800212c:	0796      	lsls	r6, r2, #30
 800212e:	bf5e      	ittt	pl
 8002130:	689a      	ldrpl	r2, [r3, #8]
 8002132:	f042 0210 	orrpl.w	r2, r2, #16
 8002136:	609a      	strpl	r2, [r3, #8]
 8002138:	290c      	cmp	r1, #12
 800213a:	d10f      	bne.n	800215c <ADC_ConversionStop+0x68>
 800213c:	2504      	movs	r5, #4
 800213e:	e01d      	b.n	800217c <ADC_ConversionStop+0x88>
 8002140:	3a01      	subs	r2, #1
 8002142:	d1e9      	bne.n	8002118 <ADC_ConversionStop+0x24>
 8002144:	6c23      	ldr	r3, [r4, #64]	; 0x40
 8002146:	f043 0310 	orr.w	r3, r3, #16
 800214a:	6423      	str	r3, [r4, #64]	; 0x40
 800214c:	6c63      	ldr	r3, [r4, #68]	; 0x44
 800214e:	f043 0301 	orr.w	r3, r3, #1
 8002152:	6463      	str	r3, [r4, #68]	; 0x44
 8002154:	2001      	movs	r0, #1
 8002156:	e7d5      	b.n	8002104 <ADC_ConversionStop+0x10>
 8002158:	2960      	cmp	r1, #96	; 0x60
 800215a:	d1e3      	bne.n	8002124 <ADC_ConversionStop+0x30>
 800215c:	689a      	ldr	r2, [r3, #8]
 800215e:	0710      	lsls	r0, r2, #28
 8002160:	d506      	bpl.n	8002170 <ADC_ConversionStop+0x7c>
 8002162:	689a      	ldr	r2, [r3, #8]
 8002164:	0792      	lsls	r2, r2, #30
 8002166:	bf5e      	ittt	pl
 8002168:	689a      	ldrpl	r2, [r3, #8]
 800216a:	f042 0220 	orrpl.w	r2, r2, #32
 800216e:	609a      	strpl	r2, [r3, #8]
 8002170:	2960      	cmp	r1, #96	; 0x60
 8002172:	d014      	beq.n	800219e <ADC_ConversionStop+0xaa>
 8002174:	296c      	cmp	r1, #108	; 0x6c
 8002176:	bf14      	ite	ne
 8002178:	2504      	movne	r5, #4
 800217a:	250c      	moveq	r5, #12
 800217c:	f7ff ff62 	bl	8002044 <HAL_GetTick>
 8002180:	4606      	mov	r6, r0
 8002182:	6823      	ldr	r3, [r4, #0]
 8002184:	689b      	ldr	r3, [r3, #8]
 8002186:	422b      	tst	r3, r5
 8002188:	d0bb      	beq.n	8002102 <ADC_ConversionStop+0xe>
 800218a:	f7ff ff5b 	bl	8002044 <HAL_GetTick>
 800218e:	1b80      	subs	r0, r0, r6
 8002190:	280b      	cmp	r0, #11
 8002192:	d9f6      	bls.n	8002182 <ADC_ConversionStop+0x8e>
 8002194:	6823      	ldr	r3, [r4, #0]
 8002196:	689b      	ldr	r3, [r3, #8]
 8002198:	422b      	tst	r3, r5
 800219a:	d0f2      	beq.n	8002182 <ADC_ConversionStop+0x8e>
 800219c:	e7d2      	b.n	8002144 <ADC_ConversionStop+0x50>
 800219e:	2508      	movs	r5, #8
 80021a0:	e7ec      	b.n	800217c <ADC_ConversionStop+0x88>
 80021a2:	bf00      	nop
 80021a4:	00099401 	.word	0x00099401

080021a8 <ADC_Enable>:
 80021a8:	b538      	push	{r3, r4, r5, lr}
 80021aa:	6803      	ldr	r3, [r0, #0]
 80021ac:	689a      	ldr	r2, [r3, #8]
 80021ae:	f002 0203 	and.w	r2, r2, #3
 80021b2:	2a01      	cmp	r2, #1
 80021b4:	4604      	mov	r4, r0
 80021b6:	d104      	bne.n	80021c2 <ADC_Enable+0x1a>
 80021b8:	681a      	ldr	r2, [r3, #0]
 80021ba:	07d1      	lsls	r1, r2, #31
 80021bc:	d501      	bpl.n	80021c2 <ADC_Enable+0x1a>
 80021be:	2000      	movs	r0, #0
 80021c0:	bd38      	pop	{r3, r4, r5, pc}
 80021c2:	6899      	ldr	r1, [r3, #8]
 80021c4:	4a10      	ldr	r2, [pc, #64]	; (8002208 <ADC_Enable+0x60>)
 80021c6:	4211      	tst	r1, r2
 80021c8:	d009      	beq.n	80021de <ADC_Enable+0x36>
 80021ca:	6c23      	ldr	r3, [r4, #64]	; 0x40
 80021cc:	f043 0310 	orr.w	r3, r3, #16
 80021d0:	6423      	str	r3, [r4, #64]	; 0x40
 80021d2:	6c63      	ldr	r3, [r4, #68]	; 0x44
 80021d4:	f043 0301 	orr.w	r3, r3, #1
 80021d8:	6463      	str	r3, [r4, #68]	; 0x44
 80021da:	2001      	movs	r0, #1
 80021dc:	e7f0      	b.n	80021c0 <ADC_Enable+0x18>
 80021de:	689a      	ldr	r2, [r3, #8]
 80021e0:	f042 0201 	orr.w	r2, r2, #1
 80021e4:	609a      	str	r2, [r3, #8]
 80021e6:	f7ff ff2d 	bl	8002044 <HAL_GetTick>
 80021ea:	4605      	mov	r5, r0
 80021ec:	6823      	ldr	r3, [r4, #0]
 80021ee:	681b      	ldr	r3, [r3, #0]
 80021f0:	07db      	lsls	r3, r3, #31
 80021f2:	d4e4      	bmi.n	80021be <ADC_Enable+0x16>
 80021f4:	f7ff ff26 	bl	8002044 <HAL_GetTick>
 80021f8:	1b40      	subs	r0, r0, r5
 80021fa:	2802      	cmp	r0, #2
 80021fc:	d9f6      	bls.n	80021ec <ADC_Enable+0x44>
 80021fe:	6823      	ldr	r3, [r4, #0]
 8002200:	681b      	ldr	r3, [r3, #0]
 8002202:	07da      	lsls	r2, r3, #31
 8002204:	d4f2      	bmi.n	80021ec <ADC_Enable+0x44>
 8002206:	e7e0      	b.n	80021ca <ADC_Enable+0x22>
 8002208:	8000003f 	.word	0x8000003f

0800220c <ADC_DMAError>:
 800220c:	6a40      	ldr	r0, [r0, #36]	; 0x24
 800220e:	6c03      	ldr	r3, [r0, #64]	; 0x40
 8002210:	f043 0340 	orr.w	r3, r3, #64	; 0x40
 8002214:	6403      	str	r3, [r0, #64]	; 0x40
 8002216:	6c43      	ldr	r3, [r0, #68]	; 0x44
 8002218:	f043 0304 	orr.w	r3, r3, #4
 800221c:	6443      	str	r3, [r0, #68]	; 0x44
 800221e:	f7ff bf2d 	b.w	800207c <HAL_ADC_ErrorCallback>

08002222 <ADC_DMAHalfConvCplt>:
 8002222:	6a40      	ldr	r0, [r0, #36]	; 0x24
 8002224:	f7ff bf28 	b.w	8002078 <HAL_ADC_ConvHalfCpltCallback>

08002228 <ADC_DMAConvCplt>:
 8002228:	6a43      	ldr	r3, [r0, #36]	; 0x24
 800222a:	6c1a      	ldr	r2, [r3, #64]	; 0x40
 800222c:	f012 0f50 	tst.w	r2, #80	; 0x50
 8002230:	d118      	bne.n	8002264 <ADC_DMAConvCplt+0x3c>
 8002232:	6c1a      	ldr	r2, [r3, #64]	; 0x40
 8002234:	f442 7200 	orr.w	r2, r2, #512	; 0x200
 8002238:	641a      	str	r2, [r3, #64]	; 0x40
 800223a:	681a      	ldr	r2, [r3, #0]
 800223c:	68d2      	ldr	r2, [r2, #12]
 800223e:	f412 6f40 	tst.w	r2, #3072	; 0xc00
 8002242:	d10c      	bne.n	800225e <ADC_DMAConvCplt+0x36>
 8002244:	7e5a      	ldrb	r2, [r3, #25]
 8002246:	b952      	cbnz	r2, 800225e <ADC_DMAConvCplt+0x36>
 8002248:	6c1a      	ldr	r2, [r3, #64]	; 0x40
 800224a:	f422 7280 	bic.w	r2, r2, #256	; 0x100
 800224e:	641a      	str	r2, [r3, #64]	; 0x40
 8002250:	6c1a      	ldr	r2, [r3, #64]	; 0x40
 8002252:	04d2      	lsls	r2, r2, #19
 8002254:	bf5e      	ittt	pl
 8002256:	6c1a      	ldrpl	r2, [r3, #64]	; 0x40
 8002258:	f042 0201 	orrpl.w	r2, r2, #1
 800225c:	641a      	strpl	r2, [r3, #64]	; 0x40
 800225e:	4618      	mov	r0, r3
 8002260:	f7ff bade 	b.w	8001820 <HAL_ADC_ConvCpltCallback>
 8002264:	6b9b      	ldr	r3, [r3, #56]	; 0x38
 8002266:	6b1b      	ldr	r3, [r3, #48]	; 0x30
 8002268:	4718      	bx	r3
	...

0800226c <HAL_ADC_Init>:
 800226c:	b537      	push	{r0, r1, r2, r4, r5, lr}
 800226e:	2100      	movs	r1, #0
 8002270:	9101      	str	r1, [sp, #4]
 8002272:	4604      	mov	r4, r0
 8002274:	2800      	cmp	r0, #0
 8002276:	f000 8104 	beq.w	8002482 <HAL_ADC_Init+0x216>
 800227a:	6c03      	ldr	r3, [r0, #64]	; 0x40
 800227c:	06da      	lsls	r2, r3, #27
 800227e:	d416      	bmi.n	80022ae <HAL_ADC_Init+0x42>
 8002280:	6c03      	ldr	r3, [r0, #64]	; 0x40
 8002282:	2b00      	cmp	r3, #0
 8002284:	f000 80aa 	beq.w	80023dc <HAL_ADC_Init+0x170>
 8002288:	2100      	movs	r1, #0
 800228a:	6823      	ldr	r3, [r4, #0]
 800228c:	689a      	ldr	r2, [r3, #8]
 800228e:	00d2      	lsls	r2, r2, #3
 8002290:	d502      	bpl.n	8002298 <HAL_ADC_Init+0x2c>
 8002292:	689b      	ldr	r3, [r3, #8]
 8002294:	009d      	lsls	r5, r3, #2
 8002296:	d50a      	bpl.n	80022ae <HAL_ADC_Init+0x42>
 8002298:	6c23      	ldr	r3, [r4, #64]	; 0x40
 800229a:	f023 0312 	bic.w	r3, r3, #18
 800229e:	f043 0310 	orr.w	r3, r3, #16
 80022a2:	6423      	str	r3, [r4, #64]	; 0x40
 80022a4:	6c63      	ldr	r3, [r4, #68]	; 0x44
 80022a6:	f043 0301 	orr.w	r3, r3, #1
 80022aa:	6463      	str	r3, [r4, #68]	; 0x44
 80022ac:	2101      	movs	r1, #1
 80022ae:	6c23      	ldr	r3, [r4, #64]	; 0x40
 80022b0:	06d8      	lsls	r0, r3, #27
 80022b2:	f100 80e0 	bmi.w	8002476 <HAL_ADC_Init+0x20a>
 80022b6:	2900      	cmp	r1, #0
 80022b8:	f040 80dd 	bne.w	8002476 <HAL_ADC_Init+0x20a>
 80022bc:	6823      	ldr	r3, [r4, #0]
 80022be:	689a      	ldr	r2, [r3, #8]
 80022c0:	0752      	lsls	r2, r2, #29
 80022c2:	f100 80d8 	bmi.w	8002476 <HAL_ADC_Init+0x20a>
 80022c6:	6c22      	ldr	r2, [r4, #64]	; 0x40
 80022c8:	f422 7281 	bic.w	r2, r2, #258	; 0x102
 80022cc:	f042 0202 	orr.w	r2, r2, #2
 80022d0:	f1b3 4fa0 	cmp.w	r3, #1342177280	; 0x50000000
 80022d4:	6422      	str	r2, [r4, #64]	; 0x40
 80022d6:	4a6f      	ldr	r2, [pc, #444]	; (8002494 <HAL_ADC_Init+0x228>)
 80022d8:	d004      	beq.n	80022e4 <HAL_ADC_Init+0x78>
 80022da:	4293      	cmp	r3, r2
 80022dc:	f040 80d3 	bne.w	8002486 <HAL_ADC_Init+0x21a>
 80022e0:	f04f 42a0 	mov.w	r2, #1342177280	; 0x50000000
 80022e4:	486c      	ldr	r0, [pc, #432]	; (8002498 <HAL_ADC_Init+0x22c>)
 80022e6:	689d      	ldr	r5, [r3, #8]
 80022e8:	f005 0503 	and.w	r5, r5, #3
 80022ec:	2d01      	cmp	r5, #1
 80022ee:	d102      	bne.n	80022f6 <HAL_ADC_Init+0x8a>
 80022f0:	681d      	ldr	r5, [r3, #0]
 80022f2:	07ed      	lsls	r5, r5, #31
 80022f4:	d40e      	bmi.n	8002314 <HAL_ADC_Init+0xa8>
 80022f6:	b13a      	cbz	r2, 8002308 <HAL_ADC_Init+0x9c>
 80022f8:	6895      	ldr	r5, [r2, #8]
 80022fa:	f005 0503 	and.w	r5, r5, #3
 80022fe:	2d01      	cmp	r5, #1
 8002300:	d102      	bne.n	8002308 <HAL_ADC_Init+0x9c>
 8002302:	6812      	ldr	r2, [r2, #0]
 8002304:	07d2      	lsls	r2, r2, #31
 8002306:	d405      	bmi.n	8002314 <HAL_ADC_Init+0xa8>
 8002308:	6882      	ldr	r2, [r0, #8]
 800230a:	6865      	ldr	r5, [r4, #4]
 800230c:	f422 3240 	bic.w	r2, r2, #196608	; 0x30000
 8002310:	432a      	orrs	r2, r5
 8002312:	6082      	str	r2, [r0, #8]
 8002314:	e9d4 0202 	ldrd	r0, r2, [r4, #8]
 8002318:	4302      	orrs	r2, r0
 800231a:	6b60      	ldr	r0, [r4, #52]	; 0x34
 800231c:	7e65      	ldrb	r5, [r4, #25]
 800231e:	3801      	subs	r0, #1
 8002320:	bf18      	it	ne
 8002322:	2001      	movne	r0, #1
 8002324:	ea42 3245 	orr.w	r2, r2, r5, lsl #13
 8002328:	ea42 3200 	orr.w	r2, r2, r0, lsl #12
 800232c:	f894 0020 	ldrb.w	r0, [r4, #32]
 8002330:	2801      	cmp	r0, #1
 8002332:	d108      	bne.n	8002346 <HAL_ADC_Init+0xda>
 8002334:	2d00      	cmp	r5, #0
 8002336:	f040 808d 	bne.w	8002454 <HAL_ADC_Init+0x1e8>
 800233a:	6a60      	ldr	r0, [r4, #36]	; 0x24
 800233c:	3801      	subs	r0, #1
 800233e:	ea42 4040 	orr.w	r0, r2, r0, lsl #17
 8002342:	f440 3280 	orr.w	r2, r0, #65536	; 0x10000
 8002346:	6aa0      	ldr	r0, [r4, #40]	; 0x28
 8002348:	2801      	cmp	r0, #1
 800234a:	d017      	beq.n	800237c <HAL_ADC_Init+0x110>
 800234c:	4d53      	ldr	r5, [pc, #332]	; (800249c <HAL_ADC_Init+0x230>)
 800234e:	42ab      	cmp	r3, r5
 8002350:	d003      	beq.n	800235a <HAL_ADC_Init+0xee>
 8002352:	f505 7580 	add.w	r5, r5, #256	; 0x100
 8002356:	42ab      	cmp	r3, r5
 8002358:	d10c      	bne.n	8002374 <HAL_ADC_Init+0x108>
 800235a:	f5b0 7f30 	cmp.w	r0, #704	; 0x2c0
 800235e:	f000 8084 	beq.w	800246a <HAL_ADC_Init+0x1fe>
 8002362:	f5b0 7f80 	cmp.w	r0, #256	; 0x100
 8002366:	f000 8083 	beq.w	8002470 <HAL_ADC_Init+0x204>
 800236a:	f5b0 7fe0 	cmp.w	r0, #448	; 0x1c0
 800236e:	bf08      	it	eq
 8002370:	f44f 7080 	moveq.w	r0, #256	; 0x100
 8002374:	6ae5      	ldr	r5, [r4, #44]	; 0x2c
 8002376:	4315      	orrs	r5, r2
 8002378:	ea45 0200 	orr.w	r2, r5, r0
 800237c:	6898      	ldr	r0, [r3, #8]
 800237e:	f010 0f0c 	tst.w	r0, #12
 8002382:	d10c      	bne.n	800239e <HAL_ADC_Init+0x132>
 8002384:	68d8      	ldr	r0, [r3, #12]
 8002386:	f420 4080 	bic.w	r0, r0, #16384	; 0x4000
 800238a:	f020 0002 	bic.w	r0, r0, #2
 800238e:	60d8      	str	r0, [r3, #12]
 8002390:	f894 0030 	ldrb.w	r0, [r4, #48]	; 0x30
 8002394:	7e25      	ldrb	r5, [r4, #24]
 8002396:	0040      	lsls	r0, r0, #1
 8002398:	ea40 3085 	orr.w	r0, r0, r5, lsl #14
 800239c:	4302      	orrs	r2, r0
 800239e:	68dd      	ldr	r5, [r3, #12]
 80023a0:	483f      	ldr	r0, [pc, #252]	; (80024a0 <HAL_ADC_Init+0x234>)
 80023a2:	4028      	ands	r0, r5
 80023a4:	4310      	orrs	r0, r2
 80023a6:	6922      	ldr	r2, [r4, #16]
 80023a8:	60d8      	str	r0, [r3, #12]
 80023aa:	2a01      	cmp	r2, #1
 80023ac:	bf05      	ittet	eq
 80023ae:	6b18      	ldreq	r0, [r3, #48]	; 0x30
 80023b0:	69e2      	ldreq	r2, [r4, #28]
 80023b2:	6b1a      	ldrne	r2, [r3, #48]	; 0x30
 80023b4:	f102 32ff 	addeq.w	r2, r2, #4294967295
 80023b8:	bf06      	itte	eq
 80023ba:	f020 000f 	biceq.w	r0, r0, #15
 80023be:	4302      	orreq	r2, r0
 80023c0:	f022 020f 	bicne.w	r2, r2, #15
 80023c4:	631a      	str	r2, [r3, #48]	; 0x30
 80023c6:	2300      	movs	r3, #0
 80023c8:	6463      	str	r3, [r4, #68]	; 0x44
 80023ca:	6c23      	ldr	r3, [r4, #64]	; 0x40
 80023cc:	f023 0303 	bic.w	r3, r3, #3
 80023d0:	f043 0301 	orr.w	r3, r3, #1
 80023d4:	6423      	str	r3, [r4, #64]	; 0x40
 80023d6:	4608      	mov	r0, r1
 80023d8:	b003      	add	sp, #12
 80023da:	bd30      	pop	{r4, r5, pc}
 80023dc:	e9c0 3312 	strd	r3, r3, [r0, #72]	; 0x48
 80023e0:	6443      	str	r3, [r0, #68]	; 0x44
 80023e2:	f880 303c 	strb.w	r3, [r0, #60]	; 0x3c
 80023e6:	f7ff fa4b 	bl	8001880 <HAL_ADC_MspInit>
 80023ea:	6823      	ldr	r3, [r4, #0]
 80023ec:	689b      	ldr	r3, [r3, #8]
 80023ee:	00db      	lsls	r3, r3, #3
 80023f0:	f53f af4a 	bmi.w	8002288 <HAL_ADC_Init+0x1c>
 80023f4:	4620      	mov	r0, r4
 80023f6:	f7ff fe42 	bl	800207e <ADC_Disable>
 80023fa:	6c23      	ldr	r3, [r4, #64]	; 0x40
 80023fc:	06dd      	lsls	r5, r3, #27
 80023fe:	4601      	mov	r1, r0
 8002400:	f53f af43 	bmi.w	800228a <HAL_ADC_Init+0x1e>
 8002404:	2800      	cmp	r0, #0
 8002406:	f47f af40 	bne.w	800228a <HAL_ADC_Init+0x1e>
 800240a:	6c23      	ldr	r3, [r4, #64]	; 0x40
 800240c:	6822      	ldr	r2, [r4, #0]
 800240e:	f423 5388 	bic.w	r3, r3, #4352	; 0x1100
 8002412:	f023 0302 	bic.w	r3, r3, #2
 8002416:	f043 0302 	orr.w	r3, r3, #2
 800241a:	6423      	str	r3, [r4, #64]	; 0x40
 800241c:	6893      	ldr	r3, [r2, #8]
 800241e:	f023 5340 	bic.w	r3, r3, #805306368	; 0x30000000
 8002422:	6093      	str	r3, [r2, #8]
 8002424:	6893      	ldr	r3, [r2, #8]
 8002426:	f043 5380 	orr.w	r3, r3, #268435456	; 0x10000000
 800242a:	6093      	str	r3, [r2, #8]
 800242c:	4b1d      	ldr	r3, [pc, #116]	; (80024a4 <HAL_ADC_Init+0x238>)
 800242e:	4a1e      	ldr	r2, [pc, #120]	; (80024a8 <HAL_ADC_Init+0x23c>)
 8002430:	681b      	ldr	r3, [r3, #0]
 8002432:	fbb3 f3f2 	udiv	r3, r3, r2
 8002436:	220a      	movs	r2, #10
 8002438:	4353      	muls	r3, r2
 800243a:	9301      	str	r3, [sp, #4]
 800243c:	9b01      	ldr	r3, [sp, #4]
 800243e:	2b00      	cmp	r3, #0
 8002440:	f43f af22 	beq.w	8002288 <HAL_ADC_Init+0x1c>
 8002444:	9b01      	ldr	r3, [sp, #4]
 8002446:	3b01      	subs	r3, #1
 8002448:	e7f7      	b.n	800243a <HAL_ADC_Init+0x1ce>
 800244a:	4283      	cmp	r3, r0
 800244c:	bf18      	it	ne
 800244e:	2200      	movne	r2, #0
 8002450:	4816      	ldr	r0, [pc, #88]	; (80024ac <HAL_ADC_Init+0x240>)
 8002452:	e748      	b.n	80022e6 <HAL_ADC_Init+0x7a>
 8002454:	6c20      	ldr	r0, [r4, #64]	; 0x40
 8002456:	f020 0022 	bic.w	r0, r0, #34	; 0x22
 800245a:	f040 0020 	orr.w	r0, r0, #32
 800245e:	6420      	str	r0, [r4, #64]	; 0x40
 8002460:	6c60      	ldr	r0, [r4, #68]	; 0x44
 8002462:	f040 0001 	orr.w	r0, r0, #1
 8002466:	6460      	str	r0, [r4, #68]	; 0x44
 8002468:	e76d      	b.n	8002346 <HAL_ADC_Init+0xda>
 800246a:	f44f 70e0 	mov.w	r0, #448	; 0x1c0
 800246e:	e781      	b.n	8002374 <HAL_ADC_Init+0x108>
 8002470:	f44f 7030 	mov.w	r0, #704	; 0x2c0
 8002474:	e77e      	b.n	8002374 <HAL_ADC_Init+0x108>
 8002476:	6c23      	ldr	r3, [r4, #64]	; 0x40
 8002478:	f023 0312 	bic.w	r3, r3, #18
 800247c:	f043 0310 	orr.w	r3, r3, #16
 8002480:	6423      	str	r3, [r4, #64]	; 0x40
 8002482:	2101      	movs	r1, #1
 8002484:	e7a7      	b.n	80023d6 <HAL_ADC_Init+0x16a>
 8002486:	4a05      	ldr	r2, [pc, #20]	; (800249c <HAL_ADC_Init+0x230>)
 8002488:	4809      	ldr	r0, [pc, #36]	; (80024b0 <HAL_ADC_Init+0x244>)
 800248a:	4293      	cmp	r3, r2
 800248c:	d1dd      	bne.n	800244a <HAL_ADC_Init+0x1de>
 800248e:	4602      	mov	r2, r0
 8002490:	e7de      	b.n	8002450 <HAL_ADC_Init+0x1e4>
 8002492:	bf00      	nop
 8002494:	50000100 	.word	0x50000100
 8002498:	50000300 	.word	0x50000300
 800249c:	50000400 	.word	0x50000400
 80024a0:	fff0c007 	.word	0xfff0c007
 80024a4:	2000000c 	.word	0x2000000c
 80024a8:	000f4240 	.word	0x000f4240
 80024ac:	50000700 	.word	0x50000700
 80024b0:	50000500 	.word	0x50000500

080024b4 <HAL_ADC_Start>:
 80024b4:	b538      	push	{r3, r4, r5, lr}
 80024b6:	6803      	ldr	r3, [r0, #0]
 80024b8:	689d      	ldr	r5, [r3, #8]
 80024ba:	f015 0504 	ands.w	r5, r5, #4
 80024be:	4604      	mov	r4, r0
 80024c0:	f040 8095 	bne.w	80025ee <HAL_ADC_Start+0x13a>
 80024c4:	f890 303c 	ldrb.w	r3, [r0, #60]	; 0x3c
 80024c8:	2b01      	cmp	r3, #1
 80024ca:	f000 8090 	beq.w	80025ee <HAL_ADC_Start+0x13a>
 80024ce:	2301      	movs	r3, #1
 80024d0:	f880 303c 	strb.w	r3, [r0, #60]	; 0x3c
 80024d4:	f7ff fe68 	bl	80021a8 <ADC_Enable>
 80024d8:	2800      	cmp	r0, #0
 80024da:	f040 8085 	bne.w	80025e8 <HAL_ADC_Start+0x134>
 80024de:	6c23      	ldr	r3, [r4, #64]	; 0x40
 80024e0:	f423 6370 	bic.w	r3, r3, #3840	; 0xf00
 80024e4:	f023 0301 	bic.w	r3, r3, #1
 80024e8:	f443 7380 	orr.w	r3, r3, #256	; 0x100
 80024ec:	6423      	str	r3, [r4, #64]	; 0x40
 80024ee:	6823      	ldr	r3, [r4, #0]
 80024f0:	f1b3 4fa0 	cmp.w	r3, #1342177280	; 0x50000000
 80024f4:	d002      	beq.n	80024fc <HAL_ADC_Start+0x48>
 80024f6:	4a3f      	ldr	r2, [pc, #252]	; (80025f4 <HAL_ADC_Start+0x140>)
 80024f8:	4293      	cmp	r3, r2
 80024fa:	d114      	bne.n	8002526 <HAL_ADC_Start+0x72>
 80024fc:	4a3e      	ldr	r2, [pc, #248]	; (80025f8 <HAL_ADC_Start+0x144>)
 80024fe:	6892      	ldr	r2, [r2, #8]
 8002500:	06d1      	lsls	r1, r2, #27
 8002502:	d002      	beq.n	800250a <HAL_ADC_Start+0x56>
 8002504:	f1b3 4fa0 	cmp.w	r3, #1342177280	; 0x50000000
 8002508:	d111      	bne.n	800252e <HAL_ADC_Start+0x7a>
 800250a:	6c22      	ldr	r2, [r4, #64]	; 0x40
 800250c:	f422 1280 	bic.w	r2, r2, #1048576	; 0x100000
 8002510:	6422      	str	r2, [r4, #64]	; 0x40
 8002512:	68da      	ldr	r2, [r3, #12]
 8002514:	0195      	lsls	r5, r2, #6
 8002516:	d51c      	bpl.n	8002552 <HAL_ADC_Start+0x9e>
 8002518:	6c22      	ldr	r2, [r4, #64]	; 0x40
 800251a:	f422 5240 	bic.w	r2, r2, #12288	; 0x3000
 800251e:	f442 5280 	orr.w	r2, r2, #4096	; 0x1000
 8002522:	6422      	str	r2, [r4, #64]	; 0x40
 8002524:	e015      	b.n	8002552 <HAL_ADC_Start+0x9e>
 8002526:	4a35      	ldr	r2, [pc, #212]	; (80025fc <HAL_ADC_Start+0x148>)
 8002528:	6892      	ldr	r2, [r2, #8]
 800252a:	06d2      	lsls	r2, r2, #27
 800252c:	d0ed      	beq.n	800250a <HAL_ADC_Start+0x56>
 800252e:	4934      	ldr	r1, [pc, #208]	; (8002600 <HAL_ADC_Start+0x14c>)
 8002530:	428b      	cmp	r3, r1
 8002532:	d0ea      	beq.n	800250a <HAL_ADC_Start+0x56>
 8002534:	6c22      	ldr	r2, [r4, #64]	; 0x40
 8002536:	f442 1280 	orr.w	r2, r2, #1048576	; 0x100000
 800253a:	6422      	str	r2, [r4, #64]	; 0x40
 800253c:	4a2d      	ldr	r2, [pc, #180]	; (80025f4 <HAL_ADC_Start+0x140>)
 800253e:	4293      	cmp	r3, r2
 8002540:	bf0a      	itet	eq
 8002542:	f04f 42a0 	moveq.w	r2, #1342177280	; 0x50000000
 8002546:	68ca      	ldrne	r2, [r1, #12]
 8002548:	68d2      	ldreq	r2, [r2, #12]
 800254a:	f3c2 6240 	ubfx	r2, r2, #25, #1
 800254e:	2a00      	cmp	r2, #0
 8002550:	d1e2      	bne.n	8002518 <HAL_ADC_Start+0x64>
 8002552:	6c22      	ldr	r2, [r4, #64]	; 0x40
 8002554:	f412 5280 	ands.w	r2, r2, #4096	; 0x1000
 8002558:	bf1c      	itt	ne
 800255a:	6c62      	ldrne	r2, [r4, #68]	; 0x44
 800255c:	f022 0206 	bicne.w	r2, r2, #6
 8002560:	6462      	str	r2, [r4, #68]	; 0x44
 8002562:	2200      	movs	r2, #0
 8002564:	f884 203c 	strb.w	r2, [r4, #60]	; 0x3c
 8002568:	f1b3 4fa0 	cmp.w	r3, #1342177280	; 0x50000000
 800256c:	f04f 021c 	mov.w	r2, #28
 8002570:	601a      	str	r2, [r3, #0]
 8002572:	d002      	beq.n	800257a <HAL_ADC_Start+0xc6>
 8002574:	4a1f      	ldr	r2, [pc, #124]	; (80025f4 <HAL_ADC_Start+0x140>)
 8002576:	4293      	cmp	r3, r2
 8002578:	d113      	bne.n	80025a2 <HAL_ADC_Start+0xee>
 800257a:	4a1f      	ldr	r2, [pc, #124]	; (80025f8 <HAL_ADC_Start+0x144>)
 800257c:	6891      	ldr	r1, [r2, #8]
 800257e:	06c9      	lsls	r1, r1, #27
 8002580:	d00a      	beq.n	8002598 <HAL_ADC_Start+0xe4>
 8002582:	f1b3 4fa0 	cmp.w	r3, #1342177280	; 0x50000000
 8002586:	d002      	beq.n	800258e <HAL_ADC_Start+0xda>
 8002588:	491a      	ldr	r1, [pc, #104]	; (80025f4 <HAL_ADC_Start+0x140>)
 800258a:	428b      	cmp	r3, r1
 800258c:	d10d      	bne.n	80025aa <HAL_ADC_Start+0xf6>
 800258e:	6892      	ldr	r2, [r2, #8]
 8002590:	f002 021f 	and.w	r2, r2, #31
 8002594:	2a05      	cmp	r2, #5
 8002596:	d118      	bne.n	80025ca <HAL_ADC_Start+0x116>
 8002598:	689a      	ldr	r2, [r3, #8]
 800259a:	f042 0204 	orr.w	r2, r2, #4
 800259e:	609a      	str	r2, [r3, #8]
 80025a0:	e012      	b.n	80025c8 <HAL_ADC_Start+0x114>
 80025a2:	4a16      	ldr	r2, [pc, #88]	; (80025fc <HAL_ADC_Start+0x148>)
 80025a4:	6892      	ldr	r2, [r2, #8]
 80025a6:	06d2      	lsls	r2, r2, #27
 80025a8:	d0f6      	beq.n	8002598 <HAL_ADC_Start+0xe4>
 80025aa:	4a14      	ldr	r2, [pc, #80]	; (80025fc <HAL_ADC_Start+0x148>)
 80025ac:	6892      	ldr	r2, [r2, #8]
 80025ae:	f002 021f 	and.w	r2, r2, #31
 80025b2:	2a05      	cmp	r2, #5
 80025b4:	d0f0      	beq.n	8002598 <HAL_ADC_Start+0xe4>
 80025b6:	4a11      	ldr	r2, [pc, #68]	; (80025fc <HAL_ADC_Start+0x148>)
 80025b8:	6892      	ldr	r2, [r2, #8]
 80025ba:	f002 021f 	and.w	r2, r2, #31
 80025be:	2a09      	cmp	r2, #9
 80025c0:	d0ea      	beq.n	8002598 <HAL_ADC_Start+0xe4>
 80025c2:	4a0f      	ldr	r2, [pc, #60]	; (8002600 <HAL_ADC_Start+0x14c>)
 80025c4:	4293      	cmp	r3, r2
 80025c6:	d0e7      	beq.n	8002598 <HAL_ADC_Start+0xe4>
 80025c8:	bd38      	pop	{r3, r4, r5, pc}
 80025ca:	f1b3 4fa0 	cmp.w	r3, #1342177280	; 0x50000000
 80025ce:	d002      	beq.n	80025d6 <HAL_ADC_Start+0x122>
 80025d0:	4a08      	ldr	r2, [pc, #32]	; (80025f4 <HAL_ADC_Start+0x140>)
 80025d2:	4293      	cmp	r3, r2
 80025d4:	d1ef      	bne.n	80025b6 <HAL_ADC_Start+0x102>
 80025d6:	4a08      	ldr	r2, [pc, #32]	; (80025f8 <HAL_ADC_Start+0x144>)
 80025d8:	6892      	ldr	r2, [r2, #8]
 80025da:	f002 021f 	and.w	r2, r2, #31
 80025de:	2a09      	cmp	r2, #9
 80025e0:	d0da      	beq.n	8002598 <HAL_ADC_Start+0xe4>
 80025e2:	f1b3 4fa0 	cmp.w	r3, #1342177280	; 0x50000000
 80025e6:	e7eb      	b.n	80025c0 <HAL_ADC_Start+0x10c>
 80025e8:	f884 503c 	strb.w	r5, [r4, #60]	; 0x3c
 80025ec:	e7ec      	b.n	80025c8 <HAL_ADC_Start+0x114>
 80025ee:	2002      	movs	r0, #2
 80025f0:	e7ea      	b.n	80025c8 <HAL_ADC_Start+0x114>
 80025f2:	bf00      	nop
 80025f4:	50000100 	.word	0x50000100
 80025f8:	50000300 	.word	0x50000300
 80025fc:	50000700 	.word	0x50000700
 8002600:	50000400 	.word	0x50000400

08002604 <HAL_ADC_Stop>:
 8002604:	b510      	push	{r4, lr}
 8002606:	f890 303c 	ldrb.w	r3, [r0, #60]	; 0x3c
 800260a:	2b01      	cmp	r3, #1
 800260c:	4604      	mov	r4, r0
 800260e:	d016      	beq.n	800263e <HAL_ADC_Stop+0x3a>
 8002610:	2301      	movs	r3, #1
 8002612:	f880 303c 	strb.w	r3, [r0, #60]	; 0x3c
 8002616:	216c      	movs	r1, #108	; 0x6c
 8002618:	f7ff fd6c 	bl	80020f4 <ADC_ConversionStop>
 800261c:	b958      	cbnz	r0, 8002636 <HAL_ADC_Stop+0x32>
 800261e:	4620      	mov	r0, r4
 8002620:	f7ff fd2d 	bl	800207e <ADC_Disable>
 8002624:	b938      	cbnz	r0, 8002636 <HAL_ADC_Stop+0x32>
 8002626:	6c23      	ldr	r3, [r4, #64]	; 0x40
 8002628:	f423 5388 	bic.w	r3, r3, #4352	; 0x1100
 800262c:	f023 0301 	bic.w	r3, r3, #1
 8002630:	f043 0301 	orr.w	r3, r3, #1
 8002634:	6423      	str	r3, [r4, #64]	; 0x40
 8002636:	2300      	movs	r3, #0
 8002638:	f884 303c 	strb.w	r3, [r4, #60]	; 0x3c
 800263c:	bd10      	pop	{r4, pc}
 800263e:	2002      	movs	r0, #2
 8002640:	e7fc      	b.n	800263c <HAL_ADC_Stop+0x38>
	...

08002644 <HAL_ADC_PollForConversion>:
 8002644:	e92d 41f0 	stmdb	sp!, {r4, r5, r6, r7, r8, lr}
 8002648:	6946      	ldr	r6, [r0, #20]
 800264a:	6803      	ldr	r3, [r0, #0]
 800264c:	2e08      	cmp	r6, #8
 800264e:	4604      	mov	r4, r0
 8002650:	460f      	mov	r7, r1
 8002652:	d027      	beq.n	80026a4 <HAL_ADC_PollForConversion+0x60>
 8002654:	f1b3 4fa0 	cmp.w	r3, #1342177280	; 0x50000000
 8002658:	d015      	beq.n	8002686 <HAL_ADC_PollForConversion+0x42>
 800265a:	4846      	ldr	r0, [pc, #280]	; (8002774 <HAL_ADC_PollForConversion+0x130>)
 800265c:	4a46      	ldr	r2, [pc, #280]	; (8002778 <HAL_ADC_PollForConversion+0x134>)
 800265e:	4947      	ldr	r1, [pc, #284]	; (800277c <HAL_ADC_PollForConversion+0x138>)
 8002660:	4283      	cmp	r3, r0
 8002662:	bf18      	it	ne
 8002664:	460a      	movne	r2, r1
 8002666:	6891      	ldr	r1, [r2, #8]
 8002668:	f011 011f 	ands.w	r1, r1, #31
 800266c:	d10d      	bne.n	800268a <HAL_ADC_PollForConversion+0x46>
 800266e:	68da      	ldr	r2, [r3, #12]
 8002670:	07d0      	lsls	r0, r2, #31
 8002672:	d516      	bpl.n	80026a2 <HAL_ADC_PollForConversion+0x5e>
 8002674:	6c23      	ldr	r3, [r4, #64]	; 0x40
 8002676:	f884 103c 	strb.w	r1, [r4, #60]	; 0x3c
 800267a:	f043 0320 	orr.w	r3, r3, #32
 800267e:	6423      	str	r3, [r4, #64]	; 0x40
 8002680:	2001      	movs	r0, #1
 8002682:	e8bd 81f0 	ldmia.w	sp!, {r4, r5, r6, r7, r8, pc}
 8002686:	4a3c      	ldr	r2, [pc, #240]	; (8002778 <HAL_ADC_PollForConversion+0x134>)
 8002688:	e7ed      	b.n	8002666 <HAL_ADC_PollForConversion+0x22>
 800268a:	6892      	ldr	r2, [r2, #8]
 800268c:	f412 4f40 	tst.w	r2, #49152	; 0xc000
 8002690:	d007      	beq.n	80026a2 <HAL_ADC_PollForConversion+0x5e>
 8002692:	6c23      	ldr	r3, [r4, #64]	; 0x40
 8002694:	f043 0320 	orr.w	r3, r3, #32
 8002698:	6423      	str	r3, [r4, #64]	; 0x40
 800269a:	2300      	movs	r3, #0
 800269c:	f884 303c 	strb.w	r3, [r4, #60]	; 0x3c
 80026a0:	e7ee      	b.n	8002680 <HAL_ADC_PollForConversion+0x3c>
 80026a2:	260c      	movs	r6, #12
 80026a4:	f1b3 4fa0 	cmp.w	r3, #1342177280	; 0x50000000
 80026a8:	d002      	beq.n	80026b0 <HAL_ADC_PollForConversion+0x6c>
 80026aa:	4a32      	ldr	r2, [pc, #200]	; (8002774 <HAL_ADC_PollForConversion+0x130>)
 80026ac:	4293      	cmp	r3, r2
 80026ae:	d134      	bne.n	800271a <HAL_ADC_PollForConversion+0xd6>
 80026b0:	4a31      	ldr	r2, [pc, #196]	; (8002778 <HAL_ADC_PollForConversion+0x134>)
 80026b2:	6892      	ldr	r2, [r2, #8]
 80026b4:	06d2      	lsls	r2, r2, #27
 80026b6:	d005      	beq.n	80026c4 <HAL_ADC_PollForConversion+0x80>
 80026b8:	f1b3 4fa0 	cmp.w	r3, #1342177280	; 0x50000000
 80026bc:	d002      	beq.n	80026c4 <HAL_ADC_PollForConversion+0x80>
 80026be:	4a30      	ldr	r2, [pc, #192]	; (8002780 <HAL_ADC_PollForConversion+0x13c>)
 80026c0:	4293      	cmp	r3, r2
 80026c2:	d132      	bne.n	800272a <HAL_ADC_PollForConversion+0xe6>
 80026c4:	68dd      	ldr	r5, [r3, #12]
 80026c6:	f7ff fcbd 	bl	8002044 <HAL_GetTick>
 80026ca:	4680      	mov	r8, r0
 80026cc:	6823      	ldr	r3, [r4, #0]
 80026ce:	681a      	ldr	r2, [r3, #0]
 80026d0:	4232      	tst	r2, r6
 80026d2:	d031      	beq.n	8002738 <HAL_ADC_PollForConversion+0xf4>
 80026d4:	6c22      	ldr	r2, [r4, #64]	; 0x40
 80026d6:	f442 7200 	orr.w	r2, r2, #512	; 0x200
 80026da:	6422      	str	r2, [r4, #64]	; 0x40
 80026dc:	68da      	ldr	r2, [r3, #12]
 80026de:	f405 5100 	and.w	r1, r5, #8192	; 0x2000
 80026e2:	f402 6240 	and.w	r2, r2, #3072	; 0xc00
 80026e6:	430a      	orrs	r2, r1
 80026e8:	d111      	bne.n	800270e <HAL_ADC_PollForConversion+0xca>
 80026ea:	681a      	ldr	r2, [r3, #0]
 80026ec:	0711      	lsls	r1, r2, #28
 80026ee:	d50e      	bpl.n	800270e <HAL_ADC_PollForConversion+0xca>
 80026f0:	689a      	ldr	r2, [r3, #8]
 80026f2:	f012 0f04 	tst.w	r2, #4
 80026f6:	6c22      	ldr	r2, [r4, #64]	; 0x40
 80026f8:	d134      	bne.n	8002764 <HAL_ADC_PollForConversion+0x120>
 80026fa:	f422 7280 	bic.w	r2, r2, #256	; 0x100
 80026fe:	6422      	str	r2, [r4, #64]	; 0x40
 8002700:	6c22      	ldr	r2, [r4, #64]	; 0x40
 8002702:	04d2      	lsls	r2, r2, #19
 8002704:	d403      	bmi.n	800270e <HAL_ADC_PollForConversion+0xca>
 8002706:	6c22      	ldr	r2, [r4, #64]	; 0x40
 8002708:	f042 0201 	orr.w	r2, r2, #1
 800270c:	6422      	str	r2, [r4, #64]	; 0x40
 800270e:	f415 4080 	ands.w	r0, r5, #16384	; 0x4000
 8002712:	bf0c      	ite	eq
 8002714:	601e      	streq	r6, [r3, #0]
 8002716:	2000      	movne	r0, #0
 8002718:	e7b3      	b.n	8002682 <HAL_ADC_PollForConversion+0x3e>
 800271a:	4a18      	ldr	r2, [pc, #96]	; (800277c <HAL_ADC_PollForConversion+0x138>)
 800271c:	6892      	ldr	r2, [r2, #8]
 800271e:	06d5      	lsls	r5, r2, #27
 8002720:	d0d0      	beq.n	80026c4 <HAL_ADC_PollForConversion+0x80>
 8002722:	4a17      	ldr	r2, [pc, #92]	; (8002780 <HAL_ADC_PollForConversion+0x13c>)
 8002724:	4293      	cmp	r3, r2
 8002726:	d105      	bne.n	8002734 <HAL_ADC_PollForConversion+0xf0>
 8002728:	e7cc      	b.n	80026c4 <HAL_ADC_PollForConversion+0x80>
 800272a:	4912      	ldr	r1, [pc, #72]	; (8002774 <HAL_ADC_PollForConversion+0x130>)
 800272c:	428b      	cmp	r3, r1
 800272e:	bf08      	it	eq
 8002730:	f04f 42a0 	moveq.w	r2, #1342177280	; 0x50000000
 8002734:	68d5      	ldr	r5, [r2, #12]
 8002736:	e7c6      	b.n	80026c6 <HAL_ADC_PollForConversion+0x82>
 8002738:	1c78      	adds	r0, r7, #1
 800273a:	d0c8      	beq.n	80026ce <HAL_ADC_PollForConversion+0x8a>
 800273c:	b95f      	cbnz	r7, 8002756 <HAL_ADC_PollForConversion+0x112>
 800273e:	6823      	ldr	r3, [r4, #0]
 8002740:	681b      	ldr	r3, [r3, #0]
 8002742:	4033      	ands	r3, r6
 8002744:	d1c2      	bne.n	80026cc <HAL_ADC_PollForConversion+0x88>
 8002746:	6c22      	ldr	r2, [r4, #64]	; 0x40
 8002748:	f884 303c 	strb.w	r3, [r4, #60]	; 0x3c
 800274c:	f042 0204 	orr.w	r2, r2, #4
 8002750:	6422      	str	r2, [r4, #64]	; 0x40
 8002752:	2003      	movs	r0, #3
 8002754:	e795      	b.n	8002682 <HAL_ADC_PollForConversion+0x3e>
 8002756:	f7ff fc75 	bl	8002044 <HAL_GetTick>
 800275a:	eba0 0008 	sub.w	r0, r0, r8
 800275e:	42b8      	cmp	r0, r7
 8002760:	d8ed      	bhi.n	800273e <HAL_ADC_PollForConversion+0xfa>
 8002762:	e7b3      	b.n	80026cc <HAL_ADC_PollForConversion+0x88>
 8002764:	f042 0220 	orr.w	r2, r2, #32
 8002768:	6422      	str	r2, [r4, #64]	; 0x40
 800276a:	6c62      	ldr	r2, [r4, #68]	; 0x44
 800276c:	f042 0201 	orr.w	r2, r2, #1
 8002770:	6462      	str	r2, [r4, #68]	; 0x44
 8002772:	e7cc      	b.n	800270e <HAL_ADC_PollForConversion+0xca>
 8002774:	50000100 	.word	0x50000100
 8002778:	50000300 	.word	0x50000300
 800277c:	50000700 	.word	0x50000700
 8002780:	50000400 	.word	0x50000400

08002784 <HAL_ADC_Start_DMA>:
 8002784:	b5f7      	push	{r0, r1, r2, r4, r5, r6, r7, lr}
 8002786:	4613      	mov	r3, r2
 8002788:	6802      	ldr	r2, [r0, #0]
 800278a:	460f      	mov	r7, r1
 800278c:	6891      	ldr	r1, [r2, #8]
 800278e:	0749      	lsls	r1, r1, #29
 8002790:	4604      	mov	r4, r0
 8002792:	f100 8090 	bmi.w	80028b6 <HAL_ADC_Start_DMA+0x132>
 8002796:	f890 103c 	ldrb.w	r1, [r0, #60]	; 0x3c
 800279a:	2901      	cmp	r1, #1
 800279c:	f000 808b 	beq.w	80028b6 <HAL_ADC_Start_DMA+0x132>
 80027a0:	2101      	movs	r1, #1
 80027a2:	f1b2 4fa0 	cmp.w	r2, #1342177280	; 0x50000000
 80027a6:	f880 103c 	strb.w	r1, [r0, #60]	; 0x3c
 80027aa:	d002      	beq.n	80027b2 <HAL_ADC_Start_DMA+0x2e>
 80027ac:	4943      	ldr	r1, [pc, #268]	; (80028bc <HAL_ADC_Start_DMA+0x138>)
 80027ae:	428a      	cmp	r2, r1
 80027b0:	d15c      	bne.n	800286c <HAL_ADC_Start_DMA+0xe8>
 80027b2:	4a43      	ldr	r2, [pc, #268]	; (80028c0 <HAL_ADC_Start_DMA+0x13c>)
 80027b4:	6892      	ldr	r2, [r2, #8]
 80027b6:	f012 0f1f 	tst.w	r2, #31
 80027ba:	bf0c      	ite	eq
 80027bc:	2201      	moveq	r2, #1
 80027be:	2200      	movne	r2, #0
 80027c0:	2a00      	cmp	r2, #0
 80027c2:	d074      	beq.n	80028ae <HAL_ADC_Start_DMA+0x12a>
 80027c4:	4620      	mov	r0, r4
 80027c6:	9301      	str	r3, [sp, #4]
 80027c8:	f7ff fcee 	bl	80021a8 <ADC_Enable>
 80027cc:	4606      	mov	r6, r0
 80027ce:	2800      	cmp	r0, #0
 80027d0:	d169      	bne.n	80028a6 <HAL_ADC_Start_DMA+0x122>
 80027d2:	6c20      	ldr	r0, [r4, #64]	; 0x40
 80027d4:	6825      	ldr	r5, [r4, #0]
 80027d6:	9b01      	ldr	r3, [sp, #4]
 80027d8:	f420 6070 	bic.w	r0, r0, #3840	; 0xf00
 80027dc:	f020 0001 	bic.w	r0, r0, #1
 80027e0:	f440 7080 	orr.w	r0, r0, #256	; 0x100
 80027e4:	f1b5 4fa0 	cmp.w	r5, #1342177280	; 0x50000000
 80027e8:	6420      	str	r0, [r4, #64]	; 0x40
 80027ea:	d002      	beq.n	80027f2 <HAL_ADC_Start_DMA+0x6e>
 80027ec:	4a33      	ldr	r2, [pc, #204]	; (80028bc <HAL_ADC_Start_DMA+0x138>)
 80027ee:	4295      	cmp	r5, r2
 80027f0:	d13e      	bne.n	8002870 <HAL_ADC_Start_DMA+0xec>
 80027f2:	4a33      	ldr	r2, [pc, #204]	; (80028c0 <HAL_ADC_Start_DMA+0x13c>)
 80027f4:	6892      	ldr	r2, [r2, #8]
 80027f6:	06d2      	lsls	r2, r2, #27
 80027f8:	d002      	beq.n	8002800 <HAL_ADC_Start_DMA+0x7c>
 80027fa:	f1b5 4fa0 	cmp.w	r5, #1342177280	; 0x50000000
 80027fe:	d13b      	bne.n	8002878 <HAL_ADC_Start_DMA+0xf4>
 8002800:	6c22      	ldr	r2, [r4, #64]	; 0x40
 8002802:	f422 1280 	bic.w	r2, r2, #1048576	; 0x100000
 8002806:	6422      	str	r2, [r4, #64]	; 0x40
 8002808:	68ea      	ldr	r2, [r5, #12]
 800280a:	0191      	lsls	r1, r2, #6
 800280c:	d505      	bpl.n	800281a <HAL_ADC_Start_DMA+0x96>
 800280e:	6c22      	ldr	r2, [r4, #64]	; 0x40
 8002810:	f422 5240 	bic.w	r2, r2, #12288	; 0x3000
 8002814:	f442 5280 	orr.w	r2, r2, #4096	; 0x1000
 8002818:	6422      	str	r2, [r4, #64]	; 0x40
 800281a:	6c22      	ldr	r2, [r4, #64]	; 0x40
 800281c:	6ba0      	ldr	r0, [r4, #56]	; 0x38
 800281e:	f412 5280 	ands.w	r2, r2, #4096	; 0x1000
 8002822:	bf1c      	itt	ne
 8002824:	6c62      	ldrne	r2, [r4, #68]	; 0x44
 8002826:	f022 0206 	bicne.w	r2, r2, #6
 800282a:	6462      	str	r2, [r4, #68]	; 0x44
 800282c:	2200      	movs	r2, #0
 800282e:	f884 203c 	strb.w	r2, [r4, #60]	; 0x3c
 8002832:	4a24      	ldr	r2, [pc, #144]	; (80028c4 <HAL_ADC_Start_DMA+0x140>)
 8002834:	6282      	str	r2, [r0, #40]	; 0x28
 8002836:	4a24      	ldr	r2, [pc, #144]	; (80028c8 <HAL_ADC_Start_DMA+0x144>)
 8002838:	62c2      	str	r2, [r0, #44]	; 0x2c
 800283a:	4a24      	ldr	r2, [pc, #144]	; (80028cc <HAL_ADC_Start_DMA+0x148>)
 800283c:	6302      	str	r2, [r0, #48]	; 0x30
 800283e:	221c      	movs	r2, #28
 8002840:	602a      	str	r2, [r5, #0]
 8002842:	686a      	ldr	r2, [r5, #4]
 8002844:	f042 0210 	orr.w	r2, r2, #16
 8002848:	606a      	str	r2, [r5, #4]
 800284a:	68ea      	ldr	r2, [r5, #12]
 800284c:	f042 0201 	orr.w	r2, r2, #1
 8002850:	60ea      	str	r2, [r5, #12]
 8002852:	f105 0140 	add.w	r1, r5, #64	; 0x40
 8002856:	463a      	mov	r2, r7
 8002858:	f000 fd76 	bl	8003348 <HAL_DMA_Start_IT>
 800285c:	6822      	ldr	r2, [r4, #0]
 800285e:	6893      	ldr	r3, [r2, #8]
 8002860:	f043 0304 	orr.w	r3, r3, #4
 8002864:	6093      	str	r3, [r2, #8]
 8002866:	4630      	mov	r0, r6
 8002868:	b003      	add	sp, #12
 800286a:	bdf0      	pop	{r4, r5, r6, r7, pc}
 800286c:	4a18      	ldr	r2, [pc, #96]	; (80028d0 <HAL_ADC_Start_DMA+0x14c>)
 800286e:	e7a1      	b.n	80027b4 <HAL_ADC_Start_DMA+0x30>
 8002870:	4a17      	ldr	r2, [pc, #92]	; (80028d0 <HAL_ADC_Start_DMA+0x14c>)
 8002872:	6892      	ldr	r2, [r2, #8]
 8002874:	06d0      	lsls	r0, r2, #27
 8002876:	d0c3      	beq.n	8002800 <HAL_ADC_Start_DMA+0x7c>
 8002878:	4916      	ldr	r1, [pc, #88]	; (80028d4 <HAL_ADC_Start_DMA+0x150>)
 800287a:	428d      	cmp	r5, r1
 800287c:	d0c0      	beq.n	8002800 <HAL_ADC_Start_DMA+0x7c>
 800287e:	6c22      	ldr	r2, [r4, #64]	; 0x40
 8002880:	f442 1280 	orr.w	r2, r2, #1048576	; 0x100000
 8002884:	6422      	str	r2, [r4, #64]	; 0x40
 8002886:	4a0d      	ldr	r2, [pc, #52]	; (80028bc <HAL_ADC_Start_DMA+0x138>)
 8002888:	4295      	cmp	r5, r2
 800288a:	bf0a      	itet	eq
 800288c:	f04f 42a0 	moveq.w	r2, #1342177280	; 0x50000000
 8002890:	68ca      	ldrne	r2, [r1, #12]
 8002892:	68d2      	ldreq	r2, [r2, #12]
 8002894:	0192      	lsls	r2, r2, #6
 8002896:	bf41      	itttt	mi
 8002898:	6c20      	ldrmi	r0, [r4, #64]	; 0x40
 800289a:	f420 5040 	bicmi.w	r0, r0, #12288	; 0x3000
 800289e:	f440 5080 	orrmi.w	r0, r0, #4096	; 0x1000
 80028a2:	6420      	strmi	r0, [r4, #64]	; 0x40
 80028a4:	e7b9      	b.n	800281a <HAL_ADC_Start_DMA+0x96>
 80028a6:	2300      	movs	r3, #0
 80028a8:	f884 303c 	strb.w	r3, [r4, #60]	; 0x3c
 80028ac:	e7db      	b.n	8002866 <HAL_ADC_Start_DMA+0xe2>
 80028ae:	f884 203c 	strb.w	r2, [r4, #60]	; 0x3c
 80028b2:	2601      	movs	r6, #1
 80028b4:	e7d7      	b.n	8002866 <HAL_ADC_Start_DMA+0xe2>
 80028b6:	2602      	movs	r6, #2
 80028b8:	e7d5      	b.n	8002866 <HAL_ADC_Start_DMA+0xe2>
 80028ba:	bf00      	nop
 80028bc:	50000100 	.word	0x50000100
 80028c0:	50000300 	.word	0x50000300
 80028c4:	08002229 	.word	0x08002229
 80028c8:	08002223 	.word	0x08002223
 80028cc:	0800220d 	.word	0x0800220d
 80028d0:	50000700 	.word	0x50000700
 80028d4:	50000400 	.word	0x50000400

080028d8 <HAL_ADC_Stop_DMA>:
 80028d8:	b538      	push	{r3, r4, r5, lr}
 80028da:	f890 303c 	ldrb.w	r3, [r0, #60]	; 0x3c
 80028de:	2b01      	cmp	r3, #1
 80028e0:	4605      	mov	r5, r0
 80028e2:	d035      	beq.n	8002950 <HAL_ADC_Stop_DMA+0x78>
 80028e4:	2301      	movs	r3, #1
 80028e6:	f880 303c 	strb.w	r3, [r0, #60]	; 0x3c
 80028ea:	216c      	movs	r1, #108	; 0x6c
 80028ec:	f7ff fc02 	bl	80020f4 <ADC_ConversionStop>
 80028f0:	4604      	mov	r4, r0
 80028f2:	b9e0      	cbnz	r0, 800292e <HAL_ADC_Stop_DMA+0x56>
 80028f4:	682a      	ldr	r2, [r5, #0]
 80028f6:	6ba8      	ldr	r0, [r5, #56]	; 0x38
 80028f8:	68d3      	ldr	r3, [r2, #12]
 80028fa:	f023 0301 	bic.w	r3, r3, #1
 80028fe:	60d3      	str	r3, [r2, #12]
 8002900:	f890 3021 	ldrb.w	r3, [r0, #33]	; 0x21
 8002904:	2b02      	cmp	r3, #2
 8002906:	d107      	bne.n	8002918 <HAL_ADC_Stop_DMA+0x40>
 8002908:	f000 fd5a 	bl	80033c0 <HAL_DMA_Abort>
 800290c:	4604      	mov	r4, r0
 800290e:	b118      	cbz	r0, 8002918 <HAL_ADC_Stop_DMA+0x40>
 8002910:	6c2b      	ldr	r3, [r5, #64]	; 0x40
 8002912:	f043 0340 	orr.w	r3, r3, #64	; 0x40
 8002916:	642b      	str	r3, [r5, #64]	; 0x40
 8002918:	682a      	ldr	r2, [r5, #0]
 800291a:	6853      	ldr	r3, [r2, #4]
 800291c:	f023 0310 	bic.w	r3, r3, #16
 8002920:	6053      	str	r3, [r2, #4]
 8002922:	4628      	mov	r0, r5
 8002924:	b944      	cbnz	r4, 8002938 <HAL_ADC_Stop_DMA+0x60>
 8002926:	f7ff fbaa 	bl	800207e <ADC_Disable>
 800292a:	4604      	mov	r4, r0
 800292c:	b138      	cbz	r0, 800293e <HAL_ADC_Stop_DMA+0x66>
 800292e:	2300      	movs	r3, #0
 8002930:	f885 303c 	strb.w	r3, [r5, #60]	; 0x3c
 8002934:	4620      	mov	r0, r4
 8002936:	bd38      	pop	{r3, r4, r5, pc}
 8002938:	f7ff fba1 	bl	800207e <ADC_Disable>
 800293c:	e7f7      	b.n	800292e <HAL_ADC_Stop_DMA+0x56>
 800293e:	6c2b      	ldr	r3, [r5, #64]	; 0x40
 8002940:	f423 5388 	bic.w	r3, r3, #4352	; 0x1100
 8002944:	f023 0301 	bic.w	r3, r3, #1
 8002948:	f043 0301 	orr.w	r3, r3, #1
 800294c:	642b      	str	r3, [r5, #64]	; 0x40
 800294e:	e7ee      	b.n	800292e <HAL_ADC_Stop_DMA+0x56>
 8002950:	2402      	movs	r4, #2
 8002952:	e7ef      	b.n	8002934 <HAL_ADC_Stop_DMA+0x5c>

08002954 <HAL_ADC_GetValue>:
 8002954:	6803      	ldr	r3, [r0, #0]
 8002956:	6c18      	ldr	r0, [r3, #64]	; 0x40
 8002958:	4770      	bx	lr

0800295a <HAL_ADCEx_Calibration_Start>:
 800295a:	b5f8      	push	{r3, r4, r5, r6, r7, lr}
 800295c:	f890 303c 	ldrb.w	r3, [r0, #60]	; 0x3c
 8002960:	2b01      	cmp	r3, #1
 8002962:	4604      	mov	r4, r0
 8002964:	460e      	mov	r6, r1
 8002966:	d03c      	beq.n	80029e2 <HAL_ADCEx_Calibration_Start+0x88>
 8002968:	2701      	movs	r7, #1
 800296a:	f880 703c 	strb.w	r7, [r0, #60]	; 0x3c
 800296e:	f7ff fb86 	bl	800207e <ADC_Disable>
 8002972:	4605      	mov	r5, r0
 8002974:	b9e0      	cbnz	r0, 80029b0 <HAL_ADCEx_Calibration_Start+0x56>
 8002976:	6823      	ldr	r3, [r4, #0]
 8002978:	6427      	str	r7, [r4, #64]	; 0x40
 800297a:	689a      	ldr	r2, [r3, #8]
 800297c:	f022 4280 	bic.w	r2, r2, #1073741824	; 0x40000000
 8002980:	609a      	str	r2, [r3, #8]
 8002982:	42be      	cmp	r6, r7
 8002984:	bf02      	ittt	eq
 8002986:	689a      	ldreq	r2, [r3, #8]
 8002988:	f042 4280 	orreq.w	r2, r2, #1073741824	; 0x40000000
 800298c:	609a      	streq	r2, [r3, #8]
 800298e:	689a      	ldr	r2, [r3, #8]
 8002990:	f042 4200 	orr.w	r2, r2, #2147483648	; 0x80000000
 8002994:	609a      	str	r2, [r3, #8]
 8002996:	f7ff fb55 	bl	8002044 <HAL_GetTick>
 800299a:	4606      	mov	r6, r0
 800299c:	6823      	ldr	r3, [r4, #0]
 800299e:	689b      	ldr	r3, [r3, #8]
 80029a0:	2b00      	cmp	r3, #0
 80029a2:	db09      	blt.n	80029b8 <HAL_ADCEx_Calibration_Start+0x5e>
 80029a4:	6c23      	ldr	r3, [r4, #64]	; 0x40
 80029a6:	f023 0303 	bic.w	r3, r3, #3
 80029aa:	f043 0301 	orr.w	r3, r3, #1
 80029ae:	6423      	str	r3, [r4, #64]	; 0x40
 80029b0:	2300      	movs	r3, #0
 80029b2:	f884 303c 	strb.w	r3, [r4, #60]	; 0x3c
 80029b6:	e012      	b.n	80029de <HAL_ADCEx_Calibration_Start+0x84>
 80029b8:	f7ff fb44 	bl	8002044 <HAL_GetTick>
 80029bc:	1b80      	subs	r0, r0, r6
 80029be:	280a      	cmp	r0, #10
 80029c0:	d9ec      	bls.n	800299c <HAL_ADCEx_Calibration_Start+0x42>
 80029c2:	6823      	ldr	r3, [r4, #0]
 80029c4:	689b      	ldr	r3, [r3, #8]
 80029c6:	2b00      	cmp	r3, #0
 80029c8:	dae8      	bge.n	800299c <HAL_ADCEx_Calibration_Start+0x42>
 80029ca:	6c23      	ldr	r3, [r4, #64]	; 0x40
 80029cc:	f023 0312 	bic.w	r3, r3, #18
 80029d0:	f043 0310 	orr.w	r3, r3, #16
 80029d4:	6423      	str	r3, [r4, #64]	; 0x40
 80029d6:	2300      	movs	r3, #0
 80029d8:	f884 303c 	strb.w	r3, [r4, #60]	; 0x3c
 80029dc:	2501      	movs	r5, #1
 80029de:	4628      	mov	r0, r5
 80029e0:	bdf8      	pop	{r3, r4, r5, r6, r7, pc}
 80029e2:	2502      	movs	r5, #2
 80029e4:	e7fb      	b.n	80029de <HAL_ADCEx_Calibration_Start+0x84>

080029e6 <HAL_ADCEx_InjectedConvCpltCallback>:
 80029e6:	4770      	bx	lr

080029e8 <HAL_ADCEx_InjectedQueueOverflowCallback>:
 80029e8:	4770      	bx	lr

080029ea <HAL_ADCEx_LevelOutOfWindow2Callback>:
 80029ea:	4770      	bx	lr

080029ec <HAL_ADCEx_LevelOutOfWindow3Callback>:
 80029ec:	4770      	bx	lr
	...

080029f0 <HAL_ADC_IRQHandler>:
 80029f0:	6803      	ldr	r3, [r0, #0]
 80029f2:	b570      	push	{r4, r5, r6, lr}
 80029f4:	681d      	ldr	r5, [r3, #0]
 80029f6:	685e      	ldr	r6, [r3, #4]
 80029f8:	076a      	lsls	r2, r5, #29
 80029fa:	4604      	mov	r4, r0
 80029fc:	d501      	bpl.n	8002a02 <HAL_ADC_IRQHandler+0x12>
 80029fe:	0770      	lsls	r0, r6, #29
 8002a00:	d403      	bmi.n	8002a0a <HAL_ADC_IRQHandler+0x1a>
 8002a02:	0729      	lsls	r1, r5, #28
 8002a04:	d543      	bpl.n	8002a8e <HAL_ADC_IRQHandler+0x9e>
 8002a06:	0732      	lsls	r2, r6, #28
 8002a08:	d541      	bpl.n	8002a8e <HAL_ADC_IRQHandler+0x9e>
 8002a0a:	6c22      	ldr	r2, [r4, #64]	; 0x40
 8002a0c:	06d0      	lsls	r0, r2, #27
 8002a0e:	bf5e      	ittt	pl
 8002a10:	6c22      	ldrpl	r2, [r4, #64]	; 0x40
 8002a12:	f442 7200 	orrpl.w	r2, r2, #512	; 0x200
 8002a16:	6422      	strpl	r2, [r4, #64]	; 0x40
 8002a18:	f1b3 4fa0 	cmp.w	r3, #1342177280	; 0x50000000
 8002a1c:	d003      	beq.n	8002a26 <HAL_ADC_IRQHandler+0x36>
 8002a1e:	4a90      	ldr	r2, [pc, #576]	; (8002c60 <HAL_ADC_IRQHandler+0x270>)
 8002a20:	4293      	cmp	r3, r2
 8002a22:	f040 8105 	bne.w	8002c30 <HAL_ADC_IRQHandler+0x240>
 8002a26:	4a8f      	ldr	r2, [pc, #572]	; (8002c64 <HAL_ADC_IRQHandler+0x274>)
 8002a28:	6891      	ldr	r1, [r2, #8]
 8002a2a:	06c9      	lsls	r1, r1, #27
 8002a2c:	d00c      	beq.n	8002a48 <HAL_ADC_IRQHandler+0x58>
 8002a2e:	f1b3 4fa0 	cmp.w	r3, #1342177280	; 0x50000000
 8002a32:	d003      	beq.n	8002a3c <HAL_ADC_IRQHandler+0x4c>
 8002a34:	498a      	ldr	r1, [pc, #552]	; (8002c60 <HAL_ADC_IRQHandler+0x270>)
 8002a36:	428b      	cmp	r3, r1
 8002a38:	f040 80ff 	bne.w	8002c3a <HAL_ADC_IRQHandler+0x24a>
 8002a3c:	6892      	ldr	r2, [r2, #8]
 8002a3e:	f002 021f 	and.w	r2, r2, #31
 8002a42:	2a05      	cmp	r2, #5
 8002a44:	f040 8114 	bne.w	8002c70 <HAL_ADC_IRQHandler+0x280>
 8002a48:	68da      	ldr	r2, [r3, #12]
 8002a4a:	68d9      	ldr	r1, [r3, #12]
 8002a4c:	f402 5200 	and.w	r2, r2, #8192	; 0x2000
 8002a50:	f401 6140 	and.w	r1, r1, #3072	; 0xc00
 8002a54:	4311      	orrs	r1, r2
 8002a56:	d114      	bne.n	8002a82 <HAL_ADC_IRQHandler+0x92>
 8002a58:	0729      	lsls	r1, r5, #28
 8002a5a:	d512      	bpl.n	8002a82 <HAL_ADC_IRQHandler+0x92>
 8002a5c:	689a      	ldr	r2, [r3, #8]
 8002a5e:	0752      	lsls	r2, r2, #29
 8002a60:	f100 8122 	bmi.w	8002ca8 <HAL_ADC_IRQHandler+0x2b8>
 8002a64:	685a      	ldr	r2, [r3, #4]
 8002a66:	f022 020c 	bic.w	r2, r2, #12
 8002a6a:	605a      	str	r2, [r3, #4]
 8002a6c:	6c23      	ldr	r3, [r4, #64]	; 0x40
 8002a6e:	f423 7380 	bic.w	r3, r3, #256	; 0x100
 8002a72:	6423      	str	r3, [r4, #64]	; 0x40
 8002a74:	6c23      	ldr	r3, [r4, #64]	; 0x40
 8002a76:	04d8      	lsls	r0, r3, #19
 8002a78:	d403      	bmi.n	8002a82 <HAL_ADC_IRQHandler+0x92>
 8002a7a:	6c23      	ldr	r3, [r4, #64]	; 0x40
 8002a7c:	f043 0301 	orr.w	r3, r3, #1
 8002a80:	6423      	str	r3, [r4, #64]	; 0x40
 8002a82:	4620      	mov	r0, r4
 8002a84:	f7fe fecc 	bl	8001820 <HAL_ADC_ConvCpltCallback>
 8002a88:	6823      	ldr	r3, [r4, #0]
 8002a8a:	220c      	movs	r2, #12
 8002a8c:	601a      	str	r2, [r3, #0]
 8002a8e:	06a9      	lsls	r1, r5, #26
 8002a90:	d501      	bpl.n	8002a96 <HAL_ADC_IRQHandler+0xa6>
 8002a92:	06b2      	lsls	r2, r6, #26
 8002a94:	d403      	bmi.n	8002a9e <HAL_ADC_IRQHandler+0xae>
 8002a96:	066b      	lsls	r3, r5, #25
 8002a98:	d562      	bpl.n	8002b60 <HAL_ADC_IRQHandler+0x170>
 8002a9a:	0670      	lsls	r0, r6, #25
 8002a9c:	d560      	bpl.n	8002b60 <HAL_ADC_IRQHandler+0x170>
 8002a9e:	6c23      	ldr	r3, [r4, #64]	; 0x40
 8002aa0:	f443 5300 	orr.w	r3, r3, #8192	; 0x2000
 8002aa4:	6423      	str	r3, [r4, #64]	; 0x40
 8002aa6:	6823      	ldr	r3, [r4, #0]
 8002aa8:	f1b3 4fa0 	cmp.w	r3, #1342177280	; 0x50000000
 8002aac:	d003      	beq.n	8002ab6 <HAL_ADC_IRQHandler+0xc6>
 8002aae:	4a6c      	ldr	r2, [pc, #432]	; (8002c60 <HAL_ADC_IRQHandler+0x270>)
 8002ab0:	4293      	cmp	r3, r2
 8002ab2:	f040 8102 	bne.w	8002cba <HAL_ADC_IRQHandler+0x2ca>
 8002ab6:	4a6b      	ldr	r2, [pc, #428]	; (8002c64 <HAL_ADC_IRQHandler+0x274>)
 8002ab8:	6891      	ldr	r1, [r2, #8]
 8002aba:	06c9      	lsls	r1, r1, #27
 8002abc:	d00c      	beq.n	8002ad8 <HAL_ADC_IRQHandler+0xe8>
 8002abe:	f1b3 4fa0 	cmp.w	r3, #1342177280	; 0x50000000
 8002ac2:	d003      	beq.n	8002acc <HAL_ADC_IRQHandler+0xdc>
 8002ac4:	4966      	ldr	r1, [pc, #408]	; (8002c60 <HAL_ADC_IRQHandler+0x270>)
 8002ac6:	428b      	cmp	r3, r1
 8002ac8:	f040 80fc 	bne.w	8002cc4 <HAL_ADC_IRQHandler+0x2d4>
 8002acc:	6892      	ldr	r2, [r2, #8]
 8002ace:	f002 021f 	and.w	r2, r2, #31
 8002ad2:	2a05      	cmp	r2, #5
 8002ad4:	f040 8108 	bne.w	8002ce8 <HAL_ADC_IRQHandler+0x2f8>
 8002ad8:	68da      	ldr	r2, [r3, #12]
 8002ada:	6cd9      	ldr	r1, [r3, #76]	; 0x4c
 8002adc:	f011 0fc0 	tst.w	r1, #192	; 0xc0
 8002ae0:	d138      	bne.n	8002b54 <HAL_ADC_IRQHandler+0x164>
 8002ae2:	0191      	lsls	r1, r2, #6
 8002ae4:	d506      	bpl.n	8002af4 <HAL_ADC_IRQHandler+0x104>
 8002ae6:	68d9      	ldr	r1, [r3, #12]
 8002ae8:	f402 5200 	and.w	r2, r2, #8192	; 0x2000
 8002aec:	f401 6140 	and.w	r1, r1, #3072	; 0xc00
 8002af0:	4311      	orrs	r1, r2
 8002af2:	d12f      	bne.n	8002b54 <HAL_ADC_IRQHandler+0x164>
 8002af4:	0668      	lsls	r0, r5, #25
 8002af6:	d52d      	bpl.n	8002b54 <HAL_ADC_IRQHandler+0x164>
 8002af8:	f1b3 4fa0 	cmp.w	r3, #1342177280	; 0x50000000
 8002afc:	d003      	beq.n	8002b06 <HAL_ADC_IRQHandler+0x116>
 8002afe:	4a58      	ldr	r2, [pc, #352]	; (8002c60 <HAL_ADC_IRQHandler+0x270>)
 8002b00:	4293      	cmp	r3, r2
 8002b02:	f040 810d 	bne.w	8002d20 <HAL_ADC_IRQHandler+0x330>
 8002b06:	4a57      	ldr	r2, [pc, #348]	; (8002c64 <HAL_ADC_IRQHandler+0x274>)
 8002b08:	6891      	ldr	r1, [r2, #8]
 8002b0a:	06c9      	lsls	r1, r1, #27
 8002b0c:	d00c      	beq.n	8002b28 <HAL_ADC_IRQHandler+0x138>
 8002b0e:	f1b3 4fa0 	cmp.w	r3, #1342177280	; 0x50000000
 8002b12:	d003      	beq.n	8002b1c <HAL_ADC_IRQHandler+0x12c>
 8002b14:	4952      	ldr	r1, [pc, #328]	; (8002c60 <HAL_ADC_IRQHandler+0x270>)
 8002b16:	428b      	cmp	r3, r1
 8002b18:	f040 8107 	bne.w	8002d2a <HAL_ADC_IRQHandler+0x33a>
 8002b1c:	6892      	ldr	r2, [r2, #8]
 8002b1e:	f002 021f 	and.w	r2, r2, #31
 8002b22:	2a06      	cmp	r2, #6
 8002b24:	f040 8113 	bne.w	8002d4e <HAL_ADC_IRQHandler+0x35e>
 8002b28:	68da      	ldr	r2, [r3, #12]
 8002b2a:	0291      	lsls	r1, r2, #10
 8002b2c:	d412      	bmi.n	8002b54 <HAL_ADC_IRQHandler+0x164>
 8002b2e:	689a      	ldr	r2, [r3, #8]
 8002b30:	0712      	lsls	r2, r2, #28
 8002b32:	f100 8128 	bmi.w	8002d86 <HAL_ADC_IRQHandler+0x396>
 8002b36:	685a      	ldr	r2, [r3, #4]
 8002b38:	f022 0260 	bic.w	r2, r2, #96	; 0x60
 8002b3c:	605a      	str	r2, [r3, #4]
 8002b3e:	6c23      	ldr	r3, [r4, #64]	; 0x40
 8002b40:	f423 5380 	bic.w	r3, r3, #4096	; 0x1000
 8002b44:	6423      	str	r3, [r4, #64]	; 0x40
 8002b46:	6c23      	ldr	r3, [r4, #64]	; 0x40
 8002b48:	05d8      	lsls	r0, r3, #23
 8002b4a:	d403      	bmi.n	8002b54 <HAL_ADC_IRQHandler+0x164>
 8002b4c:	6c23      	ldr	r3, [r4, #64]	; 0x40
 8002b4e:	f043 0301 	orr.w	r3, r3, #1
 8002b52:	6423      	str	r3, [r4, #64]	; 0x40
 8002b54:	4620      	mov	r0, r4
 8002b56:	f7ff ff46 	bl	80029e6 <HAL_ADCEx_InjectedConvCpltCallback>
 8002b5a:	6823      	ldr	r3, [r4, #0]
 8002b5c:	2260      	movs	r2, #96	; 0x60
 8002b5e:	601a      	str	r2, [r3, #0]
 8002b60:	0629      	lsls	r1, r5, #24
 8002b62:	d50b      	bpl.n	8002b7c <HAL_ADC_IRQHandler+0x18c>
 8002b64:	0632      	lsls	r2, r6, #24
 8002b66:	d509      	bpl.n	8002b7c <HAL_ADC_IRQHandler+0x18c>
 8002b68:	6c23      	ldr	r3, [r4, #64]	; 0x40
 8002b6a:	f443 3380 	orr.w	r3, r3, #65536	; 0x10000
 8002b6e:	6423      	str	r3, [r4, #64]	; 0x40
 8002b70:	4620      	mov	r0, r4
 8002b72:	f7ff fa82 	bl	800207a <HAL_ADC_LevelOutOfWindowCallback>
 8002b76:	6823      	ldr	r3, [r4, #0]
 8002b78:	2280      	movs	r2, #128	; 0x80
 8002b7a:	601a      	str	r2, [r3, #0]
 8002b7c:	05eb      	lsls	r3, r5, #23
 8002b7e:	d50c      	bpl.n	8002b9a <HAL_ADC_IRQHandler+0x1aa>
 8002b80:	05f0      	lsls	r0, r6, #23
 8002b82:	d50a      	bpl.n	8002b9a <HAL_ADC_IRQHandler+0x1aa>
 8002b84:	6c23      	ldr	r3, [r4, #64]	; 0x40
 8002b86:	f443 3300 	orr.w	r3, r3, #131072	; 0x20000
 8002b8a:	6423      	str	r3, [r4, #64]	; 0x40
 8002b8c:	4620      	mov	r0, r4
 8002b8e:	f7ff ff2c 	bl	80029ea <HAL_ADCEx_LevelOutOfWindow2Callback>
 8002b92:	6823      	ldr	r3, [r4, #0]
 8002b94:	f44f 7280 	mov.w	r2, #256	; 0x100
 8002b98:	601a      	str	r2, [r3, #0]
 8002b9a:	05a9      	lsls	r1, r5, #22
 8002b9c:	d50c      	bpl.n	8002bb8 <HAL_ADC_IRQHandler+0x1c8>
 8002b9e:	05b2      	lsls	r2, r6, #22
 8002ba0:	d50a      	bpl.n	8002bb8 <HAL_ADC_IRQHandler+0x1c8>
 8002ba2:	6c23      	ldr	r3, [r4, #64]	; 0x40
 8002ba4:	f443 2380 	orr.w	r3, r3, #262144	; 0x40000
 8002ba8:	6423      	str	r3, [r4, #64]	; 0x40
 8002baa:	4620      	mov	r0, r4
 8002bac:	f7ff ff1e 	bl	80029ec <HAL_ADCEx_LevelOutOfWindow3Callback>
 8002bb0:	6823      	ldr	r3, [r4, #0]
 8002bb2:	f44f 7200 	mov.w	r2, #512	; 0x200
 8002bb6:	601a      	str	r2, [r3, #0]
 8002bb8:	06eb      	lsls	r3, r5, #27
 8002bba:	d525      	bpl.n	8002c08 <HAL_ADC_IRQHandler+0x218>
 8002bbc:	06f0      	lsls	r0, r6, #27
 8002bbe:	d523      	bpl.n	8002c08 <HAL_ADC_IRQHandler+0x218>
 8002bc0:	6b63      	ldr	r3, [r4, #52]	; 0x34
 8002bc2:	2b01      	cmp	r3, #1
 8002bc4:	d012      	beq.n	8002bec <HAL_ADC_IRQHandler+0x1fc>
 8002bc6:	6822      	ldr	r2, [r4, #0]
 8002bc8:	f1b2 4fa0 	cmp.w	r2, #1342177280	; 0x50000000
 8002bcc:	f000 80e4 	beq.w	8002d98 <HAL_ADC_IRQHandler+0x3a8>
 8002bd0:	4823      	ldr	r0, [pc, #140]	; (8002c60 <HAL_ADC_IRQHandler+0x270>)
 8002bd2:	4b25      	ldr	r3, [pc, #148]	; (8002c68 <HAL_ADC_IRQHandler+0x278>)
 8002bd4:	4923      	ldr	r1, [pc, #140]	; (8002c64 <HAL_ADC_IRQHandler+0x274>)
 8002bd6:	4282      	cmp	r2, r0
 8002bd8:	bf08      	it	eq
 8002bda:	460b      	moveq	r3, r1
 8002bdc:	6899      	ldr	r1, [r3, #8]
 8002bde:	06c9      	lsls	r1, r1, #27
 8002be0:	f040 80dc 	bne.w	8002d9c <HAL_ADC_IRQHandler+0x3ac>
 8002be4:	68d3      	ldr	r3, [r2, #12]
 8002be6:	f013 0f01 	tst.w	r3, #1
 8002bea:	d00a      	beq.n	8002c02 <HAL_ADC_IRQHandler+0x212>
 8002bec:	6c23      	ldr	r3, [r4, #64]	; 0x40
 8002bee:	f443 6380 	orr.w	r3, r3, #1024	; 0x400
 8002bf2:	6423      	str	r3, [r4, #64]	; 0x40
 8002bf4:	6c63      	ldr	r3, [r4, #68]	; 0x44
 8002bf6:	f043 0302 	orr.w	r3, r3, #2
 8002bfa:	6463      	str	r3, [r4, #68]	; 0x44
 8002bfc:	4620      	mov	r0, r4
 8002bfe:	f7ff fa3d 	bl	800207c <HAL_ADC_ErrorCallback>
 8002c02:	6823      	ldr	r3, [r4, #0]
 8002c04:	2210      	movs	r2, #16
 8002c06:	601a      	str	r2, [r3, #0]
 8002c08:	056a      	lsls	r2, r5, #21
 8002c0a:	d510      	bpl.n	8002c2e <HAL_ADC_IRQHandler+0x23e>
 8002c0c:	0573      	lsls	r3, r6, #21
 8002c0e:	d50e      	bpl.n	8002c2e <HAL_ADC_IRQHandler+0x23e>
 8002c10:	6c23      	ldr	r3, [r4, #64]	; 0x40
 8002c12:	f443 4380 	orr.w	r3, r3, #16384	; 0x4000
 8002c16:	6423      	str	r3, [r4, #64]	; 0x40
 8002c18:	6c63      	ldr	r3, [r4, #68]	; 0x44
 8002c1a:	f043 0308 	orr.w	r3, r3, #8
 8002c1e:	6463      	str	r3, [r4, #68]	; 0x44
 8002c20:	6823      	ldr	r3, [r4, #0]
 8002c22:	f44f 6280 	mov.w	r2, #1024	; 0x400
 8002c26:	601a      	str	r2, [r3, #0]
 8002c28:	4620      	mov	r0, r4
 8002c2a:	f7ff fedd 	bl	80029e8 <HAL_ADCEx_InjectedQueueOverflowCallback>
 8002c2e:	bd70      	pop	{r4, r5, r6, pc}
 8002c30:	4a0d      	ldr	r2, [pc, #52]	; (8002c68 <HAL_ADC_IRQHandler+0x278>)
 8002c32:	6892      	ldr	r2, [r2, #8]
 8002c34:	06d0      	lsls	r0, r2, #27
 8002c36:	f43f af07 	beq.w	8002a48 <HAL_ADC_IRQHandler+0x58>
 8002c3a:	4a0b      	ldr	r2, [pc, #44]	; (8002c68 <HAL_ADC_IRQHandler+0x278>)
 8002c3c:	6892      	ldr	r2, [r2, #8]
 8002c3e:	f002 021f 	and.w	r2, r2, #31
 8002c42:	2a05      	cmp	r2, #5
 8002c44:	f43f af00 	beq.w	8002a48 <HAL_ADC_IRQHandler+0x58>
 8002c48:	4a07      	ldr	r2, [pc, #28]	; (8002c68 <HAL_ADC_IRQHandler+0x278>)
 8002c4a:	6892      	ldr	r2, [r2, #8]
 8002c4c:	f002 021f 	and.w	r2, r2, #31
 8002c50:	2a09      	cmp	r2, #9
 8002c52:	f43f aef9 	beq.w	8002a48 <HAL_ADC_IRQHandler+0x58>
 8002c56:	4a05      	ldr	r2, [pc, #20]	; (8002c6c <HAL_ADC_IRQHandler+0x27c>)
 8002c58:	4293      	cmp	r3, r2
 8002c5a:	d123      	bne.n	8002ca4 <HAL_ADC_IRQHandler+0x2b4>
 8002c5c:	e6f4      	b.n	8002a48 <HAL_ADC_IRQHandler+0x58>
 8002c5e:	bf00      	nop
 8002c60:	50000100 	.word	0x50000100
 8002c64:	50000300 	.word	0x50000300
 8002c68:	50000700 	.word	0x50000700
 8002c6c:	50000400 	.word	0x50000400
 8002c70:	f1b3 4fa0 	cmp.w	r3, #1342177280	; 0x50000000
 8002c74:	d002      	beq.n	8002c7c <HAL_ADC_IRQHandler+0x28c>
 8002c76:	4a4b      	ldr	r2, [pc, #300]	; (8002da4 <HAL_ADC_IRQHandler+0x3b4>)
 8002c78:	4293      	cmp	r3, r2
 8002c7a:	d1e5      	bne.n	8002c48 <HAL_ADC_IRQHandler+0x258>
 8002c7c:	4a4a      	ldr	r2, [pc, #296]	; (8002da8 <HAL_ADC_IRQHandler+0x3b8>)
 8002c7e:	6892      	ldr	r2, [r2, #8]
 8002c80:	f002 021f 	and.w	r2, r2, #31
 8002c84:	2a09      	cmp	r2, #9
 8002c86:	f43f aedf 	beq.w	8002a48 <HAL_ADC_IRQHandler+0x58>
 8002c8a:	f1b3 4fa0 	cmp.w	r3, #1342177280	; 0x50000000
 8002c8e:	f43f aedb 	beq.w	8002a48 <HAL_ADC_IRQHandler+0x58>
 8002c92:	4a46      	ldr	r2, [pc, #280]	; (8002dac <HAL_ADC_IRQHandler+0x3bc>)
 8002c94:	4293      	cmp	r3, r2
 8002c96:	f43f aed7 	beq.w	8002a48 <HAL_ADC_IRQHandler+0x58>
 8002c9a:	4942      	ldr	r1, [pc, #264]	; (8002da4 <HAL_ADC_IRQHandler+0x3b4>)
 8002c9c:	428b      	cmp	r3, r1
 8002c9e:	bf08      	it	eq
 8002ca0:	f04f 42a0 	moveq.w	r2, #1342177280	; 0x50000000
 8002ca4:	68d2      	ldr	r2, [r2, #12]
 8002ca6:	e6d0      	b.n	8002a4a <HAL_ADC_IRQHandler+0x5a>
 8002ca8:	6c23      	ldr	r3, [r4, #64]	; 0x40
 8002caa:	f043 0310 	orr.w	r3, r3, #16
 8002cae:	6423      	str	r3, [r4, #64]	; 0x40
 8002cb0:	6c63      	ldr	r3, [r4, #68]	; 0x44
 8002cb2:	f043 0301 	orr.w	r3, r3, #1
 8002cb6:	6463      	str	r3, [r4, #68]	; 0x44
 8002cb8:	e6e3      	b.n	8002a82 <HAL_ADC_IRQHandler+0x92>
 8002cba:	4a3d      	ldr	r2, [pc, #244]	; (8002db0 <HAL_ADC_IRQHandler+0x3c0>)
 8002cbc:	6892      	ldr	r2, [r2, #8]
 8002cbe:	06d0      	lsls	r0, r2, #27
 8002cc0:	f43f af0a 	beq.w	8002ad8 <HAL_ADC_IRQHandler+0xe8>
 8002cc4:	4a3a      	ldr	r2, [pc, #232]	; (8002db0 <HAL_ADC_IRQHandler+0x3c0>)
 8002cc6:	6892      	ldr	r2, [r2, #8]
 8002cc8:	f002 021f 	and.w	r2, r2, #31
 8002ccc:	2a05      	cmp	r2, #5
 8002cce:	f43f af03 	beq.w	8002ad8 <HAL_ADC_IRQHandler+0xe8>
 8002cd2:	4a37      	ldr	r2, [pc, #220]	; (8002db0 <HAL_ADC_IRQHandler+0x3c0>)
 8002cd4:	6892      	ldr	r2, [r2, #8]
 8002cd6:	f002 021f 	and.w	r2, r2, #31
 8002cda:	2a09      	cmp	r2, #9
 8002cdc:	f43f aefc 	beq.w	8002ad8 <HAL_ADC_IRQHandler+0xe8>
 8002ce0:	4a32      	ldr	r2, [pc, #200]	; (8002dac <HAL_ADC_IRQHandler+0x3bc>)
 8002ce2:	4293      	cmp	r3, r2
 8002ce4:	d11a      	bne.n	8002d1c <HAL_ADC_IRQHandler+0x32c>
 8002ce6:	e6f7      	b.n	8002ad8 <HAL_ADC_IRQHandler+0xe8>
 8002ce8:	f1b3 4fa0 	cmp.w	r3, #1342177280	; 0x50000000
 8002cec:	d002      	beq.n	8002cf4 <HAL_ADC_IRQHandler+0x304>
 8002cee:	4a2d      	ldr	r2, [pc, #180]	; (8002da4 <HAL_ADC_IRQHandler+0x3b4>)
 8002cf0:	4293      	cmp	r3, r2
 8002cf2:	d1ee      	bne.n	8002cd2 <HAL_ADC_IRQHandler+0x2e2>
 8002cf4:	4a2c      	ldr	r2, [pc, #176]	; (8002da8 <HAL_ADC_IRQHandler+0x3b8>)
 8002cf6:	6892      	ldr	r2, [r2, #8]
 8002cf8:	f002 021f 	and.w	r2, r2, #31
 8002cfc:	2a09      	cmp	r2, #9
 8002cfe:	f43f aeeb 	beq.w	8002ad8 <HAL_ADC_IRQHandler+0xe8>
 8002d02:	f1b3 4fa0 	cmp.w	r3, #1342177280	; 0x50000000
 8002d06:	f43f aee7 	beq.w	8002ad8 <HAL_ADC_IRQHandler+0xe8>
 8002d0a:	4a28      	ldr	r2, [pc, #160]	; (8002dac <HAL_ADC_IRQHandler+0x3bc>)
 8002d0c:	4293      	cmp	r3, r2
 8002d0e:	f43f aee3 	beq.w	8002ad8 <HAL_ADC_IRQHandler+0xe8>
 8002d12:	4924      	ldr	r1, [pc, #144]	; (8002da4 <HAL_ADC_IRQHandler+0x3b4>)
 8002d14:	428b      	cmp	r3, r1
 8002d16:	bf08      	it	eq
 8002d18:	f04f 42a0 	moveq.w	r2, #1342177280	; 0x50000000
 8002d1c:	68d2      	ldr	r2, [r2, #12]
 8002d1e:	e6dc      	b.n	8002ada <HAL_ADC_IRQHandler+0xea>
 8002d20:	4a23      	ldr	r2, [pc, #140]	; (8002db0 <HAL_ADC_IRQHandler+0x3c0>)
 8002d22:	6892      	ldr	r2, [r2, #8]
 8002d24:	06d0      	lsls	r0, r2, #27
 8002d26:	f43f aeff 	beq.w	8002b28 <HAL_ADC_IRQHandler+0x138>
 8002d2a:	4a21      	ldr	r2, [pc, #132]	; (8002db0 <HAL_ADC_IRQHandler+0x3c0>)
 8002d2c:	6892      	ldr	r2, [r2, #8]
 8002d2e:	f002 021f 	and.w	r2, r2, #31
 8002d32:	2a06      	cmp	r2, #6
 8002d34:	f43f aef8 	beq.w	8002b28 <HAL_ADC_IRQHandler+0x138>
 8002d38:	4a1d      	ldr	r2, [pc, #116]	; (8002db0 <HAL_ADC_IRQHandler+0x3c0>)
 8002d3a:	6892      	ldr	r2, [r2, #8]
 8002d3c:	f002 021f 	and.w	r2, r2, #31
 8002d40:	2a07      	cmp	r2, #7
 8002d42:	f43f aef1 	beq.w	8002b28 <HAL_ADC_IRQHandler+0x138>
 8002d46:	4a19      	ldr	r2, [pc, #100]	; (8002dac <HAL_ADC_IRQHandler+0x3bc>)
 8002d48:	4293      	cmp	r3, r2
 8002d4a:	d11a      	bne.n	8002d82 <HAL_ADC_IRQHandler+0x392>
 8002d4c:	e6ec      	b.n	8002b28 <HAL_ADC_IRQHandler+0x138>
 8002d4e:	f1b3 4fa0 	cmp.w	r3, #1342177280	; 0x50000000
 8002d52:	d002      	beq.n	8002d5a <HAL_ADC_IRQHandler+0x36a>
 8002d54:	4a13      	ldr	r2, [pc, #76]	; (8002da4 <HAL_ADC_IRQHandler+0x3b4>)
 8002d56:	4293      	cmp	r3, r2
 8002d58:	d1ee      	bne.n	8002d38 <HAL_ADC_IRQHandler+0x348>
 8002d5a:	4a13      	ldr	r2, [pc, #76]	; (8002da8 <HAL_ADC_IRQHandler+0x3b8>)
 8002d5c:	6892      	ldr	r2, [r2, #8]
 8002d5e:	f002 021f 	and.w	r2, r2, #31
 8002d62:	2a07      	cmp	r2, #7
 8002d64:	f43f aee0 	beq.w	8002b28 <HAL_ADC_IRQHandler+0x138>
 8002d68:	f1b3 4fa0 	cmp.w	r3, #1342177280	; 0x50000000
 8002d6c:	f43f aedc 	beq.w	8002b28 <HAL_ADC_IRQHandler+0x138>
 8002d70:	4a0e      	ldr	r2, [pc, #56]	; (8002dac <HAL_ADC_IRQHandler+0x3bc>)
 8002d72:	4293      	cmp	r3, r2
 8002d74:	f43f aed8 	beq.w	8002b28 <HAL_ADC_IRQHandler+0x138>
 8002d78:	490a      	ldr	r1, [pc, #40]	; (8002da4 <HAL_ADC_IRQHandler+0x3b4>)
 8002d7a:	428b      	cmp	r3, r1
 8002d7c:	bf08      	it	eq
 8002d7e:	f04f 42a0 	moveq.w	r2, #1342177280	; 0x50000000
 8002d82:	68d2      	ldr	r2, [r2, #12]
 8002d84:	e6d1      	b.n	8002b2a <HAL_ADC_IRQHandler+0x13a>
 8002d86:	6c23      	ldr	r3, [r4, #64]	; 0x40
 8002d88:	f043 0310 	orr.w	r3, r3, #16
 8002d8c:	6423      	str	r3, [r4, #64]	; 0x40
 8002d8e:	6c63      	ldr	r3, [r4, #68]	; 0x44
 8002d90:	f043 0301 	orr.w	r3, r3, #1
 8002d94:	6463      	str	r3, [r4, #68]	; 0x44
 8002d96:	e6dd      	b.n	8002b54 <HAL_ADC_IRQHandler+0x164>
 8002d98:	4b03      	ldr	r3, [pc, #12]	; (8002da8 <HAL_ADC_IRQHandler+0x3b8>)
 8002d9a:	e71f      	b.n	8002bdc <HAL_ADC_IRQHandler+0x1ec>
 8002d9c:	689b      	ldr	r3, [r3, #8]
 8002d9e:	f413 4f40 	tst.w	r3, #49152	; 0xc000
 8002da2:	e722      	b.n	8002bea <HAL_ADC_IRQHandler+0x1fa>
 8002da4:	50000100 	.word	0x50000100
 8002da8:	50000300 	.word	0x50000300
 8002dac:	50000400 	.word	0x50000400
 8002db0:	50000700 	.word	0x50000700

08002db4 <HAL_ADC_ConfigChannel>:
 8002db4:	b5f7      	push	{r0, r1, r2, r4, r5, r6, r7, lr}
 8002db6:	2300      	movs	r3, #0
 8002db8:	9301      	str	r3, [sp, #4]
 8002dba:	f890 303c 	ldrb.w	r3, [r0, #60]	; 0x3c
 8002dbe:	68ce      	ldr	r6, [r1, #12]
 8002dc0:	2b01      	cmp	r3, #1
 8002dc2:	4605      	mov	r5, r0
 8002dc4:	f000 8172 	beq.w	80030ac <HAL_ADC_ConfigChannel+0x2f8>
 8002dc8:	682b      	ldr	r3, [r5, #0]
 8002dca:	2001      	movs	r0, #1
 8002dcc:	f885 003c 	strb.w	r0, [r5, #60]	; 0x3c
 8002dd0:	689a      	ldr	r2, [r3, #8]
 8002dd2:	0752      	lsls	r2, r2, #29
 8002dd4:	f100 8165 	bmi.w	80030a2 <HAL_ADC_ConfigChannel+0x2ee>
 8002dd8:	6848      	ldr	r0, [r1, #4]
 8002dda:	680c      	ldr	r4, [r1, #0]
 8002ddc:	2206      	movs	r2, #6
 8002dde:	2804      	cmp	r0, #4
 8002de0:	fb00 f202 	mul.w	r2, r0, r2
 8002de4:	d82c      	bhi.n	8002e40 <HAL_ADC_ConfigChannel+0x8c>
 8002de6:	6b18      	ldr	r0, [r3, #48]	; 0x30
 8002de8:	271f      	movs	r7, #31
 8002dea:	4097      	lsls	r7, r2
 8002dec:	ea20 0007 	bic.w	r0, r0, r7
 8002df0:	fa04 f202 	lsl.w	r2, r4, r2
 8002df4:	4302      	orrs	r2, r0
 8002df6:	631a      	str	r2, [r3, #48]	; 0x30
 8002df8:	689a      	ldr	r2, [r3, #8]
 8002dfa:	f012 0f0c 	tst.w	r2, #12
 8002dfe:	d158      	bne.n	8002eb2 <HAL_ADC_ConfigChannel+0xfe>
 8002e00:	2c09      	cmp	r4, #9
 8002e02:	f8d1 c008 	ldr.w	ip, [r1, #8]
 8002e06:	eb04 0244 	add.w	r2, r4, r4, lsl #1
 8002e0a:	f04f 0007 	mov.w	r0, #7
 8002e0e:	d93c      	bls.n	8002e8a <HAL_ADC_ConfigChannel+0xd6>
 8002e10:	699f      	ldr	r7, [r3, #24]
 8002e12:	3a1e      	subs	r2, #30
 8002e14:	4090      	lsls	r0, r2
 8002e16:	ea27 0000 	bic.w	r0, r7, r0
 8002e1a:	fa0c f202 	lsl.w	r2, ip, r2
 8002e1e:	4302      	orrs	r2, r0
 8002e20:	619a      	str	r2, [r3, #24]
 8002e22:	68da      	ldr	r2, [r3, #12]
 8002e24:	6948      	ldr	r0, [r1, #20]
 8002e26:	f3c2 02c1 	ubfx	r2, r2, #3, #2
 8002e2a:	0052      	lsls	r2, r2, #1
 8002e2c:	4090      	lsls	r0, r2
 8002e2e:	690a      	ldr	r2, [r1, #16]
 8002e30:	3a01      	subs	r2, #1
 8002e32:	06a7      	lsls	r7, r4, #26
 8002e34:	2a03      	cmp	r2, #3
 8002e36:	d86b      	bhi.n	8002f10 <HAL_ADC_ConfigChannel+0x15c>
 8002e38:	e8df f002 	tbb	[pc, r2]
 8002e3c:	5f544931 	.word	0x5f544931
 8002e40:	2809      	cmp	r0, #9
 8002e42:	d80a      	bhi.n	8002e5a <HAL_ADC_ConfigChannel+0xa6>
 8002e44:	6b58      	ldr	r0, [r3, #52]	; 0x34
 8002e46:	3a1e      	subs	r2, #30
 8002e48:	271f      	movs	r7, #31
 8002e4a:	4097      	lsls	r7, r2
 8002e4c:	ea20 0007 	bic.w	r0, r0, r7
 8002e50:	fa04 f202 	lsl.w	r2, r4, r2
 8002e54:	4302      	orrs	r2, r0
 8002e56:	635a      	str	r2, [r3, #52]	; 0x34
 8002e58:	e7ce      	b.n	8002df8 <HAL_ADC_ConfigChannel+0x44>
 8002e5a:	280e      	cmp	r0, #14
 8002e5c:	f04f 001f 	mov.w	r0, #31
 8002e60:	d809      	bhi.n	8002e76 <HAL_ADC_ConfigChannel+0xc2>
 8002e62:	6b9f      	ldr	r7, [r3, #56]	; 0x38
 8002e64:	3a3c      	subs	r2, #60	; 0x3c
 8002e66:	4090      	lsls	r0, r2
 8002e68:	ea27 0000 	bic.w	r0, r7, r0
 8002e6c:	fa04 f202 	lsl.w	r2, r4, r2
 8002e70:	4302      	orrs	r2, r0
 8002e72:	639a      	str	r2, [r3, #56]	; 0x38
 8002e74:	e7c0      	b.n	8002df8 <HAL_ADC_ConfigChannel+0x44>
 8002e76:	6bdf      	ldr	r7, [r3, #60]	; 0x3c
 8002e78:	3a5a      	subs	r2, #90	; 0x5a
 8002e7a:	4090      	lsls	r0, r2
 8002e7c:	ea27 0000 	bic.w	r0, r7, r0
 8002e80:	fa04 f202 	lsl.w	r2, r4, r2
 8002e84:	4302      	orrs	r2, r0
 8002e86:	63da      	str	r2, [r3, #60]	; 0x3c
 8002e88:	e7b6      	b.n	8002df8 <HAL_ADC_ConfigChannel+0x44>
 8002e8a:	695f      	ldr	r7, [r3, #20]
 8002e8c:	4090      	lsls	r0, r2
 8002e8e:	ea27 0000 	bic.w	r0, r7, r0
 8002e92:	fa0c fc02 	lsl.w	ip, ip, r2
 8002e96:	ea40 000c 	orr.w	r0, r0, ip
 8002e9a:	6158      	str	r0, [r3, #20]
 8002e9c:	e7c1      	b.n	8002e22 <HAL_ADC_ConfigChannel+0x6e>
 8002e9e:	f8d3 c060 	ldr.w	ip, [r3, #96]	; 0x60
 8002ea2:	4a83      	ldr	r2, [pc, #524]	; (80030b0 <HAL_ADC_ConfigChannel+0x2fc>)
 8002ea4:	ea0c 0202 	and.w	r2, ip, r2
 8002ea8:	433a      	orrs	r2, r7
 8002eaa:	4302      	orrs	r2, r0
 8002eac:	f042 4200 	orr.w	r2, r2, #2147483648	; 0x80000000
 8002eb0:	661a      	str	r2, [r3, #96]	; 0x60
 8002eb2:	689a      	ldr	r2, [r3, #8]
 8002eb4:	f002 0203 	and.w	r2, r2, #3
 8002eb8:	2a01      	cmp	r2, #1
 8002eba:	d14d      	bne.n	8002f58 <HAL_ADC_ConfigChannel+0x1a4>
 8002ebc:	681a      	ldr	r2, [r3, #0]
 8002ebe:	07d7      	lsls	r7, r2, #31
 8002ec0:	d54a      	bpl.n	8002f58 <HAL_ADC_ConfigChannel+0x1a4>
 8002ec2:	2000      	movs	r0, #0
 8002ec4:	2300      	movs	r3, #0
 8002ec6:	f885 303c 	strb.w	r3, [r5, #60]	; 0x3c
 8002eca:	b003      	add	sp, #12
 8002ecc:	bdf0      	pop	{r4, r5, r6, r7, pc}
 8002ece:	f8d3 c064 	ldr.w	ip, [r3, #100]	; 0x64
 8002ed2:	4a77      	ldr	r2, [pc, #476]	; (80030b0 <HAL_ADC_ConfigChannel+0x2fc>)
 8002ed4:	ea0c 0202 	and.w	r2, ip, r2
 8002ed8:	433a      	orrs	r2, r7
 8002eda:	4302      	orrs	r2, r0
 8002edc:	f042 4200 	orr.w	r2, r2, #2147483648	; 0x80000000
 8002ee0:	665a      	str	r2, [r3, #100]	; 0x64
 8002ee2:	e7e6      	b.n	8002eb2 <HAL_ADC_ConfigChannel+0xfe>
 8002ee4:	f8d3 c068 	ldr.w	ip, [r3, #104]	; 0x68
 8002ee8:	4a71      	ldr	r2, [pc, #452]	; (80030b0 <HAL_ADC_ConfigChannel+0x2fc>)
 8002eea:	ea0c 0202 	and.w	r2, ip, r2
 8002eee:	433a      	orrs	r2, r7
 8002ef0:	4302      	orrs	r2, r0
 8002ef2:	f042 4200 	orr.w	r2, r2, #2147483648	; 0x80000000
 8002ef6:	669a      	str	r2, [r3, #104]	; 0x68
 8002ef8:	e7db      	b.n	8002eb2 <HAL_ADC_ConfigChannel+0xfe>
 8002efa:	f8d3 c06c 	ldr.w	ip, [r3, #108]	; 0x6c
 8002efe:	4a6c      	ldr	r2, [pc, #432]	; (80030b0 <HAL_ADC_ConfigChannel+0x2fc>)
 8002f00:	ea0c 0202 	and.w	r2, ip, r2
 8002f04:	433a      	orrs	r2, r7
 8002f06:	4302      	orrs	r2, r0
 8002f08:	f042 4200 	orr.w	r2, r2, #2147483648	; 0x80000000
 8002f0c:	66da      	str	r2, [r3, #108]	; 0x6c
 8002f0e:	e7d0      	b.n	8002eb2 <HAL_ADC_ConfigChannel+0xfe>
 8002f10:	6e1a      	ldr	r2, [r3, #96]	; 0x60
 8002f12:	f002 42f8 	and.w	r2, r2, #2080374784	; 0x7c000000
 8002f16:	4297      	cmp	r7, r2
 8002f18:	bf02      	ittt	eq
 8002f1a:	6e1a      	ldreq	r2, [r3, #96]	; 0x60
 8002f1c:	f022 4200 	biceq.w	r2, r2, #2147483648	; 0x80000000
 8002f20:	661a      	streq	r2, [r3, #96]	; 0x60
 8002f22:	6e5a      	ldr	r2, [r3, #100]	; 0x64
 8002f24:	f002 42f8 	and.w	r2, r2, #2080374784	; 0x7c000000
 8002f28:	4297      	cmp	r7, r2
 8002f2a:	bf02      	ittt	eq
 8002f2c:	6e5a      	ldreq	r2, [r3, #100]	; 0x64
 8002f2e:	f022 4200 	biceq.w	r2, r2, #2147483648	; 0x80000000
 8002f32:	665a      	streq	r2, [r3, #100]	; 0x64
 8002f34:	6e9a      	ldr	r2, [r3, #104]	; 0x68
 8002f36:	f002 42f8 	and.w	r2, r2, #2080374784	; 0x7c000000
 8002f3a:	4297      	cmp	r7, r2
 8002f3c:	bf02      	ittt	eq
 8002f3e:	6e9a      	ldreq	r2, [r3, #104]	; 0x68
 8002f40:	f022 4200 	biceq.w	r2, r2, #2147483648	; 0x80000000
 8002f44:	669a      	streq	r2, [r3, #104]	; 0x68
 8002f46:	6eda      	ldr	r2, [r3, #108]	; 0x6c
 8002f48:	f002 42f8 	and.w	r2, r2, #2080374784	; 0x7c000000
 8002f4c:	4297      	cmp	r7, r2
 8002f4e:	d1b0      	bne.n	8002eb2 <HAL_ADC_ConfigChannel+0xfe>
 8002f50:	6eda      	ldr	r2, [r3, #108]	; 0x6c
 8002f52:	f022 4200 	bic.w	r2, r2, #2147483648	; 0x80000000
 8002f56:	e7d9      	b.n	8002f0c <HAL_ADC_ConfigChannel+0x158>
 8002f58:	2201      	movs	r2, #1
 8002f5a:	2e01      	cmp	r6, #1
 8002f5c:	fa02 f204 	lsl.w	r2, r2, r4
 8002f60:	d00a      	beq.n	8002f78 <HAL_ADC_ConfigChannel+0x1c4>
 8002f62:	f8d3 10b0 	ldr.w	r1, [r3, #176]	; 0xb0
 8002f66:	ea21 0202 	bic.w	r2, r1, r2
 8002f6a:	f8c3 20b0 	str.w	r2, [r3, #176]	; 0xb0
 8002f6e:	f1b3 4fa0 	cmp.w	r3, #1342177280	; 0x50000000
 8002f72:	d127      	bne.n	8002fc4 <HAL_ADC_ConfigChannel+0x210>
 8002f74:	494f      	ldr	r1, [pc, #316]	; (80030b4 <HAL_ADC_ConfigChannel+0x300>)
 8002f76:	e02b      	b.n	8002fd0 <HAL_ADC_ConfigChannel+0x21c>
 8002f78:	f8d3 00b0 	ldr.w	r0, [r3, #176]	; 0xb0
 8002f7c:	2c09      	cmp	r4, #9
 8002f7e:	ea42 0200 	orr.w	r2, r2, r0
 8002f82:	f8c3 20b0 	str.w	r2, [r3, #176]	; 0xb0
 8002f86:	6888      	ldr	r0, [r1, #8]
 8002f88:	d90c      	bls.n	8002fa4 <HAL_ADC_ConfigChannel+0x1f0>
 8002f8a:	eb04 0244 	add.w	r2, r4, r4, lsl #1
 8002f8e:	6999      	ldr	r1, [r3, #24]
 8002f90:	3a1b      	subs	r2, #27
 8002f92:	2607      	movs	r6, #7
 8002f94:	4096      	lsls	r6, r2
 8002f96:	ea21 0106 	bic.w	r1, r1, r6
 8002f9a:	fa00 f202 	lsl.w	r2, r0, r2
 8002f9e:	430a      	orrs	r2, r1
 8002fa0:	619a      	str	r2, [r3, #24]
 8002fa2:	e7e4      	b.n	8002f6e <HAL_ADC_ConfigChannel+0x1ba>
 8002fa4:	1c61      	adds	r1, r4, #1
 8002fa6:	695a      	ldr	r2, [r3, #20]
 8002fa8:	eb01 0141 	add.w	r1, r1, r1, lsl #1
 8002fac:	2607      	movs	r6, #7
 8002fae:	408e      	lsls	r6, r1
 8002fb0:	ea22 0206 	bic.w	r2, r2, r6
 8002fb4:	fa00 f101 	lsl.w	r1, r0, r1
 8002fb8:	430a      	orrs	r2, r1
 8002fba:	f1b3 4fa0 	cmp.w	r3, #1342177280	; 0x50000000
 8002fbe:	615a      	str	r2, [r3, #20]
 8002fc0:	f43f af7f 	beq.w	8002ec2 <HAL_ADC_ConfigChannel+0x10e>
 8002fc4:	483c      	ldr	r0, [pc, #240]	; (80030b8 <HAL_ADC_ConfigChannel+0x304>)
 8002fc6:	493b      	ldr	r1, [pc, #236]	; (80030b4 <HAL_ADC_ConfigChannel+0x300>)
 8002fc8:	4a3c      	ldr	r2, [pc, #240]	; (80030bc <HAL_ADC_ConfigChannel+0x308>)
 8002fca:	4283      	cmp	r3, r0
 8002fcc:	bf18      	it	ne
 8002fce:	4611      	movne	r1, r2
 8002fd0:	2c10      	cmp	r4, #16
 8002fd2:	d13c      	bne.n	800304e <HAL_ADC_ConfigChannel+0x29a>
 8002fd4:	688a      	ldr	r2, [r1, #8]
 8002fd6:	f412 0f00 	tst.w	r2, #8388608	; 0x800000
 8002fda:	f47f af72 	bne.w	8002ec2 <HAL_ADC_ConfigChannel+0x10e>
 8002fde:	f1b3 4fa0 	cmp.w	r3, #1342177280	; 0x50000000
 8002fe2:	4a35      	ldr	r2, [pc, #212]	; (80030b8 <HAL_ADC_ConfigChannel+0x304>)
 8002fe4:	d009      	beq.n	8002ffa <HAL_ADC_ConfigChannel+0x246>
 8002fe6:	4293      	cmp	r3, r2
 8002fe8:	d03e      	beq.n	8003068 <HAL_ADC_ConfigChannel+0x2b4>
 8002fea:	f502 7240 	add.w	r2, r2, #768	; 0x300
 8002fee:	4293      	cmp	r3, r2
 8002ff0:	4833      	ldr	r0, [pc, #204]	; (80030c0 <HAL_ADC_ConfigChannel+0x30c>)
 8002ff2:	d03c      	beq.n	800306e <HAL_ADC_ConfigChannel+0x2ba>
 8002ff4:	4283      	cmp	r3, r0
 8002ff6:	bf18      	it	ne
 8002ff8:	2200      	movne	r2, #0
 8002ffa:	6898      	ldr	r0, [r3, #8]
 8002ffc:	f000 0003 	and.w	r0, r0, #3
 8003000:	2801      	cmp	r0, #1
 8003002:	d102      	bne.n	800300a <HAL_ADC_ConfigChannel+0x256>
 8003004:	6818      	ldr	r0, [r3, #0]
 8003006:	07c0      	lsls	r0, r0, #31
 8003008:	d445      	bmi.n	8003096 <HAL_ADC_ConfigChannel+0x2e2>
 800300a:	b13a      	cbz	r2, 800301c <HAL_ADC_ConfigChannel+0x268>
 800300c:	6890      	ldr	r0, [r2, #8]
 800300e:	f000 0003 	and.w	r0, r0, #3
 8003012:	2801      	cmp	r0, #1
 8003014:	d102      	bne.n	800301c <HAL_ADC_ConfigChannel+0x268>
 8003016:	6812      	ldr	r2, [r2, #0]
 8003018:	07d2      	lsls	r2, r2, #31
 800301a:	d43c      	bmi.n	8003096 <HAL_ADC_ConfigChannel+0x2e2>
 800301c:	2c10      	cmp	r4, #16
 800301e:	d128      	bne.n	8003072 <HAL_ADC_ConfigChannel+0x2be>
 8003020:	f1b3 4fa0 	cmp.w	r3, #1342177280	; 0x50000000
 8003024:	f47f af4d 	bne.w	8002ec2 <HAL_ADC_ConfigChannel+0x10e>
 8003028:	688b      	ldr	r3, [r1, #8]
 800302a:	4a26      	ldr	r2, [pc, #152]	; (80030c4 <HAL_ADC_ConfigChannel+0x310>)
 800302c:	f443 0300 	orr.w	r3, r3, #8388608	; 0x800000
 8003030:	608b      	str	r3, [r1, #8]
 8003032:	4b25      	ldr	r3, [pc, #148]	; (80030c8 <HAL_ADC_ConfigChannel+0x314>)
 8003034:	681b      	ldr	r3, [r3, #0]
 8003036:	fbb3 f3f2 	udiv	r3, r3, r2
 800303a:	220a      	movs	r2, #10
 800303c:	4353      	muls	r3, r2
 800303e:	9301      	str	r3, [sp, #4]
 8003040:	9b01      	ldr	r3, [sp, #4]
 8003042:	2b00      	cmp	r3, #0
 8003044:	f43f af3d 	beq.w	8002ec2 <HAL_ADC_ConfigChannel+0x10e>
 8003048:	9b01      	ldr	r3, [sp, #4]
 800304a:	3b01      	subs	r3, #1
 800304c:	e7f7      	b.n	800303e <HAL_ADC_ConfigChannel+0x28a>
 800304e:	2c11      	cmp	r4, #17
 8003050:	d103      	bne.n	800305a <HAL_ADC_ConfigChannel+0x2a6>
 8003052:	688a      	ldr	r2, [r1, #8]
 8003054:	f012 7f80 	tst.w	r2, #16777216	; 0x1000000
 8003058:	e7bf      	b.n	8002fda <HAL_ADC_ConfigChannel+0x226>
 800305a:	2c12      	cmp	r4, #18
 800305c:	f47f af31 	bne.w	8002ec2 <HAL_ADC_ConfigChannel+0x10e>
 8003060:	688a      	ldr	r2, [r1, #8]
 8003062:	f412 0f80 	tst.w	r2, #4194304	; 0x400000
 8003066:	e7b8      	b.n	8002fda <HAL_ADC_ConfigChannel+0x226>
 8003068:	f04f 42a0 	mov.w	r2, #1342177280	; 0x50000000
 800306c:	e7c5      	b.n	8002ffa <HAL_ADC_ConfigChannel+0x246>
 800306e:	4602      	mov	r2, r0
 8003070:	e7c3      	b.n	8002ffa <HAL_ADC_ConfigChannel+0x246>
 8003072:	2c11      	cmp	r4, #17
 8003074:	d108      	bne.n	8003088 <HAL_ADC_ConfigChannel+0x2d4>
 8003076:	f1b3 4fa0 	cmp.w	r3, #1342177280	; 0x50000000
 800307a:	f47f af22 	bne.w	8002ec2 <HAL_ADC_ConfigChannel+0x10e>
 800307e:	688b      	ldr	r3, [r1, #8]
 8003080:	f043 7380 	orr.w	r3, r3, #16777216	; 0x1000000
 8003084:	608b      	str	r3, [r1, #8]
 8003086:	e71c      	b.n	8002ec2 <HAL_ADC_ConfigChannel+0x10e>
 8003088:	2c12      	cmp	r4, #18
 800308a:	f47f af1a 	bne.w	8002ec2 <HAL_ADC_ConfigChannel+0x10e>
 800308e:	688b      	ldr	r3, [r1, #8]
 8003090:	f443 0380 	orr.w	r3, r3, #4194304	; 0x400000
 8003094:	e7f6      	b.n	8003084 <HAL_ADC_ConfigChannel+0x2d0>
 8003096:	6c2b      	ldr	r3, [r5, #64]	; 0x40
 8003098:	f043 0320 	orr.w	r3, r3, #32
 800309c:	642b      	str	r3, [r5, #64]	; 0x40
 800309e:	2001      	movs	r0, #1
 80030a0:	e710      	b.n	8002ec4 <HAL_ADC_ConfigChannel+0x110>
 80030a2:	6c2b      	ldr	r3, [r5, #64]	; 0x40
 80030a4:	f043 0320 	orr.w	r3, r3, #32
 80030a8:	642b      	str	r3, [r5, #64]	; 0x40
 80030aa:	e70b      	b.n	8002ec4 <HAL_ADC_ConfigChannel+0x110>
 80030ac:	2002      	movs	r0, #2
 80030ae:	e70c      	b.n	8002eca <HAL_ADC_ConfigChannel+0x116>
 80030b0:	83fff000 	.word	0x83fff000
 80030b4:	50000300 	.word	0x50000300
 80030b8:	50000100 	.word	0x50000100
 80030bc:	50000700 	.word	0x50000700
 80030c0:	50000500 	.word	0x50000500
 80030c4:	000f4240 	.word	0x000f4240
 80030c8:	2000000c 	.word	0x2000000c

080030cc <HAL_ADCEx_MultiModeConfigChannel>:
 80030cc:	b5f0      	push	{r4, r5, r6, r7, lr}
 80030ce:	4605      	mov	r5, r0
 80030d0:	4b3c      	ldr	r3, [pc, #240]	; (80031c4 <HAL_ADCEx_MultiModeConfigChannel+0xf8>)
 80030d2:	682c      	ldr	r4, [r5, #0]
 80030d4:	6808      	ldr	r0, [r1, #0]
 80030d6:	f1b4 4fa0 	cmp.w	r4, #1342177280	; 0x50000000
 80030da:	d009      	beq.n	80030f0 <HAL_ADCEx_MultiModeConfigChannel+0x24>
 80030dc:	429c      	cmp	r4, r3
 80030de:	d035      	beq.n	800314c <HAL_ADCEx_MultiModeConfigChannel+0x80>
 80030e0:	4a39      	ldr	r2, [pc, #228]	; (80031c8 <HAL_ADCEx_MultiModeConfigChannel+0xfc>)
 80030e2:	4294      	cmp	r4, r2
 80030e4:	f503 6380 	add.w	r3, r3, #1024	; 0x400
 80030e8:	d002      	beq.n	80030f0 <HAL_ADCEx_MultiModeConfigChannel+0x24>
 80030ea:	429c      	cmp	r4, r3
 80030ec:	d166      	bne.n	80031bc <HAL_ADCEx_MultiModeConfigChannel+0xf0>
 80030ee:	4613      	mov	r3, r2
 80030f0:	f895 203c 	ldrb.w	r2, [r5, #60]	; 0x3c
 80030f4:	2a01      	cmp	r2, #1
 80030f6:	d063      	beq.n	80031c0 <HAL_ADCEx_MultiModeConfigChannel+0xf4>
 80030f8:	2201      	movs	r2, #1
 80030fa:	f885 203c 	strb.w	r2, [r5, #60]	; 0x3c
 80030fe:	68a2      	ldr	r2, [r4, #8]
 8003100:	0752      	lsls	r2, r2, #29
 8003102:	d455      	bmi.n	80031b0 <HAL_ADCEx_MultiModeConfigChannel+0xe4>
 8003104:	689a      	ldr	r2, [r3, #8]
 8003106:	0757      	lsls	r7, r2, #29
 8003108:	d452      	bmi.n	80031b0 <HAL_ADCEx_MultiModeConfigChannel+0xe4>
 800310a:	f1b4 4fa0 	cmp.w	r4, #1342177280	; 0x50000000
 800310e:	d020      	beq.n	8003152 <HAL_ADCEx_MultiModeConfigChannel+0x86>
 8003110:	4f2c      	ldr	r7, [pc, #176]	; (80031c4 <HAL_ADCEx_MultiModeConfigChannel+0xf8>)
 8003112:	4a2e      	ldr	r2, [pc, #184]	; (80031cc <HAL_ADCEx_MultiModeConfigChannel+0x100>)
 8003114:	4e2e      	ldr	r6, [pc, #184]	; (80031d0 <HAL_ADCEx_MultiModeConfigChannel+0x104>)
 8003116:	42bc      	cmp	r4, r7
 8003118:	bf08      	it	eq
 800311a:	4632      	moveq	r2, r6
 800311c:	b368      	cbz	r0, 800317a <HAL_ADCEx_MultiModeConfigChannel+0xae>
 800311e:	6897      	ldr	r7, [r2, #8]
 8003120:	f895 c030 	ldrb.w	ip, [r5, #48]	; 0x30
 8003124:	684e      	ldr	r6, [r1, #4]
 8003126:	f427 4760 	bic.w	r7, r7, #57344	; 0xe000
 800312a:	ea46 364c 	orr.w	r6, r6, ip, lsl #13
 800312e:	433e      	orrs	r6, r7
 8003130:	6096      	str	r6, [r2, #8]
 8003132:	68a6      	ldr	r6, [r4, #8]
 8003134:	f006 0603 	and.w	r6, r6, #3
 8003138:	2e01      	cmp	r6, #1
 800313a:	d10c      	bne.n	8003156 <HAL_ADCEx_MultiModeConfigChannel+0x8a>
 800313c:	6824      	ldr	r4, [r4, #0]
 800313e:	07e6      	lsls	r6, r4, #31
 8003140:	d509      	bpl.n	8003156 <HAL_ADCEx_MultiModeConfigChannel+0x8a>
 8003142:	2000      	movs	r0, #0
 8003144:	2300      	movs	r3, #0
 8003146:	f885 303c 	strb.w	r3, [r5, #60]	; 0x3c
 800314a:	bdf0      	pop	{r4, r5, r6, r7, pc}
 800314c:	f04f 43a0 	mov.w	r3, #1342177280	; 0x50000000
 8003150:	e7ce      	b.n	80030f0 <HAL_ADCEx_MultiModeConfigChannel+0x24>
 8003152:	4a1f      	ldr	r2, [pc, #124]	; (80031d0 <HAL_ADCEx_MultiModeConfigChannel+0x104>)
 8003154:	e7e2      	b.n	800311c <HAL_ADCEx_MultiModeConfigChannel+0x50>
 8003156:	689c      	ldr	r4, [r3, #8]
 8003158:	f004 0403 	and.w	r4, r4, #3
 800315c:	2c01      	cmp	r4, #1
 800315e:	d102      	bne.n	8003166 <HAL_ADCEx_MultiModeConfigChannel+0x9a>
 8003160:	681b      	ldr	r3, [r3, #0]
 8003162:	07dc      	lsls	r4, r3, #31
 8003164:	d4ed      	bmi.n	8003142 <HAL_ADCEx_MultiModeConfigChannel+0x76>
 8003166:	6893      	ldr	r3, [r2, #8]
 8003168:	6889      	ldr	r1, [r1, #8]
 800316a:	f423 6371 	bic.w	r3, r3, #3856	; 0xf10
 800316e:	4308      	orrs	r0, r1
 8003170:	f023 030f 	bic.w	r3, r3, #15
 8003174:	4318      	orrs	r0, r3
 8003176:	6090      	str	r0, [r2, #8]
 8003178:	e7e3      	b.n	8003142 <HAL_ADCEx_MultiModeConfigChannel+0x76>
 800317a:	6891      	ldr	r1, [r2, #8]
 800317c:	f421 4160 	bic.w	r1, r1, #57344	; 0xe000
 8003180:	6091      	str	r1, [r2, #8]
 8003182:	68a1      	ldr	r1, [r4, #8]
 8003184:	f001 0103 	and.w	r1, r1, #3
 8003188:	2901      	cmp	r1, #1
 800318a:	d102      	bne.n	8003192 <HAL_ADCEx_MultiModeConfigChannel+0xc6>
 800318c:	6821      	ldr	r1, [r4, #0]
 800318e:	07c9      	lsls	r1, r1, #31
 8003190:	d4d7      	bmi.n	8003142 <HAL_ADCEx_MultiModeConfigChannel+0x76>
 8003192:	6899      	ldr	r1, [r3, #8]
 8003194:	f001 0103 	and.w	r1, r1, #3
 8003198:	2901      	cmp	r1, #1
 800319a:	d102      	bne.n	80031a2 <HAL_ADCEx_MultiModeConfigChannel+0xd6>
 800319c:	681b      	ldr	r3, [r3, #0]
 800319e:	07db      	lsls	r3, r3, #31
 80031a0:	d4cf      	bmi.n	8003142 <HAL_ADCEx_MultiModeConfigChannel+0x76>
 80031a2:	6893      	ldr	r3, [r2, #8]
 80031a4:	f423 6371 	bic.w	r3, r3, #3856	; 0xf10
 80031a8:	f023 030f 	bic.w	r3, r3, #15
 80031ac:	6093      	str	r3, [r2, #8]
 80031ae:	e7c8      	b.n	8003142 <HAL_ADCEx_MultiModeConfigChannel+0x76>
 80031b0:	6c2b      	ldr	r3, [r5, #64]	; 0x40
 80031b2:	f043 0320 	orr.w	r3, r3, #32
 80031b6:	642b      	str	r3, [r5, #64]	; 0x40
 80031b8:	2001      	movs	r0, #1
 80031ba:	e7c3      	b.n	8003144 <HAL_ADCEx_MultiModeConfigChannel+0x78>
 80031bc:	2001      	movs	r0, #1
 80031be:	e7c4      	b.n	800314a <HAL_ADCEx_MultiModeConfigChannel+0x7e>
 80031c0:	2002      	movs	r0, #2
 80031c2:	e7c2      	b.n	800314a <HAL_ADCEx_MultiModeConfigChannel+0x7e>
 80031c4:	50000100 	.word	0x50000100
 80031c8:	50000400 	.word	0x50000400
 80031cc:	50000700 	.word	0x50000700
 80031d0:	50000300 	.word	0x50000300

080031d4 <HAL_NVIC_SetPriorityGrouping>:
 80031d4:	4907      	ldr	r1, [pc, #28]	; (80031f4 <HAL_NVIC_SetPriorityGrouping+0x20>)
 80031d6:	68ca      	ldr	r2, [r1, #12]
 80031d8:	f422 62e0 	bic.w	r2, r2, #1792	; 0x700
 80031dc:	0203      	lsls	r3, r0, #8
 80031de:	0412      	lsls	r2, r2, #16
 80031e0:	f403 63e0 	and.w	r3, r3, #1792	; 0x700
 80031e4:	0c12      	lsrs	r2, r2, #16
 80031e6:	4313      	orrs	r3, r2
 80031e8:	f043 63bf 	orr.w	r3, r3, #100139008	; 0x5f80000
 80031ec:	f443 3300 	orr.w	r3, r3, #131072	; 0x20000
 80031f0:	60cb      	str	r3, [r1, #12]
 80031f2:	4770      	bx	lr
 80031f4:	e000ed00 	.word	0xe000ed00

080031f8 <HAL_NVIC_SetPriority>:
 80031f8:	4b16      	ldr	r3, [pc, #88]	; (8003254 <HAL_NVIC_SetPriority+0x5c>)
 80031fa:	b530      	push	{r4, r5, lr}
 80031fc:	68dc      	ldr	r4, [r3, #12]
 80031fe:	f3c4 2402 	ubfx	r4, r4, #8, #3
 8003202:	f1c4 0307 	rsb	r3, r4, #7
 8003206:	1d25      	adds	r5, r4, #4
 8003208:	2b04      	cmp	r3, #4
 800320a:	bf28      	it	cs
 800320c:	2304      	movcs	r3, #4
 800320e:	2d06      	cmp	r5, #6
 8003210:	f04f 35ff 	mov.w	r5, #4294967295
 8003214:	bf8c      	ite	hi
 8003216:	3c03      	subhi	r4, #3
 8003218:	2400      	movls	r4, #0
 800321a:	fa05 f303 	lsl.w	r3, r5, r3
 800321e:	ea21 0303 	bic.w	r3, r1, r3
 8003222:	40a5      	lsls	r5, r4
 8003224:	ea22 0205 	bic.w	r2, r2, r5
 8003228:	40a3      	lsls	r3, r4
 800322a:	2800      	cmp	r0, #0
 800322c:	ea43 0302 	orr.w	r3, r3, r2
 8003230:	bfac      	ite	ge
 8003232:	f100 4060 	addge.w	r0, r0, #3758096384	; 0xe0000000
 8003236:	4a08      	ldrlt	r2, [pc, #32]	; (8003258 <HAL_NVIC_SetPriority+0x60>)
 8003238:	ea4f 1303 	mov.w	r3, r3, lsl #4
 800323c:	bfb8      	it	lt
 800323e:	f000 000f 	andlt.w	r0, r0, #15
 8003242:	b2db      	uxtb	r3, r3
 8003244:	bfaa      	itet	ge
 8003246:	f500 4061 	addge.w	r0, r0, #57600	; 0xe100
 800324a:	5413      	strblt	r3, [r2, r0]
 800324c:	f880 3300 	strbge.w	r3, [r0, #768]	; 0x300
 8003250:	bd30      	pop	{r4, r5, pc}
 8003252:	bf00      	nop
 8003254:	e000ed00 	.word	0xe000ed00
 8003258:	e000ed14 	.word	0xe000ed14

0800325c <HAL_NVIC_EnableIRQ>:
 800325c:	2800      	cmp	r0, #0
 800325e:	db07      	blt.n	8003270 <HAL_NVIC_EnableIRQ+0x14>
 8003260:	0941      	lsrs	r1, r0, #5
 8003262:	4a04      	ldr	r2, [pc, #16]	; (8003274 <HAL_NVIC_EnableIRQ+0x18>)
 8003264:	f000 001f 	and.w	r0, r0, #31
 8003268:	2301      	movs	r3, #1
 800326a:	4083      	lsls	r3, r0
 800326c:	f842 3021 	str.w	r3, [r2, r1, lsl #2]
 8003270:	4770      	bx	lr
 8003272:	bf00      	nop
 8003274:	e000e100 	.word	0xe000e100

08003278 <HAL_NVIC_DisableIRQ>:
 8003278:	2800      	cmp	r0, #0
 800327a:	db0c      	blt.n	8003296 <HAL_NVIC_DisableIRQ+0x1e>
 800327c:	0943      	lsrs	r3, r0, #5
 800327e:	4906      	ldr	r1, [pc, #24]	; (8003298 <HAL_NVIC_DisableIRQ+0x20>)
 8003280:	f000 001f 	and.w	r0, r0, #31
 8003284:	3320      	adds	r3, #32
 8003286:	2201      	movs	r2, #1
 8003288:	4082      	lsls	r2, r0
 800328a:	f841 2023 	str.w	r2, [r1, r3, lsl #2]
 800328e:	f3bf 8f4f 	dsb	sy
 8003292:	f3bf 8f6f 	isb	sy
 8003296:	4770      	bx	lr
 8003298:	e000e100 	.word	0xe000e100

0800329c <HAL_SYSTICK_Config>:
 800329c:	3801      	subs	r0, #1
 800329e:	f1b0 7f80 	cmp.w	r0, #16777216	; 0x1000000
 80032a2:	d20b      	bcs.n	80032bc <HAL_SYSTICK_Config+0x20>
 80032a4:	f04f 23e0 	mov.w	r3, #3758153728	; 0xe000e000
 80032a8:	4a05      	ldr	r2, [pc, #20]	; (80032c0 <HAL_SYSTICK_Config+0x24>)
 80032aa:	6158      	str	r0, [r3, #20]
 80032ac:	21f0      	movs	r1, #240	; 0xf0
 80032ae:	f882 1023 	strb.w	r1, [r2, #35]	; 0x23
 80032b2:	2000      	movs	r0, #0
 80032b4:	2207      	movs	r2, #7
 80032b6:	6198      	str	r0, [r3, #24]
 80032b8:	611a      	str	r2, [r3, #16]
 80032ba:	4770      	bx	lr
 80032bc:	2001      	movs	r0, #1
 80032be:	4770      	bx	lr
 80032c0:	e000ed00 	.word	0xe000ed00

080032c4 <DMA_CalcBaseAndBitshift>:
 80032c4:	6802      	ldr	r2, [r0, #0]
 80032c6:	4b0a      	ldr	r3, [pc, #40]	; (80032f0 <DMA_CalcBaseAndBitshift+0x2c>)
 80032c8:	429a      	cmp	r2, r3
 80032ca:	f04f 0114 	mov.w	r1, #20
 80032ce:	d808      	bhi.n	80032e2 <DMA_CalcBaseAndBitshift+0x1e>
 80032d0:	4b08      	ldr	r3, [pc, #32]	; (80032f4 <DMA_CalcBaseAndBitshift+0x30>)
 80032d2:	4413      	add	r3, r2
 80032d4:	4a08      	ldr	r2, [pc, #32]	; (80032f8 <DMA_CalcBaseAndBitshift+0x34>)
 80032d6:	fbb3 f3f1 	udiv	r3, r3, r1
 80032da:	009b      	lsls	r3, r3, #2
 80032dc:	e9c0 230f 	strd	r2, r3, [r0, #60]	; 0x3c
 80032e0:	4770      	bx	lr
 80032e2:	4b06      	ldr	r3, [pc, #24]	; (80032fc <DMA_CalcBaseAndBitshift+0x38>)
 80032e4:	4413      	add	r3, r2
 80032e6:	4a06      	ldr	r2, [pc, #24]	; (8003300 <DMA_CalcBaseAndBitshift+0x3c>)
 80032e8:	fbb3 f3f1 	udiv	r3, r3, r1
 80032ec:	009b      	lsls	r3, r3, #2
 80032ee:	e7f5      	b.n	80032dc <DMA_CalcBaseAndBitshift+0x18>
 80032f0:	40020407 	.word	0x40020407
 80032f4:	bffdfff8 	.word	0xbffdfff8
 80032f8:	40020000 	.word	0x40020000
 80032fc:	bffdfbf8 	.word	0xbffdfbf8
 8003300:	40020400 	.word	0x40020400

08003304 <HAL_DMA_Init>:
 8003304:	b538      	push	{r3, r4, r5, lr}
 8003306:	4604      	mov	r4, r0
 8003308:	b1e0      	cbz	r0, 8003344 <HAL_DMA_Init+0x40>
 800330a:	e9d0 3501 	ldrd	r3, r5, [r0, #4]
 800330e:	432b      	orrs	r3, r5
 8003310:	68c5      	ldr	r5, [r0, #12]
 8003312:	6801      	ldr	r1, [r0, #0]
 8003314:	432b      	orrs	r3, r5
 8003316:	6905      	ldr	r5, [r0, #16]
 8003318:	680a      	ldr	r2, [r1, #0]
 800331a:	432b      	orrs	r3, r5
 800331c:	6945      	ldr	r5, [r0, #20]
 800331e:	432b      	orrs	r3, r5
 8003320:	6985      	ldr	r5, [r0, #24]
 8003322:	432b      	orrs	r3, r5
 8003324:	69c5      	ldr	r5, [r0, #28]
 8003326:	f422 527f 	bic.w	r2, r2, #16320	; 0x3fc0
 800332a:	f022 0230 	bic.w	r2, r2, #48	; 0x30
 800332e:	432b      	orrs	r3, r5
 8003330:	4313      	orrs	r3, r2
 8003332:	600b      	str	r3, [r1, #0]
 8003334:	f7ff ffc6 	bl	80032c4 <DMA_CalcBaseAndBitshift>
 8003338:	2000      	movs	r0, #0
 800333a:	f44f 7380 	mov.w	r3, #256	; 0x100
 800333e:	63a0      	str	r0, [r4, #56]	; 0x38
 8003340:	8423      	strh	r3, [r4, #32]
 8003342:	bd38      	pop	{r3, r4, r5, pc}
 8003344:	2001      	movs	r0, #1
 8003346:	e7fc      	b.n	8003342 <HAL_DMA_Init+0x3e>

08003348 <HAL_DMA_Start_IT>:
 8003348:	b5f0      	push	{r4, r5, r6, r7, lr}
 800334a:	f890 4020 	ldrb.w	r4, [r0, #32]
 800334e:	2c01      	cmp	r4, #1
 8003350:	d034      	beq.n	80033bc <HAL_DMA_Start_IT+0x74>
 8003352:	f890 5021 	ldrb.w	r5, [r0, #33]	; 0x21
 8003356:	2401      	movs	r4, #1
 8003358:	42a5      	cmp	r5, r4
 800335a:	f880 4020 	strb.w	r4, [r0, #32]
 800335e:	f04f 0600 	mov.w	r6, #0
 8003362:	f04f 0402 	mov.w	r4, #2
 8003366:	d127      	bne.n	80033b8 <HAL_DMA_Start_IT+0x70>
 8003368:	f880 4021 	strb.w	r4, [r0, #33]	; 0x21
 800336c:	6804      	ldr	r4, [r0, #0]
 800336e:	6386      	str	r6, [r0, #56]	; 0x38
 8003370:	6826      	ldr	r6, [r4, #0]
 8003372:	f026 0601 	bic.w	r6, r6, #1
 8003376:	6026      	str	r6, [r4, #0]
 8003378:	e9d0 670f 	ldrd	r6, r7, [r0, #60]	; 0x3c
 800337c:	40bd      	lsls	r5, r7
 800337e:	6075      	str	r5, [r6, #4]
 8003380:	6063      	str	r3, [r4, #4]
 8003382:	6843      	ldr	r3, [r0, #4]
 8003384:	2b10      	cmp	r3, #16
 8003386:	6ac3      	ldr	r3, [r0, #44]	; 0x2c
 8003388:	bf0b      	itete	eq
 800338a:	60a2      	streq	r2, [r4, #8]
 800338c:	60a1      	strne	r1, [r4, #8]
 800338e:	60e1      	streq	r1, [r4, #12]
 8003390:	60e2      	strne	r2, [r4, #12]
 8003392:	b14b      	cbz	r3, 80033a8 <HAL_DMA_Start_IT+0x60>
 8003394:	6823      	ldr	r3, [r4, #0]
 8003396:	f043 030e 	orr.w	r3, r3, #14
 800339a:	6023      	str	r3, [r4, #0]
 800339c:	6823      	ldr	r3, [r4, #0]
 800339e:	f043 0301 	orr.w	r3, r3, #1
 80033a2:	6023      	str	r3, [r4, #0]
 80033a4:	2000      	movs	r0, #0
 80033a6:	bdf0      	pop	{r4, r5, r6, r7, pc}
 80033a8:	6823      	ldr	r3, [r4, #0]
 80033aa:	f043 030a 	orr.w	r3, r3, #10
 80033ae:	6023      	str	r3, [r4, #0]
 80033b0:	6823      	ldr	r3, [r4, #0]
 80033b2:	f023 0304 	bic.w	r3, r3, #4
 80033b6:	e7f0      	b.n	800339a <HAL_DMA_Start_IT+0x52>
 80033b8:	f880 6020 	strb.w	r6, [r0, #32]
 80033bc:	2002      	movs	r0, #2
 80033be:	e7f2      	b.n	80033a6 <HAL_DMA_Start_IT+0x5e>

080033c0 <HAL_DMA_Abort>:
 80033c0:	f890 3021 	ldrb.w	r3, [r0, #33]	; 0x21
 80033c4:	2b02      	cmp	r3, #2
 80033c6:	d007      	beq.n	80033d8 <HAL_DMA_Abort+0x18>
 80033c8:	2304      	movs	r3, #4
 80033ca:	6383      	str	r3, [r0, #56]	; 0x38
 80033cc:	2301      	movs	r3, #1
 80033ce:	2200      	movs	r2, #0
 80033d0:	f880 2020 	strb.w	r2, [r0, #32]
 80033d4:	4618      	mov	r0, r3
 80033d6:	4770      	bx	lr
 80033d8:	6803      	ldr	r3, [r0, #0]
 80033da:	6bc1      	ldr	r1, [r0, #60]	; 0x3c
 80033dc:	681a      	ldr	r2, [r3, #0]
 80033de:	f022 020e 	bic.w	r2, r2, #14
 80033e2:	601a      	str	r2, [r3, #0]
 80033e4:	681a      	ldr	r2, [r3, #0]
 80033e6:	f022 0201 	bic.w	r2, r2, #1
 80033ea:	601a      	str	r2, [r3, #0]
 80033ec:	6c03      	ldr	r3, [r0, #64]	; 0x40
 80033ee:	2201      	movs	r2, #1
 80033f0:	fa02 f303 	lsl.w	r3, r2, r3
 80033f4:	604b      	str	r3, [r1, #4]
 80033f6:	f880 2021 	strb.w	r2, [r0, #33]	; 0x21
 80033fa:	2300      	movs	r3, #0
 80033fc:	e7e7      	b.n	80033ce <HAL_DMA_Abort+0xe>

080033fe <HAL_DMA_Abort_IT>:
 80033fe:	b510      	push	{r4, lr}
 8003400:	f890 2021 	ldrb.w	r2, [r0, #33]	; 0x21
 8003404:	2a02      	cmp	r2, #2
 8003406:	d003      	beq.n	8003410 <HAL_DMA_Abort_IT+0x12>
 8003408:	2204      	movs	r2, #4
 800340a:	6382      	str	r2, [r0, #56]	; 0x38
 800340c:	2001      	movs	r0, #1
 800340e:	bd10      	pop	{r4, pc}
 8003410:	6802      	ldr	r2, [r0, #0]
 8003412:	6b43      	ldr	r3, [r0, #52]	; 0x34
 8003414:	6811      	ldr	r1, [r2, #0]
 8003416:	f021 010e 	bic.w	r1, r1, #14
 800341a:	6011      	str	r1, [r2, #0]
 800341c:	6811      	ldr	r1, [r2, #0]
 800341e:	f021 0101 	bic.w	r1, r1, #1
 8003422:	6011      	str	r1, [r2, #0]
 8003424:	e9d0 140f 	ldrd	r1, r4, [r0, #60]	; 0x3c
 8003428:	2201      	movs	r2, #1
 800342a:	40a2      	lsls	r2, r4
 800342c:	604a      	str	r2, [r1, #4]
 800342e:	f44f 7280 	mov.w	r2, #256	; 0x100
 8003432:	8402      	strh	r2, [r0, #32]
 8003434:	b113      	cbz	r3, 800343c <HAL_DMA_Abort_IT+0x3e>
 8003436:	4798      	blx	r3
 8003438:	2000      	movs	r0, #0
 800343a:	e7e8      	b.n	800340e <HAL_DMA_Abort_IT+0x10>
 800343c:	4618      	mov	r0, r3
 800343e:	e7e6      	b.n	800340e <HAL_DMA_Abort_IT+0x10>

08003440 <HAL_DMA_IRQHandler>:
 8003440:	6bc1      	ldr	r1, [r0, #60]	; 0x3c
 8003442:	6c02      	ldr	r2, [r0, #64]	; 0x40
 8003444:	6803      	ldr	r3, [r0, #0]
 8003446:	b470      	push	{r4, r5, r6}
 8003448:	680e      	ldr	r6, [r1, #0]
 800344a:	681d      	ldr	r5, [r3, #0]
 800344c:	2404      	movs	r4, #4
 800344e:	4094      	lsls	r4, r2
 8003450:	4234      	tst	r4, r6
 8003452:	d00e      	beq.n	8003472 <HAL_DMA_IRQHandler+0x32>
 8003454:	f015 0f04 	tst.w	r5, #4
 8003458:	d00b      	beq.n	8003472 <HAL_DMA_IRQHandler+0x32>
 800345a:	681a      	ldr	r2, [r3, #0]
 800345c:	0692      	lsls	r2, r2, #26
 800345e:	bf5e      	ittt	pl
 8003460:	681a      	ldrpl	r2, [r3, #0]
 8003462:	f022 0204 	bicpl.w	r2, r2, #4
 8003466:	601a      	strpl	r2, [r3, #0]
 8003468:	6ac3      	ldr	r3, [r0, #44]	; 0x2c
 800346a:	604c      	str	r4, [r1, #4]
 800346c:	b363      	cbz	r3, 80034c8 <HAL_DMA_IRQHandler+0x88>
 800346e:	bc70      	pop	{r4, r5, r6}
 8003470:	4718      	bx	r3
 8003472:	2402      	movs	r4, #2
 8003474:	4094      	lsls	r4, r2
 8003476:	4234      	tst	r4, r6
 8003478:	d012      	beq.n	80034a0 <HAL_DMA_IRQHandler+0x60>
 800347a:	f015 0f02 	tst.w	r5, #2
 800347e:	d00f      	beq.n	80034a0 <HAL_DMA_IRQHandler+0x60>
 8003480:	681a      	ldr	r2, [r3, #0]
 8003482:	0695      	lsls	r5, r2, #26
 8003484:	d406      	bmi.n	8003494 <HAL_DMA_IRQHandler+0x54>
 8003486:	681a      	ldr	r2, [r3, #0]
 8003488:	f022 020a 	bic.w	r2, r2, #10
 800348c:	601a      	str	r2, [r3, #0]
 800348e:	2301      	movs	r3, #1
 8003490:	f880 3021 	strb.w	r3, [r0, #33]	; 0x21
 8003494:	2300      	movs	r3, #0
 8003496:	604c      	str	r4, [r1, #4]
 8003498:	f880 3020 	strb.w	r3, [r0, #32]
 800349c:	6a83      	ldr	r3, [r0, #40]	; 0x28
 800349e:	e7e5      	b.n	800346c <HAL_DMA_IRQHandler+0x2c>
 80034a0:	2408      	movs	r4, #8
 80034a2:	4094      	lsls	r4, r2
 80034a4:	4234      	tst	r4, r6
 80034a6:	d00f      	beq.n	80034c8 <HAL_DMA_IRQHandler+0x88>
 80034a8:	072c      	lsls	r4, r5, #28
 80034aa:	d50d      	bpl.n	80034c8 <HAL_DMA_IRQHandler+0x88>
 80034ac:	681c      	ldr	r4, [r3, #0]
 80034ae:	f024 040e 	bic.w	r4, r4, #14
 80034b2:	601c      	str	r4, [r3, #0]
 80034b4:	2301      	movs	r3, #1
 80034b6:	fa03 f202 	lsl.w	r2, r3, r2
 80034ba:	604a      	str	r2, [r1, #4]
 80034bc:	6383      	str	r3, [r0, #56]	; 0x38
 80034be:	f44f 7380 	mov.w	r3, #256	; 0x100
 80034c2:	8403      	strh	r3, [r0, #32]
 80034c4:	6b03      	ldr	r3, [r0, #48]	; 0x30
 80034c6:	e7d1      	b.n	800346c <HAL_DMA_IRQHandler+0x2c>
 80034c8:	bc70      	pop	{r4, r5, r6}
 80034ca:	4770      	bx	lr

080034cc <HAL_DMA_GetState>:
 80034cc:	f890 0021 	ldrb.w	r0, [r0, #33]	; 0x21
 80034d0:	4770      	bx	lr
	...

080034d4 <HAL_GPIO_Init>:
 80034d4:	e92d 4ff7 	stmdb	sp!, {r0, r1, r2, r4, r5, r6, r7, r8, r9, sl, fp, lr}
 80034d8:	f8df 917c 	ldr.w	r9, [pc, #380]	; 8003658 <HAL_GPIO_Init+0x184>
 80034dc:	4c5c      	ldr	r4, [pc, #368]	; (8003650 <HAL_GPIO_Init+0x17c>)
 80034de:	2300      	movs	r3, #0
 80034e0:	680a      	ldr	r2, [r1, #0]
 80034e2:	fa32 f503 	lsrs.w	r5, r2, r3
 80034e6:	d102      	bne.n	80034ee <HAL_GPIO_Init+0x1a>
 80034e8:	b003      	add	sp, #12
 80034ea:	e8bd 8ff0 	ldmia.w	sp!, {r4, r5, r6, r7, r8, r9, sl, fp, pc}
 80034ee:	2501      	movs	r5, #1
 80034f0:	fa05 fe03 	lsl.w	lr, r5, r3
 80034f4:	ea1e 0202 	ands.w	r2, lr, r2
 80034f8:	f000 80a0 	beq.w	800363c <HAL_GPIO_Init+0x168>
 80034fc:	684e      	ldr	r6, [r1, #4]
 80034fe:	2703      	movs	r7, #3
 8003500:	f006 0503 	and.w	r5, r6, #3
 8003504:	ea4f 0843 	mov.w	r8, r3, lsl #1
 8003508:	fa07 fc08 	lsl.w	ip, r7, r8
 800350c:	1e6f      	subs	r7, r5, #1
 800350e:	2f01      	cmp	r7, #1
 8003510:	ea6f 0c0c 	mvn.w	ip, ip
 8003514:	d834      	bhi.n	8003580 <HAL_GPIO_Init+0xac>
 8003516:	6887      	ldr	r7, [r0, #8]
 8003518:	ea07 0a0c 	and.w	sl, r7, ip
 800351c:	68cf      	ldr	r7, [r1, #12]
 800351e:	fa07 f708 	lsl.w	r7, r7, r8
 8003522:	ea47 070a 	orr.w	r7, r7, sl
 8003526:	6087      	str	r7, [r0, #8]
 8003528:	6847      	ldr	r7, [r0, #4]
 800352a:	ea27 0e0e 	bic.w	lr, r7, lr
 800352e:	f3c6 1700 	ubfx	r7, r6, #4, #1
 8003532:	409f      	lsls	r7, r3
 8003534:	ea47 070e 	orr.w	r7, r7, lr
 8003538:	6047      	str	r7, [r0, #4]
 800353a:	68c7      	ldr	r7, [r0, #12]
 800353c:	ea07 0e0c 	and.w	lr, r7, ip
 8003540:	688f      	ldr	r7, [r1, #8]
 8003542:	fa07 f708 	lsl.w	r7, r7, r8
 8003546:	ea47 070e 	orr.w	r7, r7, lr
 800354a:	2d02      	cmp	r5, #2
 800354c:	60c7      	str	r7, [r0, #12]
 800354e:	d119      	bne.n	8003584 <HAL_GPIO_Init+0xb0>
 8003550:	ea4f 0ad3 	mov.w	sl, r3, lsr #3
 8003554:	eb00 0a8a 	add.w	sl, r0, sl, lsl #2
 8003558:	f003 0b07 	and.w	fp, r3, #7
 800355c:	f8da 7020 	ldr.w	r7, [sl, #32]
 8003560:	ea4f 0b8b 	mov.w	fp, fp, lsl #2
 8003564:	f04f 0e0f 	mov.w	lr, #15
 8003568:	fa0e fe0b 	lsl.w	lr, lr, fp
 800356c:	ea27 0e0e 	bic.w	lr, r7, lr
 8003570:	690f      	ldr	r7, [r1, #16]
 8003572:	fa07 f70b 	lsl.w	r7, r7, fp
 8003576:	ea47 070e 	orr.w	r7, r7, lr
 800357a:	f8ca 7020 	str.w	r7, [sl, #32]
 800357e:	e001      	b.n	8003584 <HAL_GPIO_Init+0xb0>
 8003580:	2d03      	cmp	r5, #3
 8003582:	d1da      	bne.n	800353a <HAL_GPIO_Init+0x66>
 8003584:	6807      	ldr	r7, [r0, #0]
 8003586:	fa05 f508 	lsl.w	r5, r5, r8
 800358a:	ea07 070c 	and.w	r7, r7, ip
 800358e:	433d      	orrs	r5, r7
 8003590:	f416 3f40 	tst.w	r6, #196608	; 0x30000
 8003594:	6005      	str	r5, [r0, #0]
 8003596:	d051      	beq.n	800363c <HAL_GPIO_Init+0x168>
 8003598:	f8d9 5018 	ldr.w	r5, [r9, #24]
 800359c:	f045 0501 	orr.w	r5, r5, #1
 80035a0:	f8c9 5018 	str.w	r5, [r9, #24]
 80035a4:	f8d9 5018 	ldr.w	r5, [r9, #24]
 80035a8:	f023 0703 	bic.w	r7, r3, #3
 80035ac:	f107 4780 	add.w	r7, r7, #1073741824	; 0x40000000
 80035b0:	f005 0501 	and.w	r5, r5, #1
 80035b4:	f507 3780 	add.w	r7, r7, #65536	; 0x10000
 80035b8:	9501      	str	r5, [sp, #4]
 80035ba:	f003 0e03 	and.w	lr, r3, #3
 80035be:	9d01      	ldr	r5, [sp, #4]
 80035c0:	68bd      	ldr	r5, [r7, #8]
 80035c2:	ea4f 0e8e 	mov.w	lr, lr, lsl #2
 80035c6:	f04f 0c0f 	mov.w	ip, #15
 80035ca:	fa0c fc0e 	lsl.w	ip, ip, lr
 80035ce:	f1b0 4f90 	cmp.w	r0, #1207959552	; 0x48000000
 80035d2:	ea25 0c0c 	bic.w	ip, r5, ip
 80035d6:	d033      	beq.n	8003640 <HAL_GPIO_Init+0x16c>
 80035d8:	4d1e      	ldr	r5, [pc, #120]	; (8003654 <HAL_GPIO_Init+0x180>)
 80035da:	42a8      	cmp	r0, r5
 80035dc:	d032      	beq.n	8003644 <HAL_GPIO_Init+0x170>
 80035de:	f505 6580 	add.w	r5, r5, #1024	; 0x400
 80035e2:	42a8      	cmp	r0, r5
 80035e4:	d030      	beq.n	8003648 <HAL_GPIO_Init+0x174>
 80035e6:	f505 6580 	add.w	r5, r5, #1024	; 0x400
 80035ea:	42a8      	cmp	r0, r5
 80035ec:	d02e      	beq.n	800364c <HAL_GPIO_Init+0x178>
 80035ee:	f505 6580 	add.w	r5, r5, #1024	; 0x400
 80035f2:	42a8      	cmp	r0, r5
 80035f4:	bf0c      	ite	eq
 80035f6:	2504      	moveq	r5, #4
 80035f8:	2505      	movne	r5, #5
 80035fa:	fa05 f50e 	lsl.w	r5, r5, lr
 80035fe:	ea45 050c 	orr.w	r5, r5, ip
 8003602:	60bd      	str	r5, [r7, #8]
 8003604:	68a5      	ldr	r5, [r4, #8]
 8003606:	43d7      	mvns	r7, r2
 8003608:	f416 1f80 	tst.w	r6, #1048576	; 0x100000
 800360c:	bf0c      	ite	eq
 800360e:	403d      	andeq	r5, r7
 8003610:	4315      	orrne	r5, r2
 8003612:	60a5      	str	r5, [r4, #8]
 8003614:	68e5      	ldr	r5, [r4, #12]
 8003616:	f416 1f00 	tst.w	r6, #2097152	; 0x200000
 800361a:	bf0c      	ite	eq
 800361c:	403d      	andeq	r5, r7
 800361e:	4315      	orrne	r5, r2
 8003620:	60e5      	str	r5, [r4, #12]
 8003622:	6865      	ldr	r5, [r4, #4]
 8003624:	f416 3f00 	tst.w	r6, #131072	; 0x20000
 8003628:	bf0c      	ite	eq
 800362a:	403d      	andeq	r5, r7
 800362c:	4315      	orrne	r5, r2
 800362e:	6065      	str	r5, [r4, #4]
 8003630:	6825      	ldr	r5, [r4, #0]
 8003632:	03f6      	lsls	r6, r6, #15
 8003634:	bf54      	ite	pl
 8003636:	403d      	andpl	r5, r7
 8003638:	4315      	orrmi	r5, r2
 800363a:	6025      	str	r5, [r4, #0]
 800363c:	3301      	adds	r3, #1
 800363e:	e74f      	b.n	80034e0 <HAL_GPIO_Init+0xc>
 8003640:	2500      	movs	r5, #0
 8003642:	e7da      	b.n	80035fa <HAL_GPIO_Init+0x126>
 8003644:	2501      	movs	r5, #1
 8003646:	e7d8      	b.n	80035fa <HAL_GPIO_Init+0x126>
 8003648:	2502      	movs	r5, #2
 800364a:	e7d6      	b.n	80035fa <HAL_GPIO_Init+0x126>
 800364c:	2503      	movs	r5, #3
 800364e:	e7d4      	b.n	80035fa <HAL_GPIO_Init+0x126>
 8003650:	40010400 	.word	0x40010400
 8003654:	48000400 	.word	0x48000400
 8003658:	40021000 	.word	0x40021000

0800365c <HAL_GPIO_DeInit>:
 800365c:	4a3a      	ldr	r2, [pc, #232]	; (8003748 <HAL_GPIO_DeInit+0xec>)
 800365e:	e92d 4ff0 	stmdb	sp!, {r4, r5, r6, r7, r8, r9, sl, fp, lr}
 8003662:	2300      	movs	r3, #0
 8003664:	f04f 0a01 	mov.w	sl, #1
 8003668:	f04f 080f 	mov.w	r8, #15
 800366c:	f04f 0b03 	mov.w	fp, #3
 8003670:	fa31 f403 	lsrs.w	r4, r1, r3
 8003674:	d101      	bne.n	800367a <HAL_GPIO_DeInit+0x1e>
 8003676:	e8bd 8ff0 	ldmia.w	sp!, {r4, r5, r6, r7, r8, r9, sl, fp, pc}
 800367a:	fa0a fc03 	lsl.w	ip, sl, r3
 800367e:	ea1c 0601 	ands.w	r6, ip, r1
 8003682:	d057      	beq.n	8003734 <HAL_GPIO_DeInit+0xd8>
 8003684:	f023 0403 	bic.w	r4, r3, #3
 8003688:	f104 4480 	add.w	r4, r4, #1073741824	; 0x40000000
 800368c:	f504 3480 	add.w	r4, r4, #65536	; 0x10000
 8003690:	f003 0703 	and.w	r7, r3, #3
 8003694:	68a5      	ldr	r5, [r4, #8]
 8003696:	00bf      	lsls	r7, r7, #2
 8003698:	fa08 f907 	lsl.w	r9, r8, r7
 800369c:	f1b0 4f90 	cmp.w	r0, #1207959552	; 0x48000000
 80036a0:	ea09 0e05 	and.w	lr, r9, r5
 80036a4:	d048      	beq.n	8003738 <HAL_GPIO_DeInit+0xdc>
 80036a6:	4d29      	ldr	r5, [pc, #164]	; (800374c <HAL_GPIO_DeInit+0xf0>)
 80036a8:	42a8      	cmp	r0, r5
 80036aa:	d047      	beq.n	800373c <HAL_GPIO_DeInit+0xe0>
 80036ac:	f505 6580 	add.w	r5, r5, #1024	; 0x400
 80036b0:	42a8      	cmp	r0, r5
 80036b2:	d045      	beq.n	8003740 <HAL_GPIO_DeInit+0xe4>
 80036b4:	f505 6580 	add.w	r5, r5, #1024	; 0x400
 80036b8:	42a8      	cmp	r0, r5
 80036ba:	d043      	beq.n	8003744 <HAL_GPIO_DeInit+0xe8>
 80036bc:	f505 6580 	add.w	r5, r5, #1024	; 0x400
 80036c0:	42a8      	cmp	r0, r5
 80036c2:	bf0c      	ite	eq
 80036c4:	2504      	moveq	r5, #4
 80036c6:	2505      	movne	r5, #5
 80036c8:	40bd      	lsls	r5, r7
 80036ca:	4575      	cmp	r5, lr
 80036cc:	d113      	bne.n	80036f6 <HAL_GPIO_DeInit+0x9a>
 80036ce:	6815      	ldr	r5, [r2, #0]
 80036d0:	ea25 0506 	bic.w	r5, r5, r6
 80036d4:	6015      	str	r5, [r2, #0]
 80036d6:	6855      	ldr	r5, [r2, #4]
 80036d8:	ea25 0506 	bic.w	r5, r5, r6
 80036dc:	6055      	str	r5, [r2, #4]
 80036de:	68d5      	ldr	r5, [r2, #12]
 80036e0:	ea25 0506 	bic.w	r5, r5, r6
 80036e4:	60d5      	str	r5, [r2, #12]
 80036e6:	6895      	ldr	r5, [r2, #8]
 80036e8:	ea25 0506 	bic.w	r5, r5, r6
 80036ec:	6095      	str	r5, [r2, #8]
 80036ee:	68a5      	ldr	r5, [r4, #8]
 80036f0:	ea25 0509 	bic.w	r5, r5, r9
 80036f4:	60a5      	str	r5, [r4, #8]
 80036f6:	6805      	ldr	r5, [r0, #0]
 80036f8:	005c      	lsls	r4, r3, #1
 80036fa:	fa0b f404 	lsl.w	r4, fp, r4
 80036fe:	08de      	lsrs	r6, r3, #3
 8003700:	ea25 0504 	bic.w	r5, r5, r4
 8003704:	eb00 0686 	add.w	r6, r0, r6, lsl #2
 8003708:	6005      	str	r5, [r0, #0]
 800370a:	f003 0507 	and.w	r5, r3, #7
 800370e:	6a37      	ldr	r7, [r6, #32]
 8003710:	00ad      	lsls	r5, r5, #2
 8003712:	fa08 f505 	lsl.w	r5, r8, r5
 8003716:	ea27 0705 	bic.w	r7, r7, r5
 800371a:	6237      	str	r7, [r6, #32]
 800371c:	68c5      	ldr	r5, [r0, #12]
 800371e:	ea25 0504 	bic.w	r5, r5, r4
 8003722:	60c5      	str	r5, [r0, #12]
 8003724:	6845      	ldr	r5, [r0, #4]
 8003726:	ea25 050c 	bic.w	r5, r5, ip
 800372a:	6045      	str	r5, [r0, #4]
 800372c:	6885      	ldr	r5, [r0, #8]
 800372e:	ea25 0404 	bic.w	r4, r5, r4
 8003732:	6084      	str	r4, [r0, #8]
 8003734:	3301      	adds	r3, #1
 8003736:	e79b      	b.n	8003670 <HAL_GPIO_DeInit+0x14>
 8003738:	2500      	movs	r5, #0
 800373a:	e7c5      	b.n	80036c8 <HAL_GPIO_DeInit+0x6c>
 800373c:	2501      	movs	r5, #1
 800373e:	e7c3      	b.n	80036c8 <HAL_GPIO_DeInit+0x6c>
 8003740:	2502      	movs	r5, #2
 8003742:	e7c1      	b.n	80036c8 <HAL_GPIO_DeInit+0x6c>
 8003744:	2503      	movs	r5, #3
 8003746:	e7bf      	b.n	80036c8 <HAL_GPIO_DeInit+0x6c>
 8003748:	40010400 	.word	0x40010400
 800374c:	48000400 	.word	0x48000400

08003750 <HAL_GPIO_ReadPin>:
 8003750:	6903      	ldr	r3, [r0, #16]
 8003752:	4219      	tst	r1, r3
 8003754:	bf14      	ite	ne
 8003756:	2001      	movne	r0, #1
 8003758:	2000      	moveq	r0, #0
 800375a:	4770      	bx	lr

0800375c <HAL_GPIO_WritePin>:
 800375c:	b10a      	cbz	r2, 8003762 <HAL_GPIO_WritePin+0x6>
 800375e:	6181      	str	r1, [r0, #24]
 8003760:	4770      	bx	lr
 8003762:	6281      	str	r1, [r0, #40]	; 0x28
 8003764:	4770      	bx	lr

08003766 <HAL_GPIO_TogglePin>:
 8003766:	6943      	ldr	r3, [r0, #20]
 8003768:	ea01 0203 	and.w	r2, r1, r3
 800376c:	ea21 0103 	bic.w	r1, r1, r3
 8003770:	ea41 4102 	orr.w	r1, r1, r2, lsl #16
 8003774:	6181      	str	r1, [r0, #24]
 8003776:	4770      	bx	lr

08003778 <HAL_GPIO_EXTI_IRQHandler>:
 8003778:	4a04      	ldr	r2, [pc, #16]	; (800378c <HAL_GPIO_EXTI_IRQHandler+0x14>)
 800377a:	6951      	ldr	r1, [r2, #20]
 800377c:	4201      	tst	r1, r0
 800377e:	b508      	push	{r3, lr}
 8003780:	d002      	beq.n	8003788 <HAL_GPIO_EXTI_IRQHandler+0x10>
 8003782:	6150      	str	r0, [r2, #20]
 8003784:	f7fd ffac 	bl	80016e0 <HAL_GPIO_EXTI_Callback>
 8003788:	bd08      	pop	{r3, pc}
 800378a:	bf00      	nop
 800378c:	40010400 	.word	0x40010400

08003790 <I2C_Flush_TXDR>:
 8003790:	6803      	ldr	r3, [r0, #0]
 8003792:	699a      	ldr	r2, [r3, #24]
 8003794:	0791      	lsls	r1, r2, #30
 8003796:	bf44      	itt	mi
 8003798:	2200      	movmi	r2, #0
 800379a:	629a      	strmi	r2, [r3, #40]	; 0x28
 800379c:	699a      	ldr	r2, [r3, #24]
 800379e:	07d2      	lsls	r2, r2, #31
 80037a0:	bf5e      	ittt	pl
 80037a2:	699a      	ldrpl	r2, [r3, #24]
 80037a4:	f042 0201 	orrpl.w	r2, r2, #1
 80037a8:	619a      	strpl	r2, [r3, #24]
 80037aa:	4770      	bx	lr

080037ac <I2C_TransferConfig>:
 80037ac:	b530      	push	{r4, r5, lr}
 80037ae:	9d03      	ldr	r5, [sp, #12]
 80037b0:	6804      	ldr	r4, [r0, #0]
 80037b2:	432b      	orrs	r3, r5
 80037b4:	ea43 4302 	orr.w	r3, r3, r2, lsl #16
 80037b8:	4a06      	ldr	r2, [pc, #24]	; (80037d4 <I2C_TransferConfig+0x28>)
 80037ba:	6860      	ldr	r0, [r4, #4]
 80037bc:	f3c1 0109 	ubfx	r1, r1, #0, #10
 80037c0:	430b      	orrs	r3, r1
 80037c2:	ea42 5255 	orr.w	r2, r2, r5, lsr #21
 80037c6:	f023 4300 	bic.w	r3, r3, #2147483648	; 0x80000000
 80037ca:	ea20 0002 	bic.w	r0, r0, r2
 80037ce:	4303      	orrs	r3, r0
 80037d0:	6063      	str	r3, [r4, #4]
 80037d2:	bd30      	pop	{r4, r5, pc}
 80037d4:	03ff63ff 	.word	0x03ff63ff

080037d8 <I2C_Enable_IRQ>:
 80037d8:	b570      	push	{r4, r5, r6, lr}
 80037da:	6b42      	ldr	r2, [r0, #52]	; 0x34
 80037dc:	4c1f      	ldr	r4, [pc, #124]	; (800385c <I2C_Enable_IRQ+0x84>)
 80037de:	42a2      	cmp	r2, r4
 80037e0:	b20b      	sxth	r3, r1
 80037e2:	f001 0501 	and.w	r5, r1, #1
 80037e6:	f001 0402 	and.w	r4, r1, #2
 80037ea:	d01d      	beq.n	8003828 <I2C_Enable_IRQ+0x50>
 80037ec:	4e1c      	ldr	r6, [pc, #112]	; (8003860 <I2C_Enable_IRQ+0x88>)
 80037ee:	42b2      	cmp	r2, r6
 80037f0:	d01a      	beq.n	8003828 <I2C_Enable_IRQ+0x50>
 80037f2:	4e1c      	ldr	r6, [pc, #112]	; (8003864 <I2C_Enable_IRQ+0x8c>)
 80037f4:	42b2      	cmp	r2, r6
 80037f6:	d017      	beq.n	8003828 <I2C_Enable_IRQ+0x50>
 80037f8:	2b00      	cmp	r3, #0
 80037fa:	bfac      	ite	ge
 80037fc:	2300      	movge	r3, #0
 80037fe:	23b8      	movlt	r3, #184	; 0xb8
 8003800:	b10d      	cbz	r5, 8003806 <I2C_Enable_IRQ+0x2e>
 8003802:	f043 03f2 	orr.w	r3, r3, #242	; 0xf2
 8003806:	b10c      	cbz	r4, 800380c <I2C_Enable_IRQ+0x34>
 8003808:	f043 03f4 	orr.w	r3, r3, #244	; 0xf4
 800380c:	2910      	cmp	r1, #16
 800380e:	d102      	bne.n	8003816 <I2C_Enable_IRQ+0x3e>
 8003810:	f043 0390 	orr.w	r3, r3, #144	; 0x90
 8003814:	e003      	b.n	800381e <I2C_Enable_IRQ+0x46>
 8003816:	2920      	cmp	r1, #32
 8003818:	d101      	bne.n	800381e <I2C_Enable_IRQ+0x46>
 800381a:	f043 0320 	orr.w	r3, r3, #32
 800381e:	6801      	ldr	r1, [r0, #0]
 8003820:	680a      	ldr	r2, [r1, #0]
 8003822:	4313      	orrs	r3, r2
 8003824:	600b      	str	r3, [r1, #0]
 8003826:	bd70      	pop	{r4, r5, r6, pc}
 8003828:	2b00      	cmp	r3, #0
 800382a:	bfac      	ite	ge
 800382c:	2300      	movge	r3, #0
 800382e:	23b8      	movlt	r3, #184	; 0xb8
 8003830:	b10d      	cbz	r5, 8003836 <I2C_Enable_IRQ+0x5e>
 8003832:	f043 03f2 	orr.w	r3, r3, #242	; 0xf2
 8003836:	b10c      	cbz	r4, 800383c <I2C_Enable_IRQ+0x64>
 8003838:	f043 03f4 	orr.w	r3, r3, #244	; 0xf4
 800383c:	2910      	cmp	r1, #16
 800383e:	d0e7      	beq.n	8003810 <I2C_Enable_IRQ+0x38>
 8003840:	2920      	cmp	r1, #32
 8003842:	d102      	bne.n	800384a <I2C_Enable_IRQ+0x72>
 8003844:	f043 0360 	orr.w	r3, r3, #96	; 0x60
 8003848:	e7e9      	b.n	800381e <I2C_Enable_IRQ+0x46>
 800384a:	4c06      	ldr	r4, [pc, #24]	; (8003864 <I2C_Enable_IRQ+0x8c>)
 800384c:	42a2      	cmp	r2, r4
 800384e:	d0e6      	beq.n	800381e <I2C_Enable_IRQ+0x46>
 8003850:	2940      	cmp	r1, #64	; 0x40
 8003852:	bf08      	it	eq
 8003854:	f043 0340 	orreq.w	r3, r3, #64	; 0x40
 8003858:	e7e1      	b.n	800381e <I2C_Enable_IRQ+0x46>
 800385a:	bf00      	nop
 800385c:	08004661 	.word	0x08004661
 8003860:	080048f1 	.word	0x080048f1
 8003864:	0800453d 	.word	0x0800453d

08003868 <I2C_Disable_IRQ>:
 8003868:	f011 0301 	ands.w	r3, r1, #1
 800386c:	d007      	beq.n	800387e <I2C_Disable_IRQ+0x16>
 800386e:	f890 3041 	ldrb.w	r3, [r0, #65]	; 0x41
 8003872:	f003 0328 	and.w	r3, r3, #40	; 0x28
 8003876:	2b28      	cmp	r3, #40	; 0x28
 8003878:	bf0c      	ite	eq
 800387a:	2342      	moveq	r3, #66	; 0x42
 800387c:	23f2      	movne	r3, #242	; 0xf2
 800387e:	078a      	lsls	r2, r1, #30
 8003880:	d509      	bpl.n	8003896 <I2C_Disable_IRQ+0x2e>
 8003882:	f890 2041 	ldrb.w	r2, [r0, #65]	; 0x41
 8003886:	f002 0228 	and.w	r2, r2, #40	; 0x28
 800388a:	2a28      	cmp	r2, #40	; 0x28
 800388c:	bf0c      	ite	eq
 800388e:	f043 0344 	orreq.w	r3, r3, #68	; 0x44
 8003892:	f043 03f4 	orrne.w	r3, r3, #244	; 0xf4
 8003896:	040a      	lsls	r2, r1, #16
 8003898:	6801      	ldr	r1, [r0, #0]
 800389a:	680a      	ldr	r2, [r1, #0]
 800389c:	bf48      	it	mi
 800389e:	f043 03b8 	orrmi.w	r3, r3, #184	; 0xb8
 80038a2:	ea22 0303 	bic.w	r3, r2, r3
 80038a6:	600b      	str	r3, [r1, #0]
 80038a8:	4770      	bx	lr

080038aa <I2C_IsErrorOccurred>:
 80038aa:	6803      	ldr	r3, [r0, #0]
 80038ac:	e92d 41f0 	stmdb	sp!, {r4, r5, r6, r7, r8, lr}
 80038b0:	699c      	ldr	r4, [r3, #24]
 80038b2:	f014 0410 	ands.w	r4, r4, #16
 80038b6:	4605      	mov	r5, r0
 80038b8:	460f      	mov	r7, r1
 80038ba:	4616      	mov	r6, r2
 80038bc:	d06f      	beq.n	800399e <I2C_IsErrorOccurred+0xf4>
 80038be:	2210      	movs	r2, #16
 80038c0:	2400      	movs	r4, #0
 80038c2:	61da      	str	r2, [r3, #28]
 80038c4:	46a0      	mov	r8, r4
 80038c6:	682b      	ldr	r3, [r5, #0]
 80038c8:	699a      	ldr	r2, [r3, #24]
 80038ca:	0690      	lsls	r0, r2, #26
 80038cc:	d461      	bmi.n	8003992 <I2C_IsErrorOccurred+0xe8>
 80038ce:	f1b8 0f00 	cmp.w	r8, #0
 80038d2:	d035      	beq.n	8003940 <I2C_IsErrorOccurred+0x96>
 80038d4:	f044 0404 	orr.w	r4, r4, #4
 80038d8:	2001      	movs	r0, #1
 80038da:	682e      	ldr	r6, [r5, #0]
 80038dc:	69b3      	ldr	r3, [r6, #24]
 80038de:	05d9      	lsls	r1, r3, #23
 80038e0:	bf41      	itttt	mi
 80038e2:	f44f 7280 	movmi.w	r2, #256	; 0x100
 80038e6:	61f2      	strmi	r2, [r6, #28]
 80038e8:	f044 0401 	orrmi.w	r4, r4, #1
 80038ec:	2001      	movmi	r0, #1
 80038ee:	055a      	lsls	r2, r3, #21
 80038f0:	bf41      	itttt	mi
 80038f2:	f44f 6280 	movmi.w	r2, #1024	; 0x400
 80038f6:	f044 0408 	orrmi.w	r4, r4, #8
 80038fa:	61f2      	strmi	r2, [r6, #28]
 80038fc:	2001      	movmi	r0, #1
 80038fe:	059b      	lsls	r3, r3, #22
 8003900:	d54f      	bpl.n	80039a2 <I2C_IsErrorOccurred+0xf8>
 8003902:	f44f 7300 	mov.w	r3, #512	; 0x200
 8003906:	f044 0402 	orr.w	r4, r4, #2
 800390a:	61f3      	str	r3, [r6, #28]
 800390c:	4628      	mov	r0, r5
 800390e:	f7ff ff3f 	bl	8003790 <I2C_Flush_TXDR>
 8003912:	6873      	ldr	r3, [r6, #4]
 8003914:	f023 73ff 	bic.w	r3, r3, #33423360	; 0x1fe0000
 8003918:	f423 338b 	bic.w	r3, r3, #71168	; 0x11600
 800391c:	f423 73ff 	bic.w	r3, r3, #510	; 0x1fe
 8003920:	f023 0301 	bic.w	r3, r3, #1
 8003924:	6073      	str	r3, [r6, #4]
 8003926:	6c6b      	ldr	r3, [r5, #68]	; 0x44
 8003928:	4323      	orrs	r3, r4
 800392a:	646b      	str	r3, [r5, #68]	; 0x44
 800392c:	2320      	movs	r3, #32
 800392e:	f885 3041 	strb.w	r3, [r5, #65]	; 0x41
 8003932:	2300      	movs	r3, #0
 8003934:	f885 3042 	strb.w	r3, [r5, #66]	; 0x42
 8003938:	f885 3040 	strb.w	r3, [r5, #64]	; 0x40
 800393c:	2001      	movs	r0, #1
 800393e:	e032      	b.n	80039a6 <I2C_IsErrorOccurred+0xfc>
 8003940:	1c7a      	adds	r2, r7, #1
 8003942:	d0c1      	beq.n	80038c8 <I2C_IsErrorOccurred+0x1e>
 8003944:	f7fe fb7e 	bl	8002044 <HAL_GetTick>
 8003948:	1b80      	subs	r0, r0, r6
 800394a:	42b8      	cmp	r0, r7
 800394c:	d801      	bhi.n	8003952 <I2C_IsErrorOccurred+0xa8>
 800394e:	2f00      	cmp	r7, #0
 8003950:	d1b9      	bne.n	80038c6 <I2C_IsErrorOccurred+0x1c>
 8003952:	682b      	ldr	r3, [r5, #0]
 8003954:	6859      	ldr	r1, [r3, #4]
 8003956:	f895 2042 	ldrb.w	r2, [r5, #66]	; 0x42
 800395a:	6998      	ldr	r0, [r3, #24]
 800395c:	0400      	lsls	r0, r0, #16
 800395e:	b2d2      	uxtb	r2, r2
 8003960:	d50a      	bpl.n	8003978 <I2C_IsErrorOccurred+0xce>
 8003962:	0449      	lsls	r1, r1, #17
 8003964:	d408      	bmi.n	8003978 <I2C_IsErrorOccurred+0xce>
 8003966:	2a20      	cmp	r2, #32
 8003968:	d006      	beq.n	8003978 <I2C_IsErrorOccurred+0xce>
 800396a:	685a      	ldr	r2, [r3, #4]
 800396c:	f442 4280 	orr.w	r2, r2, #16384	; 0x4000
 8003970:	605a      	str	r2, [r3, #4]
 8003972:	f7fe fb67 	bl	8002044 <HAL_GetTick>
 8003976:	4606      	mov	r6, r0
 8003978:	682b      	ldr	r3, [r5, #0]
 800397a:	699b      	ldr	r3, [r3, #24]
 800397c:	069b      	lsls	r3, r3, #26
 800397e:	d4a2      	bmi.n	80038c6 <I2C_IsErrorOccurred+0x1c>
 8003980:	f7fe fb60 	bl	8002044 <HAL_GetTick>
 8003984:	1b80      	subs	r0, r0, r6
 8003986:	2819      	cmp	r0, #25
 8003988:	d9f6      	bls.n	8003978 <I2C_IsErrorOccurred+0xce>
 800398a:	2420      	movs	r4, #32
 800398c:	f04f 0801 	mov.w	r8, #1
 8003990:	e799      	b.n	80038c6 <I2C_IsErrorOccurred+0x1c>
 8003992:	f1b8 0f00 	cmp.w	r8, #0
 8003996:	d19d      	bne.n	80038d4 <I2C_IsErrorOccurred+0x2a>
 8003998:	2220      	movs	r2, #32
 800399a:	61da      	str	r2, [r3, #28]
 800399c:	e79a      	b.n	80038d4 <I2C_IsErrorOccurred+0x2a>
 800399e:	4620      	mov	r0, r4
 80039a0:	e79b      	b.n	80038da <I2C_IsErrorOccurred+0x30>
 80039a2:	2800      	cmp	r0, #0
 80039a4:	d1b2      	bne.n	800390c <I2C_IsErrorOccurred+0x62>
 80039a6:	e8bd 81f0 	ldmia.w	sp!, {r4, r5, r6, r7, r8, pc}

080039aa <I2C_WaitOnTXISFlagUntilTimeout>:
 80039aa:	b570      	push	{r4, r5, r6, lr}
 80039ac:	4604      	mov	r4, r0
 80039ae:	460d      	mov	r5, r1
 80039b0:	4616      	mov	r6, r2
 80039b2:	6823      	ldr	r3, [r4, #0]
 80039b4:	699b      	ldr	r3, [r3, #24]
 80039b6:	079b      	lsls	r3, r3, #30
 80039b8:	d501      	bpl.n	80039be <I2C_WaitOnTXISFlagUntilTimeout+0x14>
 80039ba:	2000      	movs	r0, #0
 80039bc:	bd70      	pop	{r4, r5, r6, pc}
 80039be:	4632      	mov	r2, r6
 80039c0:	4629      	mov	r1, r5
 80039c2:	4620      	mov	r0, r4
 80039c4:	f7ff ff71 	bl	80038aa <I2C_IsErrorOccurred>
 80039c8:	b9c0      	cbnz	r0, 80039fc <I2C_WaitOnTXISFlagUntilTimeout+0x52>
 80039ca:	1c6a      	adds	r2, r5, #1
 80039cc:	d0f1      	beq.n	80039b2 <I2C_WaitOnTXISFlagUntilTimeout+0x8>
 80039ce:	f7fe fb39 	bl	8002044 <HAL_GetTick>
 80039d2:	1b80      	subs	r0, r0, r6
 80039d4:	42a8      	cmp	r0, r5
 80039d6:	d801      	bhi.n	80039dc <I2C_WaitOnTXISFlagUntilTimeout+0x32>
 80039d8:	2d00      	cmp	r5, #0
 80039da:	d1ea      	bne.n	80039b2 <I2C_WaitOnTXISFlagUntilTimeout+0x8>
 80039dc:	6823      	ldr	r3, [r4, #0]
 80039de:	699b      	ldr	r3, [r3, #24]
 80039e0:	f013 0302 	ands.w	r3, r3, #2
 80039e4:	d1e5      	bne.n	80039b2 <I2C_WaitOnTXISFlagUntilTimeout+0x8>
 80039e6:	6c62      	ldr	r2, [r4, #68]	; 0x44
 80039e8:	f884 3040 	strb.w	r3, [r4, #64]	; 0x40
 80039ec:	f042 0220 	orr.w	r2, r2, #32
 80039f0:	6462      	str	r2, [r4, #68]	; 0x44
 80039f2:	2220      	movs	r2, #32
 80039f4:	f884 2041 	strb.w	r2, [r4, #65]	; 0x41
 80039f8:	f884 3042 	strb.w	r3, [r4, #66]	; 0x42
 80039fc:	2001      	movs	r0, #1
 80039fe:	e7dd      	b.n	80039bc <I2C_WaitOnTXISFlagUntilTimeout+0x12>

08003a00 <I2C_WaitOnFlagUntilTimeout>:
 8003a00:	e92d 41f0 	stmdb	sp!, {r4, r5, r6, r7, r8, lr}
 8003a04:	9f06      	ldr	r7, [sp, #24]
 8003a06:	4604      	mov	r4, r0
 8003a08:	4688      	mov	r8, r1
 8003a0a:	4616      	mov	r6, r2
 8003a0c:	461d      	mov	r5, r3
 8003a0e:	6822      	ldr	r2, [r4, #0]
 8003a10:	6993      	ldr	r3, [r2, #24]
 8003a12:	ea38 0303 	bics.w	r3, r8, r3
 8003a16:	bf0c      	ite	eq
 8003a18:	2301      	moveq	r3, #1
 8003a1a:	2300      	movne	r3, #0
 8003a1c:	42b3      	cmp	r3, r6
 8003a1e:	d001      	beq.n	8003a24 <I2C_WaitOnFlagUntilTimeout+0x24>
 8003a20:	2000      	movs	r0, #0
 8003a22:	e01e      	b.n	8003a62 <I2C_WaitOnFlagUntilTimeout+0x62>
 8003a24:	1c6b      	adds	r3, r5, #1
 8003a26:	d0f3      	beq.n	8003a10 <I2C_WaitOnFlagUntilTimeout+0x10>
 8003a28:	f7fe fb0c 	bl	8002044 <HAL_GetTick>
 8003a2c:	1bc0      	subs	r0, r0, r7
 8003a2e:	42a8      	cmp	r0, r5
 8003a30:	d801      	bhi.n	8003a36 <I2C_WaitOnFlagUntilTimeout+0x36>
 8003a32:	2d00      	cmp	r5, #0
 8003a34:	d1eb      	bne.n	8003a0e <I2C_WaitOnFlagUntilTimeout+0xe>
 8003a36:	6823      	ldr	r3, [r4, #0]
 8003a38:	699b      	ldr	r3, [r3, #24]
 8003a3a:	ea38 0303 	bics.w	r3, r8, r3
 8003a3e:	bf0c      	ite	eq
 8003a40:	2301      	moveq	r3, #1
 8003a42:	2300      	movne	r3, #0
 8003a44:	42b3      	cmp	r3, r6
 8003a46:	d1e2      	bne.n	8003a0e <I2C_WaitOnFlagUntilTimeout+0xe>
 8003a48:	6c63      	ldr	r3, [r4, #68]	; 0x44
 8003a4a:	f043 0320 	orr.w	r3, r3, #32
 8003a4e:	6463      	str	r3, [r4, #68]	; 0x44
 8003a50:	2320      	movs	r3, #32
 8003a52:	f884 3041 	strb.w	r3, [r4, #65]	; 0x41
 8003a56:	2300      	movs	r3, #0
 8003a58:	f884 3042 	strb.w	r3, [r4, #66]	; 0x42
 8003a5c:	f884 3040 	strb.w	r3, [r4, #64]	; 0x40
 8003a60:	2001      	movs	r0, #1
 8003a62:	e8bd 81f0 	ldmia.w	sp!, {r4, r5, r6, r7, r8, pc}

08003a66 <I2C_WaitOnSTOPFlagUntilTimeout>:
 8003a66:	b570      	push	{r4, r5, r6, lr}
 8003a68:	4604      	mov	r4, r0
 8003a6a:	460d      	mov	r5, r1
 8003a6c:	4616      	mov	r6, r2
 8003a6e:	6823      	ldr	r3, [r4, #0]
 8003a70:	699b      	ldr	r3, [r3, #24]
 8003a72:	069b      	lsls	r3, r3, #26
 8003a74:	d501      	bpl.n	8003a7a <I2C_WaitOnSTOPFlagUntilTimeout+0x14>
 8003a76:	2000      	movs	r0, #0
 8003a78:	bd70      	pop	{r4, r5, r6, pc}
 8003a7a:	4632      	mov	r2, r6
 8003a7c:	4629      	mov	r1, r5
 8003a7e:	4620      	mov	r0, r4
 8003a80:	f7ff ff13 	bl	80038aa <I2C_IsErrorOccurred>
 8003a84:	b9b0      	cbnz	r0, 8003ab4 <I2C_WaitOnSTOPFlagUntilTimeout+0x4e>
 8003a86:	f7fe fadd 	bl	8002044 <HAL_GetTick>
 8003a8a:	1b80      	subs	r0, r0, r6
 8003a8c:	42a8      	cmp	r0, r5
 8003a8e:	d801      	bhi.n	8003a94 <I2C_WaitOnSTOPFlagUntilTimeout+0x2e>
 8003a90:	2d00      	cmp	r5, #0
 8003a92:	d1ec      	bne.n	8003a6e <I2C_WaitOnSTOPFlagUntilTimeout+0x8>
 8003a94:	6823      	ldr	r3, [r4, #0]
 8003a96:	699b      	ldr	r3, [r3, #24]
 8003a98:	f013 0320 	ands.w	r3, r3, #32
 8003a9c:	d1e7      	bne.n	8003a6e <I2C_WaitOnSTOPFlagUntilTimeout+0x8>
 8003a9e:	6c62      	ldr	r2, [r4, #68]	; 0x44
 8003aa0:	f884 3040 	strb.w	r3, [r4, #64]	; 0x40
 8003aa4:	f042 0220 	orr.w	r2, r2, #32
 8003aa8:	6462      	str	r2, [r4, #68]	; 0x44
 8003aaa:	2220      	movs	r2, #32
 8003aac:	f884 2041 	strb.w	r2, [r4, #65]	; 0x41
 8003ab0:	f884 3042 	strb.w	r3, [r4, #66]	; 0x42
 8003ab4:	2001      	movs	r0, #1
 8003ab6:	e7df      	b.n	8003a78 <I2C_WaitOnSTOPFlagUntilTimeout+0x12>

08003ab8 <I2C_WaitOnRXNEFlagUntilTimeout>:
 8003ab8:	b570      	push	{r4, r5, r6, lr}
 8003aba:	4604      	mov	r4, r0
 8003abc:	460d      	mov	r5, r1
 8003abe:	4616      	mov	r6, r2
 8003ac0:	6823      	ldr	r3, [r4, #0]
 8003ac2:	699b      	ldr	r3, [r3, #24]
 8003ac4:	075b      	lsls	r3, r3, #29
 8003ac6:	d40e      	bmi.n	8003ae6 <I2C_WaitOnRXNEFlagUntilTimeout+0x2e>
 8003ac8:	4632      	mov	r2, r6
 8003aca:	4629      	mov	r1, r5
 8003acc:	4620      	mov	r0, r4
 8003ace:	f7ff feec 	bl	80038aa <I2C_IsErrorOccurred>
 8003ad2:	bb38      	cbnz	r0, 8003b24 <I2C_WaitOnRXNEFlagUntilTimeout+0x6c>
 8003ad4:	6823      	ldr	r3, [r4, #0]
 8003ad6:	699a      	ldr	r2, [r3, #24]
 8003ad8:	0691      	lsls	r1, r2, #26
 8003ada:	d525      	bpl.n	8003b28 <I2C_WaitOnRXNEFlagUntilTimeout+0x70>
 8003adc:	699a      	ldr	r2, [r3, #24]
 8003ade:	0752      	lsls	r2, r2, #29
 8003ae0:	d503      	bpl.n	8003aea <I2C_WaitOnRXNEFlagUntilTimeout+0x32>
 8003ae2:	8d22      	ldrh	r2, [r4, #40]	; 0x28
 8003ae4:	b10a      	cbz	r2, 8003aea <I2C_WaitOnRXNEFlagUntilTimeout+0x32>
 8003ae6:	2000      	movs	r0, #0
 8003ae8:	bd70      	pop	{r4, r5, r6, pc}
 8003aea:	699a      	ldr	r2, [r3, #24]
 8003aec:	f012 0210 	ands.w	r2, r2, #16
 8003af0:	bf1c      	itt	ne
 8003af2:	2210      	movne	r2, #16
 8003af4:	61da      	strne	r2, [r3, #28]
 8003af6:	f04f 0120 	mov.w	r1, #32
 8003afa:	bf18      	it	ne
 8003afc:	2204      	movne	r2, #4
 8003afe:	6462      	str	r2, [r4, #68]	; 0x44
 8003b00:	61d9      	str	r1, [r3, #28]
 8003b02:	685a      	ldr	r2, [r3, #4]
 8003b04:	f022 72ff 	bic.w	r2, r2, #33423360	; 0x1fe0000
 8003b08:	f422 328b 	bic.w	r2, r2, #71168	; 0x11600
 8003b0c:	f422 72ff 	bic.w	r2, r2, #510	; 0x1fe
 8003b10:	f022 0201 	bic.w	r2, r2, #1
 8003b14:	605a      	str	r2, [r3, #4]
 8003b16:	2300      	movs	r3, #0
 8003b18:	f884 1041 	strb.w	r1, [r4, #65]	; 0x41
 8003b1c:	f884 3042 	strb.w	r3, [r4, #66]	; 0x42
 8003b20:	f884 3040 	strb.w	r3, [r4, #64]	; 0x40
 8003b24:	2001      	movs	r0, #1
 8003b26:	e7df      	b.n	8003ae8 <I2C_WaitOnRXNEFlagUntilTimeout+0x30>
 8003b28:	f7fe fa8c 	bl	8002044 <HAL_GetTick>
 8003b2c:	1b80      	subs	r0, r0, r6
 8003b2e:	42a8      	cmp	r0, r5
 8003b30:	d801      	bhi.n	8003b36 <I2C_WaitOnRXNEFlagUntilTimeout+0x7e>
 8003b32:	2d00      	cmp	r5, #0
 8003b34:	d1c4      	bne.n	8003ac0 <I2C_WaitOnRXNEFlagUntilTimeout+0x8>
 8003b36:	6823      	ldr	r3, [r4, #0]
 8003b38:	699b      	ldr	r3, [r3, #24]
 8003b3a:	f013 0304 	ands.w	r3, r3, #4
 8003b3e:	d1bf      	bne.n	8003ac0 <I2C_WaitOnRXNEFlagUntilTimeout+0x8>
 8003b40:	6c62      	ldr	r2, [r4, #68]	; 0x44
 8003b42:	f042 0220 	orr.w	r2, r2, #32
 8003b46:	6462      	str	r2, [r4, #68]	; 0x44
 8003b48:	2220      	movs	r2, #32
 8003b4a:	f884 2041 	strb.w	r2, [r4, #65]	; 0x41
 8003b4e:	e7e7      	b.n	8003b20 <I2C_WaitOnRXNEFlagUntilTimeout+0x68>

08003b50 <HAL_I2C_Init>:
 8003b50:	b510      	push	{r4, lr}
 8003b52:	4604      	mov	r4, r0
 8003b54:	2800      	cmp	r0, #0
 8003b56:	d04a      	beq.n	8003bee <HAL_I2C_Init+0x9e>
 8003b58:	f890 3041 	ldrb.w	r3, [r0, #65]	; 0x41
 8003b5c:	f003 02ff 	and.w	r2, r3, #255	; 0xff
 8003b60:	b91b      	cbnz	r3, 8003b6a <HAL_I2C_Init+0x1a>
 8003b62:	f880 2040 	strb.w	r2, [r0, #64]	; 0x40
 8003b66:	f7fd ff41 	bl	80019ec <HAL_I2C_MspInit>
 8003b6a:	2324      	movs	r3, #36	; 0x24
 8003b6c:	f884 3041 	strb.w	r3, [r4, #65]	; 0x41
 8003b70:	6823      	ldr	r3, [r4, #0]
 8003b72:	681a      	ldr	r2, [r3, #0]
 8003b74:	f022 0201 	bic.w	r2, r2, #1
 8003b78:	601a      	str	r2, [r3, #0]
 8003b7a:	6862      	ldr	r2, [r4, #4]
 8003b7c:	f022 6270 	bic.w	r2, r2, #251658240	; 0xf000000
 8003b80:	611a      	str	r2, [r3, #16]
 8003b82:	689a      	ldr	r2, [r3, #8]
 8003b84:	f422 4200 	bic.w	r2, r2, #32768	; 0x8000
 8003b88:	609a      	str	r2, [r3, #8]
 8003b8a:	e9d4 2102 	ldrd	r2, r1, [r4, #8]
 8003b8e:	2901      	cmp	r1, #1
 8003b90:	d124      	bne.n	8003bdc <HAL_I2C_Init+0x8c>
 8003b92:	f442 4200 	orr.w	r2, r2, #32768	; 0x8000
 8003b96:	609a      	str	r2, [r3, #8]
 8003b98:	685a      	ldr	r2, [r3, #4]
 8003b9a:	f042 7200 	orr.w	r2, r2, #33554432	; 0x2000000
 8003b9e:	f442 4200 	orr.w	r2, r2, #32768	; 0x8000
 8003ba2:	605a      	str	r2, [r3, #4]
 8003ba4:	68da      	ldr	r2, [r3, #12]
 8003ba6:	f422 4200 	bic.w	r2, r2, #32768	; 0x8000
 8003baa:	60da      	str	r2, [r3, #12]
 8003bac:	e9d4 2104 	ldrd	r2, r1, [r4, #16]
 8003bb0:	430a      	orrs	r2, r1
 8003bb2:	69a1      	ldr	r1, [r4, #24]
 8003bb4:	ea42 2201 	orr.w	r2, r2, r1, lsl #8
 8003bb8:	60da      	str	r2, [r3, #12]
 8003bba:	e9d4 2107 	ldrd	r2, r1, [r4, #28]
 8003bbe:	430a      	orrs	r2, r1
 8003bc0:	601a      	str	r2, [r3, #0]
 8003bc2:	681a      	ldr	r2, [r3, #0]
 8003bc4:	f042 0201 	orr.w	r2, r2, #1
 8003bc8:	601a      	str	r2, [r3, #0]
 8003bca:	2000      	movs	r0, #0
 8003bcc:	2320      	movs	r3, #32
 8003bce:	6460      	str	r0, [r4, #68]	; 0x44
 8003bd0:	f884 3041 	strb.w	r3, [r4, #65]	; 0x41
 8003bd4:	6320      	str	r0, [r4, #48]	; 0x30
 8003bd6:	f884 0042 	strb.w	r0, [r4, #66]	; 0x42
 8003bda:	bd10      	pop	{r4, pc}
 8003bdc:	f442 4204 	orr.w	r2, r2, #33792	; 0x8400
 8003be0:	2902      	cmp	r1, #2
 8003be2:	609a      	str	r2, [r3, #8]
 8003be4:	bf04      	itt	eq
 8003be6:	f44f 6200 	moveq.w	r2, #2048	; 0x800
 8003bea:	605a      	streq	r2, [r3, #4]
 8003bec:	e7d4      	b.n	8003b98 <HAL_I2C_Init+0x48>
 8003bee:	2001      	movs	r0, #1
 8003bf0:	e7f3      	b.n	8003bda <HAL_I2C_Init+0x8a>

08003bf2 <HAL_I2C_DeInit>:
 8003bf2:	b510      	push	{r4, lr}
 8003bf4:	4604      	mov	r4, r0
 8003bf6:	b198      	cbz	r0, 8003c20 <HAL_I2C_DeInit+0x2e>
 8003bf8:	6802      	ldr	r2, [r0, #0]
 8003bfa:	2324      	movs	r3, #36	; 0x24
 8003bfc:	f880 3041 	strb.w	r3, [r0, #65]	; 0x41
 8003c00:	6813      	ldr	r3, [r2, #0]
 8003c02:	f023 0301 	bic.w	r3, r3, #1
 8003c06:	6013      	str	r3, [r2, #0]
 8003c08:	f7fd ff34 	bl	8001a74 <HAL_I2C_MspDeInit>
 8003c0c:	2000      	movs	r0, #0
 8003c0e:	6460      	str	r0, [r4, #68]	; 0x44
 8003c10:	f884 0040 	strb.w	r0, [r4, #64]	; 0x40
 8003c14:	f884 0041 	strb.w	r0, [r4, #65]	; 0x41
 8003c18:	6320      	str	r0, [r4, #48]	; 0x30
 8003c1a:	f884 0042 	strb.w	r0, [r4, #66]	; 0x42
 8003c1e:	bd10      	pop	{r4, pc}
 8003c20:	2001      	movs	r0, #1
 8003c22:	e7fc      	b.n	8003c1e <HAL_I2C_DeInit+0x2c>

08003c24 <HAL_I2C_Master_Transmit>:
 8003c24:	e92d 47f3 	stmdb	sp!, {r0, r1, r4, r5, r6, r7, r8, r9, sl, lr}
 8003c28:	4698      	mov	r8, r3
 8003c2a:	f890 3041 	ldrb.w	r3, [r0, #65]	; 0x41
 8003c2e:	9f0a      	ldr	r7, [sp, #40]	; 0x28
 8003c30:	2b20      	cmp	r3, #32
 8003c32:	4604      	mov	r4, r0
 8003c34:	460e      	mov	r6, r1
 8003c36:	4691      	mov	r9, r2
 8003c38:	f040 8086 	bne.w	8003d48 <HAL_I2C_Master_Transmit+0x124>
 8003c3c:	f890 3040 	ldrb.w	r3, [r0, #64]	; 0x40
 8003c40:	2b01      	cmp	r3, #1
 8003c42:	f000 8081 	beq.w	8003d48 <HAL_I2C_Master_Transmit+0x124>
 8003c46:	f04f 0a01 	mov.w	sl, #1
 8003c4a:	f880 a040 	strb.w	sl, [r0, #64]	; 0x40
 8003c4e:	f7fe f9f9 	bl	8002044 <HAL_GetTick>
 8003c52:	2319      	movs	r3, #25
 8003c54:	4605      	mov	r5, r0
 8003c56:	9000      	str	r0, [sp, #0]
 8003c58:	4652      	mov	r2, sl
 8003c5a:	f44f 4100 	mov.w	r1, #32768	; 0x8000
 8003c5e:	4620      	mov	r0, r4
 8003c60:	f7ff fece 	bl	8003a00 <I2C_WaitOnFlagUntilTimeout>
 8003c64:	b118      	cbz	r0, 8003c6e <HAL_I2C_Master_Transmit+0x4a>
 8003c66:	2001      	movs	r0, #1
 8003c68:	b002      	add	sp, #8
 8003c6a:	e8bd 87f0 	ldmia.w	sp!, {r4, r5, r6, r7, r8, r9, sl, pc}
 8003c6e:	2321      	movs	r3, #33	; 0x21
 8003c70:	f884 3041 	strb.w	r3, [r4, #65]	; 0x41
 8003c74:	2310      	movs	r3, #16
 8003c76:	f884 3042 	strb.w	r3, [r4, #66]	; 0x42
 8003c7a:	6460      	str	r0, [r4, #68]	; 0x44
 8003c7c:	f8a4 802a 	strh.w	r8, [r4, #42]	; 0x2a
 8003c80:	8d63      	ldrh	r3, [r4, #42]	; 0x2a
 8003c82:	f8c4 9024 	str.w	r9, [r4, #36]	; 0x24
 8003c86:	b29b      	uxth	r3, r3
 8003c88:	2bff      	cmp	r3, #255	; 0xff
 8003c8a:	6360      	str	r0, [r4, #52]	; 0x34
 8003c8c:	4b2f      	ldr	r3, [pc, #188]	; (8003d4c <HAL_I2C_Master_Transmit+0x128>)
 8003c8e:	d926      	bls.n	8003cde <HAL_I2C_Master_Transmit+0xba>
 8003c90:	22ff      	movs	r2, #255	; 0xff
 8003c92:	8522      	strh	r2, [r4, #40]	; 0x28
 8003c94:	9300      	str	r3, [sp, #0]
 8003c96:	f04f 7380 	mov.w	r3, #16777216	; 0x1000000
 8003c9a:	4631      	mov	r1, r6
 8003c9c:	4620      	mov	r0, r4
 8003c9e:	f7ff fd85 	bl	80037ac <I2C_TransferConfig>
 8003ca2:	8d63      	ldrh	r3, [r4, #42]	; 0x2a
 8003ca4:	b29b      	uxth	r3, r3
 8003ca6:	462a      	mov	r2, r5
 8003ca8:	4639      	mov	r1, r7
 8003caa:	4620      	mov	r0, r4
 8003cac:	b9fb      	cbnz	r3, 8003cee <HAL_I2C_Master_Transmit+0xca>
 8003cae:	f7ff feda 	bl	8003a66 <I2C_WaitOnSTOPFlagUntilTimeout>
 8003cb2:	2800      	cmp	r0, #0
 8003cb4:	d1d7      	bne.n	8003c66 <HAL_I2C_Master_Transmit+0x42>
 8003cb6:	6823      	ldr	r3, [r4, #0]
 8003cb8:	2120      	movs	r1, #32
 8003cba:	61d9      	str	r1, [r3, #28]
 8003cbc:	685a      	ldr	r2, [r3, #4]
 8003cbe:	f022 72ff 	bic.w	r2, r2, #33423360	; 0x1fe0000
 8003cc2:	f422 328b 	bic.w	r2, r2, #71168	; 0x11600
 8003cc6:	f422 72ff 	bic.w	r2, r2, #510	; 0x1fe
 8003cca:	f022 0201 	bic.w	r2, r2, #1
 8003cce:	605a      	str	r2, [r3, #4]
 8003cd0:	f884 1041 	strb.w	r1, [r4, #65]	; 0x41
 8003cd4:	f884 0040 	strb.w	r0, [r4, #64]	; 0x40
 8003cd8:	f884 0042 	strb.w	r0, [r4, #66]	; 0x42
 8003cdc:	e7c4      	b.n	8003c68 <HAL_I2C_Master_Transmit+0x44>
 8003cde:	8d62      	ldrh	r2, [r4, #42]	; 0x2a
 8003ce0:	9300      	str	r3, [sp, #0]
 8003ce2:	b292      	uxth	r2, r2
 8003ce4:	8522      	strh	r2, [r4, #40]	; 0x28
 8003ce6:	f04f 7300 	mov.w	r3, #33554432	; 0x2000000
 8003cea:	b2d2      	uxtb	r2, r2
 8003cec:	e7d5      	b.n	8003c9a <HAL_I2C_Master_Transmit+0x76>
 8003cee:	f7ff fe5c 	bl	80039aa <I2C_WaitOnTXISFlagUntilTimeout>
 8003cf2:	2800      	cmp	r0, #0
 8003cf4:	d1b7      	bne.n	8003c66 <HAL_I2C_Master_Transmit+0x42>
 8003cf6:	6a63      	ldr	r3, [r4, #36]	; 0x24
 8003cf8:	6822      	ldr	r2, [r4, #0]
 8003cfa:	f813 1b01 	ldrb.w	r1, [r3], #1
 8003cfe:	6291      	str	r1, [r2, #40]	; 0x28
 8003d00:	6263      	str	r3, [r4, #36]	; 0x24
 8003d02:	8d63      	ldrh	r3, [r4, #42]	; 0x2a
 8003d04:	8d22      	ldrh	r2, [r4, #40]	; 0x28
 8003d06:	3b01      	subs	r3, #1
 8003d08:	b29b      	uxth	r3, r3
 8003d0a:	8563      	strh	r3, [r4, #42]	; 0x2a
 8003d0c:	8d63      	ldrh	r3, [r4, #42]	; 0x2a
 8003d0e:	3a01      	subs	r2, #1
 8003d10:	b292      	uxth	r2, r2
 8003d12:	b29b      	uxth	r3, r3
 8003d14:	8522      	strh	r2, [r4, #40]	; 0x28
 8003d16:	2b00      	cmp	r3, #0
 8003d18:	d0c3      	beq.n	8003ca2 <HAL_I2C_Master_Transmit+0x7e>
 8003d1a:	2a00      	cmp	r2, #0
 8003d1c:	d1c1      	bne.n	8003ca2 <HAL_I2C_Master_Transmit+0x7e>
 8003d1e:	9500      	str	r5, [sp, #0]
 8003d20:	463b      	mov	r3, r7
 8003d22:	2180      	movs	r1, #128	; 0x80
 8003d24:	4620      	mov	r0, r4
 8003d26:	f7ff fe6b 	bl	8003a00 <I2C_WaitOnFlagUntilTimeout>
 8003d2a:	2800      	cmp	r0, #0
 8003d2c:	d19b      	bne.n	8003c66 <HAL_I2C_Master_Transmit+0x42>
 8003d2e:	8d63      	ldrh	r3, [r4, #42]	; 0x2a
 8003d30:	b29b      	uxth	r3, r3
 8003d32:	2bff      	cmp	r3, #255	; 0xff
 8003d34:	d903      	bls.n	8003d3e <HAL_I2C_Master_Transmit+0x11a>
 8003d36:	22ff      	movs	r2, #255	; 0xff
 8003d38:	8522      	strh	r2, [r4, #40]	; 0x28
 8003d3a:	9000      	str	r0, [sp, #0]
 8003d3c:	e7ab      	b.n	8003c96 <HAL_I2C_Master_Transmit+0x72>
 8003d3e:	8d62      	ldrh	r2, [r4, #42]	; 0x2a
 8003d40:	9000      	str	r0, [sp, #0]
 8003d42:	b292      	uxth	r2, r2
 8003d44:	8522      	strh	r2, [r4, #40]	; 0x28
 8003d46:	e7ce      	b.n	8003ce6 <HAL_I2C_Master_Transmit+0xc2>
 8003d48:	2002      	movs	r0, #2
 8003d4a:	e78d      	b.n	8003c68 <HAL_I2C_Master_Transmit+0x44>
 8003d4c:	80002000 	.word	0x80002000

08003d50 <HAL_I2C_Master_Receive>:
 8003d50:	e92d 47f3 	stmdb	sp!, {r0, r1, r4, r5, r6, r7, r8, r9, sl, lr}
 8003d54:	4698      	mov	r8, r3
 8003d56:	f890 3041 	ldrb.w	r3, [r0, #65]	; 0x41
 8003d5a:	9f0a      	ldr	r7, [sp, #40]	; 0x28
 8003d5c:	2b20      	cmp	r3, #32
 8003d5e:	4604      	mov	r4, r0
 8003d60:	460e      	mov	r6, r1
 8003d62:	4691      	mov	r9, r2
 8003d64:	f040 8087 	bne.w	8003e76 <HAL_I2C_Master_Receive+0x126>
 8003d68:	f890 3040 	ldrb.w	r3, [r0, #64]	; 0x40
 8003d6c:	2b01      	cmp	r3, #1
 8003d6e:	f000 8082 	beq.w	8003e76 <HAL_I2C_Master_Receive+0x126>
 8003d72:	f04f 0a01 	mov.w	sl, #1
 8003d76:	f880 a040 	strb.w	sl, [r0, #64]	; 0x40
 8003d7a:	f7fe f963 	bl	8002044 <HAL_GetTick>
 8003d7e:	2319      	movs	r3, #25
 8003d80:	4605      	mov	r5, r0
 8003d82:	9000      	str	r0, [sp, #0]
 8003d84:	4652      	mov	r2, sl
 8003d86:	f44f 4100 	mov.w	r1, #32768	; 0x8000
 8003d8a:	4620      	mov	r0, r4
 8003d8c:	f7ff fe38 	bl	8003a00 <I2C_WaitOnFlagUntilTimeout>
 8003d90:	b118      	cbz	r0, 8003d9a <HAL_I2C_Master_Receive+0x4a>
 8003d92:	2001      	movs	r0, #1
 8003d94:	b002      	add	sp, #8
 8003d96:	e8bd 87f0 	ldmia.w	sp!, {r4, r5, r6, r7, r8, r9, sl, pc}
 8003d9a:	2322      	movs	r3, #34	; 0x22
 8003d9c:	f884 3041 	strb.w	r3, [r4, #65]	; 0x41
 8003da0:	2310      	movs	r3, #16
 8003da2:	f884 3042 	strb.w	r3, [r4, #66]	; 0x42
 8003da6:	6460      	str	r0, [r4, #68]	; 0x44
 8003da8:	f8a4 802a 	strh.w	r8, [r4, #42]	; 0x2a
 8003dac:	8d63      	ldrh	r3, [r4, #42]	; 0x2a
 8003dae:	f8c4 9024 	str.w	r9, [r4, #36]	; 0x24
 8003db2:	b29b      	uxth	r3, r3
 8003db4:	2bff      	cmp	r3, #255	; 0xff
 8003db6:	6360      	str	r0, [r4, #52]	; 0x34
 8003db8:	4b30      	ldr	r3, [pc, #192]	; (8003e7c <HAL_I2C_Master_Receive+0x12c>)
 8003dba:	d926      	bls.n	8003e0a <HAL_I2C_Master_Receive+0xba>
 8003dbc:	22ff      	movs	r2, #255	; 0xff
 8003dbe:	8522      	strh	r2, [r4, #40]	; 0x28
 8003dc0:	9300      	str	r3, [sp, #0]
 8003dc2:	f04f 7380 	mov.w	r3, #16777216	; 0x1000000
 8003dc6:	4631      	mov	r1, r6
 8003dc8:	4620      	mov	r0, r4
 8003dca:	f7ff fcef 	bl	80037ac <I2C_TransferConfig>
 8003dce:	8d63      	ldrh	r3, [r4, #42]	; 0x2a
 8003dd0:	b29b      	uxth	r3, r3
 8003dd2:	462a      	mov	r2, r5
 8003dd4:	4639      	mov	r1, r7
 8003dd6:	4620      	mov	r0, r4
 8003dd8:	b9fb      	cbnz	r3, 8003e1a <HAL_I2C_Master_Receive+0xca>
 8003dda:	f7ff fe44 	bl	8003a66 <I2C_WaitOnSTOPFlagUntilTimeout>
 8003dde:	2800      	cmp	r0, #0
 8003de0:	d1d7      	bne.n	8003d92 <HAL_I2C_Master_Receive+0x42>
 8003de2:	6823      	ldr	r3, [r4, #0]
 8003de4:	2120      	movs	r1, #32
 8003de6:	61d9      	str	r1, [r3, #28]
 8003de8:	685a      	ldr	r2, [r3, #4]
 8003dea:	f022 72ff 	bic.w	r2, r2, #33423360	; 0x1fe0000
 8003dee:	f422 328b 	bic.w	r2, r2, #71168	; 0x11600
 8003df2:	f422 72ff 	bic.w	r2, r2, #510	; 0x1fe
 8003df6:	f022 0201 	bic.w	r2, r2, #1
 8003dfa:	605a      	str	r2, [r3, #4]
 8003dfc:	f884 1041 	strb.w	r1, [r4, #65]	; 0x41
 8003e00:	f884 0040 	strb.w	r0, [r4, #64]	; 0x40
 8003e04:	f884 0042 	strb.w	r0, [r4, #66]	; 0x42
 8003e08:	e7c4      	b.n	8003d94 <HAL_I2C_Master_Receive+0x44>
 8003e0a:	8d62      	ldrh	r2, [r4, #42]	; 0x2a
 8003e0c:	9300      	str	r3, [sp, #0]
 8003e0e:	b292      	uxth	r2, r2
 8003e10:	8522      	strh	r2, [r4, #40]	; 0x28
 8003e12:	f04f 7300 	mov.w	r3, #33554432	; 0x2000000
 8003e16:	b2d2      	uxtb	r2, r2
 8003e18:	e7d5      	b.n	8003dc6 <HAL_I2C_Master_Receive+0x76>
 8003e1a:	f7ff fe4d 	bl	8003ab8 <I2C_WaitOnRXNEFlagUntilTimeout>
 8003e1e:	2800      	cmp	r0, #0
 8003e20:	d1b7      	bne.n	8003d92 <HAL_I2C_Master_Receive+0x42>
 8003e22:	6823      	ldr	r3, [r4, #0]
 8003e24:	6a5a      	ldr	r2, [r3, #36]	; 0x24
 8003e26:	6a63      	ldr	r3, [r4, #36]	; 0x24
 8003e28:	701a      	strb	r2, [r3, #0]
 8003e2a:	6a63      	ldr	r3, [r4, #36]	; 0x24
 8003e2c:	8d22      	ldrh	r2, [r4, #40]	; 0x28
 8003e2e:	3301      	adds	r3, #1
 8003e30:	6263      	str	r3, [r4, #36]	; 0x24
 8003e32:	8d63      	ldrh	r3, [r4, #42]	; 0x2a
 8003e34:	3b01      	subs	r3, #1
 8003e36:	b29b      	uxth	r3, r3
 8003e38:	8563      	strh	r3, [r4, #42]	; 0x2a
 8003e3a:	8d63      	ldrh	r3, [r4, #42]	; 0x2a
 8003e3c:	3a01      	subs	r2, #1
 8003e3e:	b292      	uxth	r2, r2
 8003e40:	b29b      	uxth	r3, r3
 8003e42:	8522      	strh	r2, [r4, #40]	; 0x28
 8003e44:	2b00      	cmp	r3, #0
 8003e46:	d0c2      	beq.n	8003dce <HAL_I2C_Master_Receive+0x7e>
 8003e48:	2a00      	cmp	r2, #0
 8003e4a:	d1c0      	bne.n	8003dce <HAL_I2C_Master_Receive+0x7e>
 8003e4c:	9500      	str	r5, [sp, #0]
 8003e4e:	463b      	mov	r3, r7
 8003e50:	2180      	movs	r1, #128	; 0x80
 8003e52:	4620      	mov	r0, r4
 8003e54:	f7ff fdd4 	bl	8003a00 <I2C_WaitOnFlagUntilTimeout>
 8003e58:	2800      	cmp	r0, #0
 8003e5a:	d19a      	bne.n	8003d92 <HAL_I2C_Master_Receive+0x42>
 8003e5c:	8d63      	ldrh	r3, [r4, #42]	; 0x2a
 8003e5e:	b29b      	uxth	r3, r3
 8003e60:	2bff      	cmp	r3, #255	; 0xff
 8003e62:	d903      	bls.n	8003e6c <HAL_I2C_Master_Receive+0x11c>
 8003e64:	22ff      	movs	r2, #255	; 0xff
 8003e66:	8522      	strh	r2, [r4, #40]	; 0x28
 8003e68:	9000      	str	r0, [sp, #0]
 8003e6a:	e7aa      	b.n	8003dc2 <HAL_I2C_Master_Receive+0x72>
 8003e6c:	8d62      	ldrh	r2, [r4, #42]	; 0x2a
 8003e6e:	9000      	str	r0, [sp, #0]
 8003e70:	b292      	uxth	r2, r2
 8003e72:	8522      	strh	r2, [r4, #40]	; 0x28
 8003e74:	e7cd      	b.n	8003e12 <HAL_I2C_Master_Receive+0xc2>
 8003e76:	2002      	movs	r0, #2
 8003e78:	e78c      	b.n	8003d94 <HAL_I2C_Master_Receive+0x44>
 8003e7a:	bf00      	nop
 8003e7c:	80002400 	.word	0x80002400

08003e80 <HAL_I2C_IsDeviceReady>:
 8003e80:	e92d 4ff0 	stmdb	sp!, {r4, r5, r6, r7, r8, r9, sl, fp, lr}
 8003e84:	b085      	sub	sp, #20
 8003e86:	461e      	mov	r6, r3
 8003e88:	2300      	movs	r3, #0
 8003e8a:	9303      	str	r3, [sp, #12]
 8003e8c:	f890 3041 	ldrb.w	r3, [r0, #65]	; 0x41
 8003e90:	2b20      	cmp	r3, #32
 8003e92:	4604      	mov	r4, r0
 8003e94:	4691      	mov	r9, r2
 8003e96:	f040 8090 	bne.w	8003fba <HAL_I2C_IsDeviceReady+0x13a>
 8003e9a:	6803      	ldr	r3, [r0, #0]
 8003e9c:	699b      	ldr	r3, [r3, #24]
 8003e9e:	f413 4300 	ands.w	r3, r3, #32768	; 0x8000
 8003ea2:	f040 808a 	bne.w	8003fba <HAL_I2C_IsDeviceReady+0x13a>
 8003ea6:	f890 2040 	ldrb.w	r2, [r0, #64]	; 0x40
 8003eaa:	2a01      	cmp	r2, #1
 8003eac:	f000 8085 	beq.w	8003fba <HAL_I2C_IsDeviceReady+0x13a>
 8003eb0:	2201      	movs	r2, #1
 8003eb2:	f3c1 0709 	ubfx	r7, r1, #0, #10
 8003eb6:	f880 2040 	strb.w	r2, [r0, #64]	; 0x40
 8003eba:	f047 7a00 	orr.w	sl, r7, #33554432	; 0x2000000
 8003ebe:	2224      	movs	r2, #36	; 0x24
 8003ec0:	f880 2041 	strb.w	r2, [r0, #65]	; 0x41
 8003ec4:	f44a 5a20 	orr.w	sl, sl, #10240	; 0x2800
 8003ec8:	6443      	str	r3, [r0, #68]	; 0x44
 8003eca:	68e3      	ldr	r3, [r4, #12]
 8003ecc:	6822      	ldr	r2, [r4, #0]
 8003ece:	2b01      	cmp	r3, #1
 8003ed0:	bf06      	itte	eq
 8003ed2:	f047 7300 	orreq.w	r3, r7, #33554432	; 0x2000000
 8003ed6:	f443 5300 	orreq.w	r3, r3, #8192	; 0x2000
 8003eda:	4653      	movne	r3, sl
 8003edc:	6053      	str	r3, [r2, #4]
 8003ede:	f7fe f8b1 	bl	8002044 <HAL_GetTick>
 8003ee2:	4680      	mov	r8, r0
 8003ee4:	6823      	ldr	r3, [r4, #0]
 8003ee6:	699d      	ldr	r5, [r3, #24]
 8003ee8:	699b      	ldr	r3, [r3, #24]
 8003eea:	f3c5 1540 	ubfx	r5, r5, #5, #1
 8003eee:	f3c3 1300 	ubfx	r3, r3, #4, #1
 8003ef2:	431d      	orrs	r5, r3
 8003ef4:	d015      	beq.n	8003f22 <HAL_I2C_IsDeviceReady+0xa2>
 8003ef6:	6823      	ldr	r3, [r4, #0]
 8003ef8:	699a      	ldr	r2, [r3, #24]
 8003efa:	f8cd 8000 	str.w	r8, [sp]
 8003efe:	f012 0210 	ands.w	r2, r2, #16
 8003f02:	4633      	mov	r3, r6
 8003f04:	d126      	bne.n	8003f54 <HAL_I2C_IsDeviceReady+0xd4>
 8003f06:	2120      	movs	r1, #32
 8003f08:	4620      	mov	r0, r4
 8003f0a:	f7ff fd79 	bl	8003a00 <I2C_WaitOnFlagUntilTimeout>
 8003f0e:	b9e8      	cbnz	r0, 8003f4c <HAL_I2C_IsDeviceReady+0xcc>
 8003f10:	6822      	ldr	r2, [r4, #0]
 8003f12:	2320      	movs	r3, #32
 8003f14:	61d3      	str	r3, [r2, #28]
 8003f16:	4605      	mov	r5, r0
 8003f18:	f884 3041 	strb.w	r3, [r4, #65]	; 0x41
 8003f1c:	f884 0040 	strb.w	r0, [r4, #64]	; 0x40
 8003f20:	e014      	b.n	8003f4c <HAL_I2C_IsDeviceReady+0xcc>
 8003f22:	1c73      	adds	r3, r6, #1
 8003f24:	d0de      	beq.n	8003ee4 <HAL_I2C_IsDeviceReady+0x64>
 8003f26:	f7fe f88d 	bl	8002044 <HAL_GetTick>
 8003f2a:	eba0 0008 	sub.w	r0, r0, r8
 8003f2e:	42b0      	cmp	r0, r6
 8003f30:	d801      	bhi.n	8003f36 <HAL_I2C_IsDeviceReady+0xb6>
 8003f32:	2e00      	cmp	r6, #0
 8003f34:	d1d6      	bne.n	8003ee4 <HAL_I2C_IsDeviceReady+0x64>
 8003f36:	2320      	movs	r3, #32
 8003f38:	f884 3041 	strb.w	r3, [r4, #65]	; 0x41
 8003f3c:	6c63      	ldr	r3, [r4, #68]	; 0x44
 8003f3e:	f043 0320 	orr.w	r3, r3, #32
 8003f42:	6463      	str	r3, [r4, #68]	; 0x44
 8003f44:	2300      	movs	r3, #0
 8003f46:	f884 3040 	strb.w	r3, [r4, #64]	; 0x40
 8003f4a:	2501      	movs	r5, #1
 8003f4c:	4628      	mov	r0, r5
 8003f4e:	b005      	add	sp, #20
 8003f50:	e8bd 8ff0 	ldmia.w	sp!, {r4, r5, r6, r7, r8, r9, sl, fp, pc}
 8003f54:	2200      	movs	r2, #0
 8003f56:	2120      	movs	r1, #32
 8003f58:	4620      	mov	r0, r4
 8003f5a:	f7ff fd51 	bl	8003a00 <I2C_WaitOnFlagUntilTimeout>
 8003f5e:	4602      	mov	r2, r0
 8003f60:	2800      	cmp	r0, #0
 8003f62:	d1f3      	bne.n	8003f4c <HAL_I2C_IsDeviceReady+0xcc>
 8003f64:	6823      	ldr	r3, [r4, #0]
 8003f66:	2110      	movs	r1, #16
 8003f68:	f04f 0b20 	mov.w	fp, #32
 8003f6c:	61d9      	str	r1, [r3, #28]
 8003f6e:	f8c3 b01c 	str.w	fp, [r3, #28]
 8003f72:	9903      	ldr	r1, [sp, #12]
 8003f74:	4549      	cmp	r1, r9
 8003f76:	d10f      	bne.n	8003f98 <HAL_I2C_IsDeviceReady+0x118>
 8003f78:	6859      	ldr	r1, [r3, #4]
 8003f7a:	f441 4180 	orr.w	r1, r1, #16384	; 0x4000
 8003f7e:	6059      	str	r1, [r3, #4]
 8003f80:	4620      	mov	r0, r4
 8003f82:	f8cd 8000 	str.w	r8, [sp]
 8003f86:	4633      	mov	r3, r6
 8003f88:	4659      	mov	r1, fp
 8003f8a:	f7ff fd39 	bl	8003a00 <I2C_WaitOnFlagUntilTimeout>
 8003f8e:	2800      	cmp	r0, #0
 8003f90:	d1dc      	bne.n	8003f4c <HAL_I2C_IsDeviceReady+0xcc>
 8003f92:	6823      	ldr	r3, [r4, #0]
 8003f94:	f8c3 b01c 	str.w	fp, [r3, #28]
 8003f98:	9b03      	ldr	r3, [sp, #12]
 8003f9a:	3301      	adds	r3, #1
 8003f9c:	9303      	str	r3, [sp, #12]
 8003f9e:	9b03      	ldr	r3, [sp, #12]
 8003fa0:	454b      	cmp	r3, r9
 8003fa2:	d392      	bcc.n	8003eca <HAL_I2C_IsDeviceReady+0x4a>
 8003fa4:	2320      	movs	r3, #32
 8003fa6:	f884 3041 	strb.w	r3, [r4, #65]	; 0x41
 8003faa:	6c63      	ldr	r3, [r4, #68]	; 0x44
 8003fac:	f043 0320 	orr.w	r3, r3, #32
 8003fb0:	6463      	str	r3, [r4, #68]	; 0x44
 8003fb2:	2300      	movs	r3, #0
 8003fb4:	f884 3040 	strb.w	r3, [r4, #64]	; 0x40
 8003fb8:	e7c8      	b.n	8003f4c <HAL_I2C_IsDeviceReady+0xcc>
 8003fba:	2502      	movs	r5, #2
 8003fbc:	e7c6      	b.n	8003f4c <HAL_I2C_IsDeviceReady+0xcc>
	...

08003fc0 <HAL_I2C_Slave_Seq_Transmit_IT>:
 8003fc0:	b5f8      	push	{r3, r4, r5, r6, r7, lr}
 8003fc2:	461f      	mov	r7, r3
 8003fc4:	f890 3041 	ldrb.w	r3, [r0, #65]	; 0x41
 8003fc8:	f003 0328 	and.w	r3, r3, #40	; 0x28
 8003fcc:	2b28      	cmp	r3, #40	; 0x28
 8003fce:	4604      	mov	r4, r0
 8003fd0:	460e      	mov	r6, r1
 8003fd2:	4615      	mov	r5, r2
 8003fd4:	d104      	bne.n	8003fe0 <HAL_I2C_Slave_Seq_Transmit_IT+0x20>
 8003fd6:	b101      	cbz	r1, 8003fda <HAL_I2C_Slave_Seq_Transmit_IT+0x1a>
 8003fd8:	b922      	cbnz	r2, 8003fe4 <HAL_I2C_Slave_Seq_Transmit_IT+0x24>
 8003fda:	f44f 7300 	mov.w	r3, #512	; 0x200
 8003fde:	6463      	str	r3, [r4, #68]	; 0x44
 8003fe0:	2001      	movs	r0, #1
 8003fe2:	e047      	b.n	8004074 <HAL_I2C_Slave_Seq_Transmit_IT+0xb4>
 8003fe4:	f248 0101 	movw	r1, #32769	; 0x8001
 8003fe8:	f7ff fc3e 	bl	8003868 <I2C_Disable_IRQ>
 8003fec:	f890 3040 	ldrb.w	r3, [r0, #64]	; 0x40
 8003ff0:	2b01      	cmp	r3, #1
 8003ff2:	d040      	beq.n	8004076 <HAL_I2C_Slave_Seq_Transmit_IT+0xb6>
 8003ff4:	2301      	movs	r3, #1
 8003ff6:	f880 3040 	strb.w	r3, [r0, #64]	; 0x40
 8003ffa:	f890 3041 	ldrb.w	r3, [r0, #65]	; 0x41
 8003ffe:	2b2a      	cmp	r3, #42	; 0x2a
 8004000:	d114      	bne.n	800402c <HAL_I2C_Slave_Seq_Transmit_IT+0x6c>
 8004002:	2102      	movs	r1, #2
 8004004:	f7ff fc30 	bl	8003868 <I2C_Disable_IRQ>
 8004008:	6803      	ldr	r3, [r0, #0]
 800400a:	681a      	ldr	r2, [r3, #0]
 800400c:	0410      	lsls	r0, r2, #16
 800400e:	d50d      	bpl.n	800402c <HAL_I2C_Slave_Seq_Transmit_IT+0x6c>
 8004010:	681a      	ldr	r2, [r3, #0]
 8004012:	6be0      	ldr	r0, [r4, #60]	; 0x3c
 8004014:	f422 4200 	bic.w	r2, r2, #32768	; 0x8000
 8004018:	601a      	str	r2, [r3, #0]
 800401a:	b138      	cbz	r0, 800402c <HAL_I2C_Slave_Seq_Transmit_IT+0x6c>
 800401c:	4b17      	ldr	r3, [pc, #92]	; (800407c <HAL_I2C_Slave_Seq_Transmit_IT+0xbc>)
 800401e:	6343      	str	r3, [r0, #52]	; 0x34
 8004020:	f7ff f9ed 	bl	80033fe <HAL_DMA_Abort_IT>
 8004024:	b110      	cbz	r0, 800402c <HAL_I2C_Slave_Seq_Transmit_IT+0x6c>
 8004026:	6be0      	ldr	r0, [r4, #60]	; 0x3c
 8004028:	6b43      	ldr	r3, [r0, #52]	; 0x34
 800402a:	4798      	blx	r3
 800402c:	2329      	movs	r3, #41	; 0x29
 800402e:	f884 3041 	strb.w	r3, [r4, #65]	; 0x41
 8004032:	6820      	ldr	r0, [r4, #0]
 8004034:	2320      	movs	r3, #32
 8004036:	2200      	movs	r2, #0
 8004038:	f884 3042 	strb.w	r3, [r4, #66]	; 0x42
 800403c:	6462      	str	r2, [r4, #68]	; 0x44
 800403e:	6843      	ldr	r3, [r0, #4]
 8004040:	f423 4300 	bic.w	r3, r3, #32768	; 0x8000
 8004044:	6043      	str	r3, [r0, #4]
 8004046:	8565      	strh	r5, [r4, #42]	; 0x2a
 8004048:	8d63      	ldrh	r3, [r4, #42]	; 0x2a
 800404a:	8523      	strh	r3, [r4, #40]	; 0x28
 800404c:	62e7      	str	r7, [r4, #44]	; 0x2c
 800404e:	4b0c      	ldr	r3, [pc, #48]	; (8004080 <HAL_I2C_Slave_Seq_Transmit_IT+0xc0>)
 8004050:	6363      	str	r3, [r4, #52]	; 0x34
 8004052:	6983      	ldr	r3, [r0, #24]
 8004054:	6981      	ldr	r1, [r0, #24]
 8004056:	6266      	str	r6, [r4, #36]	; 0x24
 8004058:	03c9      	lsls	r1, r1, #15
 800405a:	d503      	bpl.n	8004064 <HAL_I2C_Slave_Seq_Transmit_IT+0xa4>
 800405c:	071b      	lsls	r3, r3, #28
 800405e:	bf44      	itt	mi
 8004060:	2308      	movmi	r3, #8
 8004062:	61c3      	strmi	r3, [r0, #28]
 8004064:	4620      	mov	r0, r4
 8004066:	f884 2040 	strb.w	r2, [r4, #64]	; 0x40
 800406a:	f248 0101 	movw	r1, #32769	; 0x8001
 800406e:	f7ff fbb3 	bl	80037d8 <I2C_Enable_IRQ>
 8004072:	2000      	movs	r0, #0
 8004074:	bdf8      	pop	{r3, r4, r5, r6, r7, pc}
 8004076:	2002      	movs	r0, #2
 8004078:	e7fc      	b.n	8004074 <HAL_I2C_Slave_Seq_Transmit_IT+0xb4>
 800407a:	bf00      	nop
 800407c:	08004afb 	.word	0x08004afb
 8004080:	080049e9 	.word	0x080049e9

08004084 <HAL_I2C_Slave_Seq_Receive_IT>:
 8004084:	b5f8      	push	{r3, r4, r5, r6, r7, lr}
 8004086:	461f      	mov	r7, r3
 8004088:	f890 3041 	ldrb.w	r3, [r0, #65]	; 0x41
 800408c:	f003 0328 	and.w	r3, r3, #40	; 0x28
 8004090:	2b28      	cmp	r3, #40	; 0x28
 8004092:	4604      	mov	r4, r0
 8004094:	460e      	mov	r6, r1
 8004096:	4615      	mov	r5, r2
 8004098:	d104      	bne.n	80040a4 <HAL_I2C_Slave_Seq_Receive_IT+0x20>
 800409a:	b101      	cbz	r1, 800409e <HAL_I2C_Slave_Seq_Receive_IT+0x1a>
 800409c:	b922      	cbnz	r2, 80040a8 <HAL_I2C_Slave_Seq_Receive_IT+0x24>
 800409e:	f44f 7300 	mov.w	r3, #512	; 0x200
 80040a2:	6463      	str	r3, [r4, #68]	; 0x44
 80040a4:	2001      	movs	r0, #1
 80040a6:	e046      	b.n	8004136 <HAL_I2C_Slave_Seq_Receive_IT+0xb2>
 80040a8:	f248 0102 	movw	r1, #32770	; 0x8002
 80040ac:	f7ff fbdc 	bl	8003868 <I2C_Disable_IRQ>
 80040b0:	f890 3040 	ldrb.w	r3, [r0, #64]	; 0x40
 80040b4:	2b01      	cmp	r3, #1
 80040b6:	d03f      	beq.n	8004138 <HAL_I2C_Slave_Seq_Receive_IT+0xb4>
 80040b8:	f890 3041 	ldrb.w	r3, [r0, #65]	; 0x41
 80040bc:	2101      	movs	r1, #1
 80040be:	2b29      	cmp	r3, #41	; 0x29
 80040c0:	f880 1040 	strb.w	r1, [r0, #64]	; 0x40
 80040c4:	d113      	bne.n	80040ee <HAL_I2C_Slave_Seq_Receive_IT+0x6a>
 80040c6:	f7ff fbcf 	bl	8003868 <I2C_Disable_IRQ>
 80040ca:	6803      	ldr	r3, [r0, #0]
 80040cc:	681a      	ldr	r2, [r3, #0]
 80040ce:	0450      	lsls	r0, r2, #17
 80040d0:	d50d      	bpl.n	80040ee <HAL_I2C_Slave_Seq_Receive_IT+0x6a>
 80040d2:	681a      	ldr	r2, [r3, #0]
 80040d4:	6ba0      	ldr	r0, [r4, #56]	; 0x38
 80040d6:	f422 4280 	bic.w	r2, r2, #16384	; 0x4000
 80040da:	601a      	str	r2, [r3, #0]
 80040dc:	b138      	cbz	r0, 80040ee <HAL_I2C_Slave_Seq_Receive_IT+0x6a>
 80040de:	4b17      	ldr	r3, [pc, #92]	; (800413c <HAL_I2C_Slave_Seq_Receive_IT+0xb8>)
 80040e0:	6343      	str	r3, [r0, #52]	; 0x34
 80040e2:	f7ff f98c 	bl	80033fe <HAL_DMA_Abort_IT>
 80040e6:	b110      	cbz	r0, 80040ee <HAL_I2C_Slave_Seq_Receive_IT+0x6a>
 80040e8:	6ba0      	ldr	r0, [r4, #56]	; 0x38
 80040ea:	6b43      	ldr	r3, [r0, #52]	; 0x34
 80040ec:	4798      	blx	r3
 80040ee:	232a      	movs	r3, #42	; 0x2a
 80040f0:	f884 3041 	strb.w	r3, [r4, #65]	; 0x41
 80040f4:	6820      	ldr	r0, [r4, #0]
 80040f6:	2320      	movs	r3, #32
 80040f8:	2200      	movs	r2, #0
 80040fa:	f884 3042 	strb.w	r3, [r4, #66]	; 0x42
 80040fe:	6462      	str	r2, [r4, #68]	; 0x44
 8004100:	6843      	ldr	r3, [r0, #4]
 8004102:	f423 4300 	bic.w	r3, r3, #32768	; 0x8000
 8004106:	6043      	str	r3, [r0, #4]
 8004108:	8565      	strh	r5, [r4, #42]	; 0x2a
 800410a:	8d63      	ldrh	r3, [r4, #42]	; 0x2a
 800410c:	8523      	strh	r3, [r4, #40]	; 0x28
 800410e:	62e7      	str	r7, [r4, #44]	; 0x2c
 8004110:	4b0b      	ldr	r3, [pc, #44]	; (8004140 <HAL_I2C_Slave_Seq_Receive_IT+0xbc>)
 8004112:	6363      	str	r3, [r4, #52]	; 0x34
 8004114:	6983      	ldr	r3, [r0, #24]
 8004116:	6981      	ldr	r1, [r0, #24]
 8004118:	6266      	str	r6, [r4, #36]	; 0x24
 800411a:	03c9      	lsls	r1, r1, #15
 800411c:	d403      	bmi.n	8004126 <HAL_I2C_Slave_Seq_Receive_IT+0xa2>
 800411e:	071b      	lsls	r3, r3, #28
 8004120:	bf44      	itt	mi
 8004122:	2308      	movmi	r3, #8
 8004124:	61c3      	strmi	r3, [r0, #28]
 8004126:	4620      	mov	r0, r4
 8004128:	f884 2040 	strb.w	r2, [r4, #64]	; 0x40
 800412c:	f248 0102 	movw	r1, #32770	; 0x8002
 8004130:	f7ff fb52 	bl	80037d8 <I2C_Enable_IRQ>
 8004134:	2000      	movs	r0, #0
 8004136:	bdf8      	pop	{r3, r4, r5, r6, r7, pc}
 8004138:	2002      	movs	r0, #2
 800413a:	e7fc      	b.n	8004136 <HAL_I2C_Slave_Seq_Receive_IT+0xb2>
 800413c:	08004afb 	.word	0x08004afb
 8004140:	080049e9 	.word	0x080049e9

08004144 <HAL_I2C_EnableListen_IT>:
 8004144:	b508      	push	{r3, lr}
 8004146:	f890 2041 	ldrb.w	r2, [r0, #65]	; 0x41
 800414a:	2a20      	cmp	r2, #32
 800414c:	d10a      	bne.n	8004164 <HAL_I2C_EnableListen_IT+0x20>
 800414e:	2228      	movs	r2, #40	; 0x28
 8004150:	f880 2041 	strb.w	r2, [r0, #65]	; 0x41
 8004154:	4a04      	ldr	r2, [pc, #16]	; (8004168 <HAL_I2C_EnableListen_IT+0x24>)
 8004156:	6342      	str	r2, [r0, #52]	; 0x34
 8004158:	f44f 4100 	mov.w	r1, #32768	; 0x8000
 800415c:	f7ff fb3c 	bl	80037d8 <I2C_Enable_IRQ>
 8004160:	2000      	movs	r0, #0
 8004162:	bd08      	pop	{r3, pc}
 8004164:	2002      	movs	r0, #2
 8004166:	e7fc      	b.n	8004162 <HAL_I2C_EnableListen_IT+0x1e>
 8004168:	080049e9 	.word	0x080049e9

0800416c <HAL_I2C_EV_IRQHandler>:
 800416c:	6802      	ldr	r2, [r0, #0]
 800416e:	6b43      	ldr	r3, [r0, #52]	; 0x34
 8004170:	6991      	ldr	r1, [r2, #24]
 8004172:	6812      	ldr	r2, [r2, #0]
 8004174:	b103      	cbz	r3, 8004178 <HAL_I2C_EV_IRQHandler+0xc>
 8004176:	4718      	bx	r3
 8004178:	4770      	bx	lr

0800417a <HAL_I2C_MasterTxCpltCallback>:
 800417a:	4770      	bx	lr

0800417c <HAL_I2C_MasterRxCpltCallback>:
 800417c:	4770      	bx	lr

0800417e <I2C_ITMasterSeqCplt>:
 800417e:	b538      	push	{r3, r4, r5, lr}
 8004180:	2500      	movs	r5, #0
 8004182:	f880 5042 	strb.w	r5, [r0, #66]	; 0x42
 8004186:	f890 3041 	ldrb.w	r3, [r0, #65]	; 0x41
 800418a:	2b21      	cmp	r3, #33	; 0x21
 800418c:	f04f 0320 	mov.w	r3, #32
 8004190:	f880 3041 	strb.w	r3, [r0, #65]	; 0x41
 8004194:	d10a      	bne.n	80041ac <I2C_ITMasterSeqCplt+0x2e>
 8004196:	2311      	movs	r3, #17
 8004198:	6303      	str	r3, [r0, #48]	; 0x30
 800419a:	6345      	str	r5, [r0, #52]	; 0x34
 800419c:	2101      	movs	r1, #1
 800419e:	f7ff fb63 	bl	8003868 <I2C_Disable_IRQ>
 80041a2:	f880 5040 	strb.w	r5, [r0, #64]	; 0x40
 80041a6:	f7ff ffe8 	bl	800417a <HAL_I2C_MasterTxCpltCallback>
 80041aa:	bd38      	pop	{r3, r4, r5, pc}
 80041ac:	2312      	movs	r3, #18
 80041ae:	6303      	str	r3, [r0, #48]	; 0x30
 80041b0:	6345      	str	r5, [r0, #52]	; 0x34
 80041b2:	2102      	movs	r1, #2
 80041b4:	f7ff fb58 	bl	8003868 <I2C_Disable_IRQ>
 80041b8:	f880 5040 	strb.w	r5, [r0, #64]	; 0x40
 80041bc:	f7ff ffde 	bl	800417c <HAL_I2C_MasterRxCpltCallback>
 80041c0:	e7f3      	b.n	80041aa <I2C_ITMasterSeqCplt+0x2c>

080041c2 <I2C_ITSlaveSeqCplt>:
 80041c2:	b508      	push	{r3, lr}
 80041c4:	6803      	ldr	r3, [r0, #0]
 80041c6:	681a      	ldr	r2, [r3, #0]
 80041c8:	2100      	movs	r1, #0
 80041ca:	f880 1042 	strb.w	r1, [r0, #66]	; 0x42
 80041ce:	0451      	lsls	r1, r2, #17
 80041d0:	d515      	bpl.n	80041fe <I2C_ITSlaveSeqCplt+0x3c>
 80041d2:	681a      	ldr	r2, [r3, #0]
 80041d4:	f422 4280 	bic.w	r2, r2, #16384	; 0x4000
 80041d8:	601a      	str	r2, [r3, #0]
 80041da:	f890 3041 	ldrb.w	r3, [r0, #65]	; 0x41
 80041de:	2b29      	cmp	r3, #41	; 0x29
 80041e0:	d113      	bne.n	800420a <I2C_ITSlaveSeqCplt+0x48>
 80041e2:	2328      	movs	r3, #40	; 0x28
 80041e4:	f880 3041 	strb.w	r3, [r0, #65]	; 0x41
 80041e8:	2321      	movs	r3, #33	; 0x21
 80041ea:	6303      	str	r3, [r0, #48]	; 0x30
 80041ec:	2101      	movs	r1, #1
 80041ee:	f7ff fb3b 	bl	8003868 <I2C_Disable_IRQ>
 80041f2:	2300      	movs	r3, #0
 80041f4:	f880 3040 	strb.w	r3, [r0, #64]	; 0x40
 80041f8:	f7fc f880 	bl	80002fc <HAL_I2C_SlaveTxCpltCallback>
 80041fc:	bd08      	pop	{r3, pc}
 80041fe:	0412      	lsls	r2, r2, #16
 8004200:	d5eb      	bpl.n	80041da <I2C_ITSlaveSeqCplt+0x18>
 8004202:	681a      	ldr	r2, [r3, #0]
 8004204:	f422 4200 	bic.w	r2, r2, #32768	; 0x8000
 8004208:	e7e6      	b.n	80041d8 <I2C_ITSlaveSeqCplt+0x16>
 800420a:	f890 3041 	ldrb.w	r3, [r0, #65]	; 0x41
 800420e:	2b2a      	cmp	r3, #42	; 0x2a
 8004210:	d1f4      	bne.n	80041fc <I2C_ITSlaveSeqCplt+0x3a>
 8004212:	2328      	movs	r3, #40	; 0x28
 8004214:	f880 3041 	strb.w	r3, [r0, #65]	; 0x41
 8004218:	2322      	movs	r3, #34	; 0x22
 800421a:	6303      	str	r3, [r0, #48]	; 0x30
 800421c:	2102      	movs	r1, #2
 800421e:	f7ff fb23 	bl	8003868 <I2C_Disable_IRQ>
 8004222:	2300      	movs	r3, #0
 8004224:	f880 3040 	strb.w	r3, [r0, #64]	; 0x40
 8004228:	f7fc f880 	bl	800032c <HAL_I2C_SlaveRxCpltCallback>
 800422c:	e7e6      	b.n	80041fc <I2C_ITSlaveSeqCplt+0x3a>

0800422e <I2C_ITAddrCplt.constprop.0>:
 800422e:	f890 2041 	ldrb.w	r2, [r0, #65]	; 0x41
 8004232:	f002 0228 	and.w	r2, r2, #40	; 0x28
 8004236:	2a28      	cmp	r2, #40	; 0x28
 8004238:	b5f8      	push	{r3, r4, r5, r6, r7, lr}
 800423a:	6803      	ldr	r3, [r0, #0]
 800423c:	d134      	bne.n	80042a8 <I2C_ITAddrCplt.constprop.0+0x7a>
 800423e:	699e      	ldr	r6, [r3, #24]
 8004240:	68c2      	ldr	r2, [r0, #12]
 8004242:	699d      	ldr	r5, [r3, #24]
 8004244:	6899      	ldr	r1, [r3, #8]
 8004246:	68df      	ldr	r7, [r3, #12]
 8004248:	0c2d      	lsrs	r5, r5, #16
 800424a:	2a02      	cmp	r2, #2
 800424c:	f3c6 4600 	ubfx	r6, r6, #16, #1
 8004250:	f005 05fe 	and.w	r5, r5, #254	; 0xfe
 8004254:	d11f      	bne.n	8004296 <I2C_ITAddrCplt.constprop.0+0x68>
 8004256:	ea85 15d1 	eor.w	r5, r5, r1, lsr #7
 800425a:	f015 0506 	ands.w	r5, r5, #6
 800425e:	f3c1 0209 	ubfx	r2, r1, #0, #10
 8004262:	d10e      	bne.n	8004282 <I2C_ITAddrCplt.constprop.0+0x54>
 8004264:	6c81      	ldr	r1, [r0, #72]	; 0x48
 8004266:	3101      	adds	r1, #1
 8004268:	6481      	str	r1, [r0, #72]	; 0x48
 800426a:	6c81      	ldr	r1, [r0, #72]	; 0x48
 800426c:	2902      	cmp	r1, #2
 800426e:	d107      	bne.n	8004280 <I2C_ITAddrCplt.constprop.0+0x52>
 8004270:	2108      	movs	r1, #8
 8004272:	6485      	str	r5, [r0, #72]	; 0x48
 8004274:	61d9      	str	r1, [r3, #28]
 8004276:	f880 5040 	strb.w	r5, [r0, #64]	; 0x40
 800427a:	4631      	mov	r1, r6
 800427c:	f7fc f81a 	bl	80002b4 <HAL_I2C_AddrCallback>
 8004280:	bdf8      	pop	{r3, r4, r5, r6, r7, pc}
 8004282:	f44f 4100 	mov.w	r1, #32768	; 0x8000
 8004286:	f7ff faef 	bl	8003868 <I2C_Disable_IRQ>
 800428a:	2300      	movs	r3, #0
 800428c:	f880 3040 	strb.w	r3, [r0, #64]	; 0x40
 8004290:	f007 02fe 	and.w	r2, r7, #254	; 0xfe
 8004294:	e7f1      	b.n	800427a <I2C_ITAddrCplt.constprop.0+0x4c>
 8004296:	f44f 4100 	mov.w	r1, #32768	; 0x8000
 800429a:	f7ff fae5 	bl	8003868 <I2C_Disable_IRQ>
 800429e:	2300      	movs	r3, #0
 80042a0:	f880 3040 	strb.w	r3, [r0, #64]	; 0x40
 80042a4:	462a      	mov	r2, r5
 80042a6:	e7e8      	b.n	800427a <I2C_ITAddrCplt.constprop.0+0x4c>
 80042a8:	2208      	movs	r2, #8
 80042aa:	61da      	str	r2, [r3, #28]
 80042ac:	2300      	movs	r3, #0
 80042ae:	f880 3040 	strb.w	r3, [r0, #64]	; 0x40
 80042b2:	e7e5      	b.n	8004280 <I2C_ITAddrCplt.constprop.0+0x52>

080042b4 <I2C_ITListenCplt>:
 80042b4:	b508      	push	{r3, lr}
 80042b6:	4b16      	ldr	r3, [pc, #88]	; (8004310 <I2C_ITListenCplt+0x5c>)
 80042b8:	62c3      	str	r3, [r0, #44]	; 0x2c
 80042ba:	2220      	movs	r2, #32
 80042bc:	2300      	movs	r3, #0
 80042be:	6303      	str	r3, [r0, #48]	; 0x30
 80042c0:	6343      	str	r3, [r0, #52]	; 0x34
 80042c2:	f880 2041 	strb.w	r2, [r0, #65]	; 0x41
 80042c6:	f880 3042 	strb.w	r3, [r0, #66]	; 0x42
 80042ca:	074b      	lsls	r3, r1, #29
 80042cc:	d512      	bpl.n	80042f4 <I2C_ITListenCplt+0x40>
 80042ce:	6803      	ldr	r3, [r0, #0]
 80042d0:	6a5a      	ldr	r2, [r3, #36]	; 0x24
 80042d2:	6a43      	ldr	r3, [r0, #36]	; 0x24
 80042d4:	701a      	strb	r2, [r3, #0]
 80042d6:	6a43      	ldr	r3, [r0, #36]	; 0x24
 80042d8:	3301      	adds	r3, #1
 80042da:	6243      	str	r3, [r0, #36]	; 0x24
 80042dc:	8d03      	ldrh	r3, [r0, #40]	; 0x28
 80042de:	b14b      	cbz	r3, 80042f4 <I2C_ITListenCplt+0x40>
 80042e0:	3b01      	subs	r3, #1
 80042e2:	8503      	strh	r3, [r0, #40]	; 0x28
 80042e4:	8d43      	ldrh	r3, [r0, #42]	; 0x2a
 80042e6:	3b01      	subs	r3, #1
 80042e8:	b29b      	uxth	r3, r3
 80042ea:	8543      	strh	r3, [r0, #42]	; 0x2a
 80042ec:	6c43      	ldr	r3, [r0, #68]	; 0x44
 80042ee:	f043 0304 	orr.w	r3, r3, #4
 80042f2:	6443      	str	r3, [r0, #68]	; 0x44
 80042f4:	f248 0103 	movw	r1, #32771	; 0x8003
 80042f8:	f7ff fab6 	bl	8003868 <I2C_Disable_IRQ>
 80042fc:	6803      	ldr	r3, [r0, #0]
 80042fe:	2210      	movs	r2, #16
 8004300:	61da      	str	r2, [r3, #28]
 8004302:	2300      	movs	r3, #0
 8004304:	f880 3040 	strb.w	r3, [r0, #64]	; 0x40
 8004308:	f7fb ffd2 	bl	80002b0 <HAL_I2C_ListenCpltCallback>
 800430c:	bd08      	pop	{r3, pc}
 800430e:	bf00      	nop
 8004310:	ffff0000 	.word	0xffff0000

08004314 <HAL_I2C_MemTxCpltCallback>:
 8004314:	4770      	bx	lr

08004316 <HAL_I2C_MemRxCpltCallback>:
 8004316:	4770      	bx	lr

08004318 <HAL_I2C_AbortCpltCallback>:
 8004318:	4770      	bx	lr

0800431a <I2C_TreatErrorCallback>:
 800431a:	f890 2041 	ldrb.w	r2, [r0, #65]	; 0x41
 800431e:	2a60      	cmp	r2, #96	; 0x60
 8004320:	b508      	push	{r3, lr}
 8004322:	f04f 0200 	mov.w	r2, #0
 8004326:	d108      	bne.n	800433a <I2C_TreatErrorCallback+0x20>
 8004328:	2120      	movs	r1, #32
 800432a:	f880 1041 	strb.w	r1, [r0, #65]	; 0x41
 800432e:	f880 2040 	strb.w	r2, [r0, #64]	; 0x40
 8004332:	6302      	str	r2, [r0, #48]	; 0x30
 8004334:	f7ff fff0 	bl	8004318 <HAL_I2C_AbortCpltCallback>
 8004338:	bd08      	pop	{r3, pc}
 800433a:	6302      	str	r2, [r0, #48]	; 0x30
 800433c:	f880 2040 	strb.w	r2, [r0, #64]	; 0x40
 8004340:	f7fc f818 	bl	8000374 <HAL_I2C_ErrorCallback>
 8004344:	e7f8      	b.n	8004338 <I2C_TreatErrorCallback+0x1e>
	...

08004348 <I2C_ITError>:
 8004348:	b570      	push	{r4, r5, r6, lr}
 800434a:	2200      	movs	r2, #0
 800434c:	4d3d      	ldr	r5, [pc, #244]	; (8004444 <I2C_ITError+0xfc>)
 800434e:	f890 3041 	ldrb.w	r3, [r0, #65]	; 0x41
 8004352:	f880 2042 	strb.w	r2, [r0, #66]	; 0x42
 8004356:	62c5      	str	r5, [r0, #44]	; 0x2c
 8004358:	8542      	strh	r2, [r0, #42]	; 0x2a
 800435a:	6c42      	ldr	r2, [r0, #68]	; 0x44
 800435c:	3b28      	subs	r3, #40	; 0x28
 800435e:	4311      	orrs	r1, r2
 8004360:	2b02      	cmp	r3, #2
 8004362:	4604      	mov	r4, r0
 8004364:	6441      	str	r1, [r0, #68]	; 0x44
 8004366:	d82a      	bhi.n	80043be <I2C_ITError+0x76>
 8004368:	2103      	movs	r1, #3
 800436a:	f7ff fa7d 	bl	8003868 <I2C_Disable_IRQ>
 800436e:	2328      	movs	r3, #40	; 0x28
 8004370:	f880 3041 	strb.w	r3, [r0, #65]	; 0x41
 8004374:	4b34      	ldr	r3, [pc, #208]	; (8004448 <I2C_ITError+0x100>)
 8004376:	6ba0      	ldr	r0, [r4, #56]	; 0x38
 8004378:	6363      	str	r3, [r4, #52]	; 0x34
 800437a:	6b23      	ldr	r3, [r4, #48]	; 0x30
 800437c:	2800      	cmp	r0, #0
 800437e:	d041      	beq.n	8004404 <I2C_ITError+0xbc>
 8004380:	2b11      	cmp	r3, #17
 8004382:	d001      	beq.n	8004388 <I2C_ITError+0x40>
 8004384:	2b21      	cmp	r3, #33	; 0x21
 8004386:	d13d      	bne.n	8004404 <I2C_ITError+0xbc>
 8004388:	6823      	ldr	r3, [r4, #0]
 800438a:	681a      	ldr	r2, [r3, #0]
 800438c:	0451      	lsls	r1, r2, #17
 800438e:	bf42      	ittt	mi
 8004390:	681a      	ldrmi	r2, [r3, #0]
 8004392:	f422 4280 	bicmi.w	r2, r2, #16384	; 0x4000
 8004396:	601a      	strmi	r2, [r3, #0]
 8004398:	f7ff f898 	bl	80034cc <HAL_DMA_GetState>
 800439c:	2801      	cmp	r0, #1
 800439e:	d02c      	beq.n	80043fa <I2C_ITError+0xb2>
 80043a0:	6ba0      	ldr	r0, [r4, #56]	; 0x38
 80043a2:	4b2a      	ldr	r3, [pc, #168]	; (800444c <I2C_ITError+0x104>)
 80043a4:	6343      	str	r3, [r0, #52]	; 0x34
 80043a6:	2300      	movs	r3, #0
 80043a8:	f884 3040 	strb.w	r3, [r4, #64]	; 0x40
 80043ac:	f7ff f827 	bl	80033fe <HAL_DMA_Abort_IT>
 80043b0:	2800      	cmp	r0, #0
 80043b2:	d045      	beq.n	8004440 <I2C_ITError+0xf8>
 80043b4:	6ba0      	ldr	r0, [r4, #56]	; 0x38
 80043b6:	6b43      	ldr	r3, [r0, #52]	; 0x34
 80043b8:	e8bd 4070 	ldmia.w	sp!, {r4, r5, r6, lr}
 80043bc:	4718      	bx	r3
 80043be:	f248 0103 	movw	r1, #32771	; 0x8003
 80043c2:	f7ff fa51 	bl	8003868 <I2C_Disable_IRQ>
 80043c6:	f7ff f9e3 	bl	8003790 <I2C_Flush_TXDR>
 80043ca:	f890 3041 	ldrb.w	r3, [r0, #65]	; 0x41
 80043ce:	2b60      	cmp	r3, #96	; 0x60
 80043d0:	d011      	beq.n	80043f6 <I2C_ITError+0xae>
 80043d2:	2320      	movs	r3, #32
 80043d4:	f880 3041 	strb.w	r3, [r0, #65]	; 0x41
 80043d8:	6803      	ldr	r3, [r0, #0]
 80043da:	699a      	ldr	r2, [r3, #24]
 80043dc:	0695      	lsls	r5, r2, #26
 80043de:	d50a      	bpl.n	80043f6 <I2C_ITError+0xae>
 80043e0:	699a      	ldr	r2, [r3, #24]
 80043e2:	06d0      	lsls	r0, r2, #27
 80043e4:	d505      	bpl.n	80043f2 <I2C_ITError+0xaa>
 80043e6:	2210      	movs	r2, #16
 80043e8:	61da      	str	r2, [r3, #28]
 80043ea:	6c62      	ldr	r2, [r4, #68]	; 0x44
 80043ec:	f042 0204 	orr.w	r2, r2, #4
 80043f0:	6462      	str	r2, [r4, #68]	; 0x44
 80043f2:	2220      	movs	r2, #32
 80043f4:	61da      	str	r2, [r3, #28]
 80043f6:	2300      	movs	r3, #0
 80043f8:	e7bd      	b.n	8004376 <I2C_ITError+0x2e>
 80043fa:	4620      	mov	r0, r4
 80043fc:	e8bd 4070 	ldmia.w	sp!, {r4, r5, r6, lr}
 8004400:	f7ff bf8b 	b.w	800431a <I2C_TreatErrorCallback>
 8004404:	6be0      	ldr	r0, [r4, #60]	; 0x3c
 8004406:	2800      	cmp	r0, #0
 8004408:	d0f7      	beq.n	80043fa <I2C_ITError+0xb2>
 800440a:	2b12      	cmp	r3, #18
 800440c:	d001      	beq.n	8004412 <I2C_ITError+0xca>
 800440e:	2b22      	cmp	r3, #34	; 0x22
 8004410:	d1f3      	bne.n	80043fa <I2C_ITError+0xb2>
 8004412:	6823      	ldr	r3, [r4, #0]
 8004414:	681a      	ldr	r2, [r3, #0]
 8004416:	0412      	lsls	r2, r2, #16
 8004418:	bf42      	ittt	mi
 800441a:	681a      	ldrmi	r2, [r3, #0]
 800441c:	f422 4200 	bicmi.w	r2, r2, #32768	; 0x8000
 8004420:	601a      	strmi	r2, [r3, #0]
 8004422:	f7ff f853 	bl	80034cc <HAL_DMA_GetState>
 8004426:	2801      	cmp	r0, #1
 8004428:	d0e7      	beq.n	80043fa <I2C_ITError+0xb2>
 800442a:	6be0      	ldr	r0, [r4, #60]	; 0x3c
 800442c:	4b07      	ldr	r3, [pc, #28]	; (800444c <I2C_ITError+0x104>)
 800442e:	6343      	str	r3, [r0, #52]	; 0x34
 8004430:	2300      	movs	r3, #0
 8004432:	f884 3040 	strb.w	r3, [r4, #64]	; 0x40
 8004436:	f7fe ffe2 	bl	80033fe <HAL_DMA_Abort_IT>
 800443a:	b108      	cbz	r0, 8004440 <I2C_ITError+0xf8>
 800443c:	6be0      	ldr	r0, [r4, #60]	; 0x3c
 800443e:	e7ba      	b.n	80043b6 <I2C_ITError+0x6e>
 8004440:	bd70      	pop	{r4, r5, r6, pc}
 8004442:	bf00      	nop
 8004444:	ffff0000 	.word	0xffff0000
 8004448:	080049e9 	.word	0x080049e9
 800444c:	08004afb 	.word	0x08004afb

08004450 <I2C_ITMasterCplt>:
 8004450:	b573      	push	{r0, r1, r4, r5, r6, lr}
 8004452:	6805      	ldr	r5, [r0, #0]
 8004454:	2320      	movs	r3, #32
 8004456:	61eb      	str	r3, [r5, #28]
 8004458:	f890 3041 	ldrb.w	r3, [r0, #65]	; 0x41
 800445c:	2b21      	cmp	r3, #33	; 0x21
 800445e:	4604      	mov	r4, r0
 8004460:	460e      	mov	r6, r1
 8004462:	d135      	bne.n	80044d0 <I2C_ITMasterCplt+0x80>
 8004464:	2101      	movs	r1, #1
 8004466:	f7ff f9ff 	bl	8003868 <I2C_Disable_IRQ>
 800446a:	2311      	movs	r3, #17
 800446c:	6323      	str	r3, [r4, #48]	; 0x30
 800446e:	686b      	ldr	r3, [r5, #4]
 8004470:	f023 73ff 	bic.w	r3, r3, #33423360	; 0x1fe0000
 8004474:	f423 338b 	bic.w	r3, r3, #71168	; 0x11600
 8004478:	f423 73ff 	bic.w	r3, r3, #510	; 0x1fe
 800447c:	f023 0301 	bic.w	r3, r3, #1
 8004480:	606b      	str	r3, [r5, #4]
 8004482:	2300      	movs	r3, #0
 8004484:	6363      	str	r3, [r4, #52]	; 0x34
 8004486:	06f2      	lsls	r2, r6, #27
 8004488:	f5a3 3380 	sub.w	r3, r3, #65536	; 0x10000
 800448c:	62e3      	str	r3, [r4, #44]	; 0x2c
 800448e:	d505      	bpl.n	800449c <I2C_ITMasterCplt+0x4c>
 8004490:	2310      	movs	r3, #16
 8004492:	61eb      	str	r3, [r5, #28]
 8004494:	6c63      	ldr	r3, [r4, #68]	; 0x44
 8004496:	f043 0304 	orr.w	r3, r3, #4
 800449a:	6463      	str	r3, [r4, #68]	; 0x44
 800449c:	f894 3041 	ldrb.w	r3, [r4, #65]	; 0x41
 80044a0:	2b60      	cmp	r3, #96	; 0x60
 80044a2:	d105      	bne.n	80044b0 <I2C_ITMasterCplt+0x60>
 80044a4:	0773      	lsls	r3, r6, #29
 80044a6:	bf41      	itttt	mi
 80044a8:	6a6b      	ldrmi	r3, [r5, #36]	; 0x24
 80044aa:	b2db      	uxtbmi	r3, r3
 80044ac:	9301      	strmi	r3, [sp, #4]
 80044ae:	9b01      	ldrmi	r3, [sp, #4]
 80044b0:	4620      	mov	r0, r4
 80044b2:	f7ff f96d 	bl	8003790 <I2C_Flush_TXDR>
 80044b6:	6c63      	ldr	r3, [r4, #68]	; 0x44
 80044b8:	f894 2041 	ldrb.w	r2, [r4, #65]	; 0x41
 80044bc:	2a60      	cmp	r2, #96	; 0x60
 80044be:	d000      	beq.n	80044c2 <I2C_ITMasterCplt+0x72>
 80044c0:	b17b      	cbz	r3, 80044e2 <I2C_ITMasterCplt+0x92>
 80044c2:	6c61      	ldr	r1, [r4, #68]	; 0x44
 80044c4:	4620      	mov	r0, r4
 80044c6:	b002      	add	sp, #8
 80044c8:	e8bd 4070 	ldmia.w	sp!, {r4, r5, r6, lr}
 80044cc:	f7ff bf3c 	b.w	8004348 <I2C_ITError>
 80044d0:	f890 3041 	ldrb.w	r3, [r0, #65]	; 0x41
 80044d4:	2b22      	cmp	r3, #34	; 0x22
 80044d6:	d1ca      	bne.n	800446e <I2C_ITMasterCplt+0x1e>
 80044d8:	2102      	movs	r1, #2
 80044da:	f7ff f9c5 	bl	8003868 <I2C_Disable_IRQ>
 80044de:	2312      	movs	r3, #18
 80044e0:	e7c4      	b.n	800446c <I2C_ITMasterCplt+0x1c>
 80044e2:	f894 2041 	ldrb.w	r2, [r4, #65]	; 0x41
 80044e6:	2a21      	cmp	r2, #33	; 0x21
 80044e8:	d112      	bne.n	8004510 <I2C_ITMasterCplt+0xc0>
 80044ea:	2220      	movs	r2, #32
 80044ec:	f884 2041 	strb.w	r2, [r4, #65]	; 0x41
 80044f0:	6323      	str	r3, [r4, #48]	; 0x30
 80044f2:	f894 2042 	ldrb.w	r2, [r4, #66]	; 0x42
 80044f6:	f884 3040 	strb.w	r3, [r4, #64]	; 0x40
 80044fa:	2a40      	cmp	r2, #64	; 0x40
 80044fc:	f884 3042 	strb.w	r3, [r4, #66]	; 0x42
 8004500:	d103      	bne.n	800450a <I2C_ITMasterCplt+0xba>
 8004502:	f7ff ff07 	bl	8004314 <HAL_I2C_MemTxCpltCallback>
 8004506:	b002      	add	sp, #8
 8004508:	bd70      	pop	{r4, r5, r6, pc}
 800450a:	f7ff fe36 	bl	800417a <HAL_I2C_MasterTxCpltCallback>
 800450e:	e7fa      	b.n	8004506 <I2C_ITMasterCplt+0xb6>
 8004510:	f894 2041 	ldrb.w	r2, [r4, #65]	; 0x41
 8004514:	2a22      	cmp	r2, #34	; 0x22
 8004516:	d1f6      	bne.n	8004506 <I2C_ITMasterCplt+0xb6>
 8004518:	2220      	movs	r2, #32
 800451a:	f884 2041 	strb.w	r2, [r4, #65]	; 0x41
 800451e:	6323      	str	r3, [r4, #48]	; 0x30
 8004520:	f894 2042 	ldrb.w	r2, [r4, #66]	; 0x42
 8004524:	f884 3040 	strb.w	r3, [r4, #64]	; 0x40
 8004528:	2a40      	cmp	r2, #64	; 0x40
 800452a:	f884 3042 	strb.w	r3, [r4, #66]	; 0x42
 800452e:	d102      	bne.n	8004536 <I2C_ITMasterCplt+0xe6>
 8004530:	f7ff fef1 	bl	8004316 <HAL_I2C_MemRxCpltCallback>
 8004534:	e7e7      	b.n	8004506 <I2C_ITMasterCplt+0xb6>
 8004536:	f7ff fe21 	bl	800417c <HAL_I2C_MasterRxCpltCallback>
 800453a:	e7e4      	b.n	8004506 <I2C_ITMasterCplt+0xb6>

0800453c <I2C_Mem_ISR_DMA>:
 800453c:	b513      	push	{r0, r1, r4, lr}
 800453e:	f890 3040 	ldrb.w	r3, [r0, #64]	; 0x40
 8004542:	2b01      	cmp	r3, #1
 8004544:	4604      	mov	r4, r0
 8004546:	f000 8085 	beq.w	8004654 <I2C_Mem_ISR_DMA+0x118>
 800454a:	2301      	movs	r3, #1
 800454c:	f880 3040 	strb.w	r3, [r0, #64]	; 0x40
 8004550:	06cb      	lsls	r3, r1, #27
 8004552:	d512      	bpl.n	800457a <I2C_Mem_ISR_DMA+0x3e>
 8004554:	06d3      	lsls	r3, r2, #27
 8004556:	d510      	bpl.n	800457a <I2C_Mem_ISR_DMA+0x3e>
 8004558:	6803      	ldr	r3, [r0, #0]
 800455a:	2210      	movs	r2, #16
 800455c:	61da      	str	r2, [r3, #28]
 800455e:	6c43      	ldr	r3, [r0, #68]	; 0x44
 8004560:	f043 0304 	orr.w	r3, r3, #4
 8004564:	6443      	str	r3, [r0, #68]	; 0x44
 8004566:	2120      	movs	r1, #32
 8004568:	f7ff f936 	bl	80037d8 <I2C_Enable_IRQ>
 800456c:	f7ff f910 	bl	8003790 <I2C_Flush_TXDR>
 8004570:	2000      	movs	r0, #0
 8004572:	f884 0040 	strb.w	r0, [r4, #64]	; 0x40
 8004576:	b002      	add	sp, #8
 8004578:	bd10      	pop	{r4, pc}
 800457a:	0788      	lsls	r0, r1, #30
 800457c:	d508      	bpl.n	8004590 <I2C_Mem_ISR_DMA+0x54>
 800457e:	0793      	lsls	r3, r2, #30
 8004580:	d506      	bpl.n	8004590 <I2C_Mem_ISR_DMA+0x54>
 8004582:	6823      	ldr	r3, [r4, #0]
 8004584:	6d22      	ldr	r2, [r4, #80]	; 0x50
 8004586:	629a      	str	r2, [r3, #40]	; 0x28
 8004588:	f04f 33ff 	mov.w	r3, #4294967295
 800458c:	6523      	str	r3, [r4, #80]	; 0x50
 800458e:	e7ef      	b.n	8004570 <I2C_Mem_ISR_DMA+0x34>
 8004590:	0608      	lsls	r0, r1, #24
 8004592:	d533      	bpl.n	80045fc <I2C_Mem_ISR_DMA+0xc0>
 8004594:	0653      	lsls	r3, r2, #25
 8004596:	d531      	bpl.n	80045fc <I2C_Mem_ISR_DMA+0xc0>
 8004598:	2110      	movs	r1, #16
 800459a:	4620      	mov	r0, r4
 800459c:	f7ff f91c 	bl	80037d8 <I2C_Enable_IRQ>
 80045a0:	8d63      	ldrh	r3, [r4, #42]	; 0x2a
 80045a2:	b29b      	uxth	r3, r3
 80045a4:	b333      	cbz	r3, 80045f4 <I2C_Mem_ISR_DMA+0xb8>
 80045a6:	8d63      	ldrh	r3, [r4, #42]	; 0x2a
 80045a8:	b29b      	uxth	r3, r3
 80045aa:	2bff      	cmp	r3, #255	; 0xff
 80045ac:	d918      	bls.n	80045e0 <I2C_Mem_ISR_DMA+0xa4>
 80045ae:	2300      	movs	r3, #0
 80045b0:	22ff      	movs	r2, #255	; 0xff
 80045b2:	6ce1      	ldr	r1, [r4, #76]	; 0x4c
 80045b4:	9300      	str	r3, [sp, #0]
 80045b6:	8522      	strh	r2, [r4, #40]	; 0x28
 80045b8:	f04f 7380 	mov.w	r3, #16777216	; 0x1000000
 80045bc:	b289      	uxth	r1, r1
 80045be:	f7ff f8f5 	bl	80037ac <I2C_TransferConfig>
 80045c2:	8d63      	ldrh	r3, [r4, #42]	; 0x2a
 80045c4:	8d22      	ldrh	r2, [r4, #40]	; 0x28
 80045c6:	1a9b      	subs	r3, r3, r2
 80045c8:	b29b      	uxth	r3, r3
 80045ca:	8563      	strh	r3, [r4, #42]	; 0x2a
 80045cc:	f894 2041 	ldrb.w	r2, [r4, #65]	; 0x41
 80045d0:	6823      	ldr	r3, [r4, #0]
 80045d2:	2a22      	cmp	r2, #34	; 0x22
 80045d4:	681a      	ldr	r2, [r3, #0]
 80045d6:	d132      	bne.n	800463e <I2C_Mem_ISR_DMA+0x102>
 80045d8:	f442 4200 	orr.w	r2, r2, #32768	; 0x8000
 80045dc:	601a      	str	r2, [r3, #0]
 80045de:	e7c7      	b.n	8004570 <I2C_Mem_ISR_DMA+0x34>
 80045e0:	8d62      	ldrh	r2, [r4, #42]	; 0x2a
 80045e2:	6ce1      	ldr	r1, [r4, #76]	; 0x4c
 80045e4:	b292      	uxth	r2, r2
 80045e6:	2300      	movs	r3, #0
 80045e8:	8522      	strh	r2, [r4, #40]	; 0x28
 80045ea:	9300      	str	r3, [sp, #0]
 80045ec:	b2d2      	uxtb	r2, r2
 80045ee:	f04f 7300 	mov.w	r3, #33554432	; 0x2000000
 80045f2:	e7e3      	b.n	80045bc <I2C_Mem_ISR_DMA+0x80>
 80045f4:	2140      	movs	r1, #64	; 0x40
 80045f6:	f7ff fea7 	bl	8004348 <I2C_ITError>
 80045fa:	e7b9      	b.n	8004570 <I2C_Mem_ISR_DMA+0x34>
 80045fc:	0648      	lsls	r0, r1, #25
 80045fe:	d521      	bpl.n	8004644 <I2C_Mem_ISR_DMA+0x108>
 8004600:	0653      	lsls	r3, r2, #25
 8004602:	d51f      	bpl.n	8004644 <I2C_Mem_ISR_DMA+0x108>
 8004604:	f894 1041 	ldrb.w	r1, [r4, #65]	; 0x41
 8004608:	4a13      	ldr	r2, [pc, #76]	; (8004658 <I2C_Mem_ISR_DMA+0x11c>)
 800460a:	4b14      	ldr	r3, [pc, #80]	; (800465c <I2C_Mem_ISR_DMA+0x120>)
 800460c:	2922      	cmp	r1, #34	; 0x22
 800460e:	bf08      	it	eq
 8004610:	4613      	moveq	r3, r2
 8004612:	8d62      	ldrh	r2, [r4, #42]	; 0x2a
 8004614:	b292      	uxth	r2, r2
 8004616:	2aff      	cmp	r2, #255	; 0xff
 8004618:	d908      	bls.n	800462c <I2C_Mem_ISR_DMA+0xf0>
 800461a:	22ff      	movs	r2, #255	; 0xff
 800461c:	6ce1      	ldr	r1, [r4, #76]	; 0x4c
 800461e:	9300      	str	r3, [sp, #0]
 8004620:	8522      	strh	r2, [r4, #40]	; 0x28
 8004622:	f04f 7380 	mov.w	r3, #16777216	; 0x1000000
 8004626:	b289      	uxth	r1, r1
 8004628:	4620      	mov	r0, r4
 800462a:	e7c8      	b.n	80045be <I2C_Mem_ISR_DMA+0x82>
 800462c:	8d62      	ldrh	r2, [r4, #42]	; 0x2a
 800462e:	9300      	str	r3, [sp, #0]
 8004630:	b292      	uxth	r2, r2
 8004632:	8522      	strh	r2, [r4, #40]	; 0x28
 8004634:	6ce1      	ldr	r1, [r4, #76]	; 0x4c
 8004636:	f04f 7300 	mov.w	r3, #33554432	; 0x2000000
 800463a:	b2d2      	uxtb	r2, r2
 800463c:	e7f3      	b.n	8004626 <I2C_Mem_ISR_DMA+0xea>
 800463e:	f442 4280 	orr.w	r2, r2, #16384	; 0x4000
 8004642:	e7cb      	b.n	80045dc <I2C_Mem_ISR_DMA+0xa0>
 8004644:	0688      	lsls	r0, r1, #26
 8004646:	d593      	bpl.n	8004570 <I2C_Mem_ISR_DMA+0x34>
 8004648:	0693      	lsls	r3, r2, #26
 800464a:	d591      	bpl.n	8004570 <I2C_Mem_ISR_DMA+0x34>
 800464c:	4620      	mov	r0, r4
 800464e:	f7ff feff 	bl	8004450 <I2C_ITMasterCplt>
 8004652:	e78d      	b.n	8004570 <I2C_Mem_ISR_DMA+0x34>
 8004654:	2002      	movs	r0, #2
 8004656:	e78e      	b.n	8004576 <I2C_Mem_ISR_DMA+0x3a>
 8004658:	80002400 	.word	0x80002400
 800465c:	80002000 	.word	0x80002000

08004660 <I2C_Master_ISR_DMA>:
 8004660:	b573      	push	{r0, r1, r4, r5, r6, lr}
 8004662:	f890 3040 	ldrb.w	r3, [r0, #64]	; 0x40
 8004666:	2b01      	cmp	r3, #1
 8004668:	4604      	mov	r4, r0
 800466a:	d078      	beq.n	800475e <I2C_Master_ISR_DMA+0xfe>
 800466c:	2301      	movs	r3, #1
 800466e:	f880 3040 	strb.w	r3, [r0, #64]	; 0x40
 8004672:	06cb      	lsls	r3, r1, #27
 8004674:	d512      	bpl.n	800469c <I2C_Master_ISR_DMA+0x3c>
 8004676:	06d6      	lsls	r6, r2, #27
 8004678:	d510      	bpl.n	800469c <I2C_Master_ISR_DMA+0x3c>
 800467a:	6803      	ldr	r3, [r0, #0]
 800467c:	2210      	movs	r2, #16
 800467e:	61da      	str	r2, [r3, #28]
 8004680:	6c43      	ldr	r3, [r0, #68]	; 0x44
 8004682:	f043 0304 	orr.w	r3, r3, #4
 8004686:	6443      	str	r3, [r0, #68]	; 0x44
 8004688:	2120      	movs	r1, #32
 800468a:	f7ff f8a5 	bl	80037d8 <I2C_Enable_IRQ>
 800468e:	f7ff f87f 	bl	8003790 <I2C_Flush_TXDR>
 8004692:	2000      	movs	r0, #0
 8004694:	f884 0040 	strb.w	r0, [r4, #64]	; 0x40
 8004698:	b002      	add	sp, #8
 800469a:	bd70      	pop	{r4, r5, r6, pc}
 800469c:	060d      	lsls	r5, r1, #24
 800469e:	d541      	bpl.n	8004724 <I2C_Master_ISR_DMA+0xc4>
 80046a0:	0650      	lsls	r0, r2, #25
 80046a2:	d53f      	bpl.n	8004724 <I2C_Master_ISR_DMA+0xc4>
 80046a4:	6825      	ldr	r5, [r4, #0]
 80046a6:	682b      	ldr	r3, [r5, #0]
 80046a8:	f023 0340 	bic.w	r3, r3, #64	; 0x40
 80046ac:	602b      	str	r3, [r5, #0]
 80046ae:	8d63      	ldrh	r3, [r4, #42]	; 0x2a
 80046b0:	b29b      	uxth	r3, r3
 80046b2:	b35b      	cbz	r3, 800470c <I2C_Master_ISR_DMA+0xac>
 80046b4:	6869      	ldr	r1, [r5, #4]
 80046b6:	8d63      	ldrh	r3, [r4, #42]	; 0x2a
 80046b8:	b29b      	uxth	r3, r3
 80046ba:	2bff      	cmp	r3, #255	; 0xff
 80046bc:	f3c1 0109 	ubfx	r1, r1, #0, #10
 80046c0:	d91a      	bls.n	80046f8 <I2C_Master_ISR_DMA+0x98>
 80046c2:	23ff      	movs	r3, #255	; 0xff
 80046c4:	8523      	strh	r3, [r4, #40]	; 0x28
 80046c6:	f04f 7380 	mov.w	r3, #16777216	; 0x1000000
 80046ca:	2200      	movs	r2, #0
 80046cc:	9200      	str	r2, [sp, #0]
 80046ce:	4620      	mov	r0, r4
 80046d0:	f894 2028 	ldrb.w	r2, [r4, #40]	; 0x28
 80046d4:	8d26      	ldrh	r6, [r4, #40]	; 0x28
 80046d6:	f7ff f869 	bl	80037ac <I2C_TransferConfig>
 80046da:	8d63      	ldrh	r3, [r4, #42]	; 0x2a
 80046dc:	1b9b      	subs	r3, r3, r6
 80046de:	b29b      	uxth	r3, r3
 80046e0:	8563      	strh	r3, [r4, #42]	; 0x2a
 80046e2:	f894 3041 	ldrb.w	r3, [r4, #65]	; 0x41
 80046e6:	2b22      	cmp	r3, #34	; 0x22
 80046e8:	682b      	ldr	r3, [r5, #0]
 80046ea:	bf0c      	ite	eq
 80046ec:	f443 4300 	orreq.w	r3, r3, #32768	; 0x8000
 80046f0:	f443 4380 	orrne.w	r3, r3, #16384	; 0x4000
 80046f4:	602b      	str	r3, [r5, #0]
 80046f6:	e7cc      	b.n	8004692 <I2C_Master_ISR_DMA+0x32>
 80046f8:	8d63      	ldrh	r3, [r4, #42]	; 0x2a
 80046fa:	8523      	strh	r3, [r4, #40]	; 0x28
 80046fc:	6ae3      	ldr	r3, [r4, #44]	; 0x2c
 80046fe:	f513 3f80 	cmn.w	r3, #65536	; 0x10000
 8004702:	bf14      	ite	ne
 8004704:	6ae3      	ldrne	r3, [r4, #44]	; 0x2c
 8004706:	f04f 7300 	moveq.w	r3, #33554432	; 0x2000000
 800470a:	e7de      	b.n	80046ca <I2C_Master_ISR_DMA+0x6a>
 800470c:	686b      	ldr	r3, [r5, #4]
 800470e:	019a      	lsls	r2, r3, #6
 8004710:	d403      	bmi.n	800471a <I2C_Master_ISR_DMA+0xba>
 8004712:	4620      	mov	r0, r4
 8004714:	f7ff fd33 	bl	800417e <I2C_ITMasterSeqCplt>
 8004718:	e7bb      	b.n	8004692 <I2C_Master_ISR_DMA+0x32>
 800471a:	2140      	movs	r1, #64	; 0x40
 800471c:	4620      	mov	r0, r4
 800471e:	f7ff fe13 	bl	8004348 <I2C_ITError>
 8004722:	e7b6      	b.n	8004692 <I2C_Master_ISR_DMA+0x32>
 8004724:	064b      	lsls	r3, r1, #25
 8004726:	d512      	bpl.n	800474e <I2C_Master_ISR_DMA+0xee>
 8004728:	0656      	lsls	r6, r2, #25
 800472a:	d510      	bpl.n	800474e <I2C_Master_ISR_DMA+0xee>
 800472c:	8d63      	ldrh	r3, [r4, #42]	; 0x2a
 800472e:	b29b      	uxth	r3, r3
 8004730:	2b00      	cmp	r3, #0
 8004732:	d1f2      	bne.n	800471a <I2C_Master_ISR_DMA+0xba>
 8004734:	6823      	ldr	r3, [r4, #0]
 8004736:	685a      	ldr	r2, [r3, #4]
 8004738:	0195      	lsls	r5, r2, #6
 800473a:	d4aa      	bmi.n	8004692 <I2C_Master_ISR_DMA+0x32>
 800473c:	6ae2      	ldr	r2, [r4, #44]	; 0x2c
 800473e:	f512 3f80 	cmn.w	r2, #65536	; 0x10000
 8004742:	d1e6      	bne.n	8004712 <I2C_Master_ISR_DMA+0xb2>
 8004744:	685a      	ldr	r2, [r3, #4]
 8004746:	f442 4280 	orr.w	r2, r2, #16384	; 0x4000
 800474a:	605a      	str	r2, [r3, #4]
 800474c:	e7a1      	b.n	8004692 <I2C_Master_ISR_DMA+0x32>
 800474e:	0688      	lsls	r0, r1, #26
 8004750:	d59f      	bpl.n	8004692 <I2C_Master_ISR_DMA+0x32>
 8004752:	0693      	lsls	r3, r2, #26
 8004754:	d59d      	bpl.n	8004692 <I2C_Master_ISR_DMA+0x32>
 8004756:	4620      	mov	r0, r4
 8004758:	f7ff fe7a 	bl	8004450 <I2C_ITMasterCplt>
 800475c:	e799      	b.n	8004692 <I2C_Master_ISR_DMA+0x32>
 800475e:	2002      	movs	r0, #2
 8004760:	e79a      	b.n	8004698 <I2C_Master_ISR_DMA+0x38>

08004762 <HAL_I2C_ER_IRQHandler>:
 8004762:	6803      	ldr	r3, [r0, #0]
 8004764:	6999      	ldr	r1, [r3, #24]
 8004766:	681a      	ldr	r2, [r3, #0]
 8004768:	b410      	push	{r4}
 800476a:	05cc      	lsls	r4, r1, #23
 800476c:	d508      	bpl.n	8004780 <HAL_I2C_ER_IRQHandler+0x1e>
 800476e:	0614      	lsls	r4, r2, #24
 8004770:	d506      	bpl.n	8004780 <HAL_I2C_ER_IRQHandler+0x1e>
 8004772:	6c44      	ldr	r4, [r0, #68]	; 0x44
 8004774:	f044 0401 	orr.w	r4, r4, #1
 8004778:	6444      	str	r4, [r0, #68]	; 0x44
 800477a:	f44f 7480 	mov.w	r4, #256	; 0x100
 800477e:	61dc      	str	r4, [r3, #28]
 8004780:	054c      	lsls	r4, r1, #21
 8004782:	d508      	bpl.n	8004796 <HAL_I2C_ER_IRQHandler+0x34>
 8004784:	0614      	lsls	r4, r2, #24
 8004786:	d506      	bpl.n	8004796 <HAL_I2C_ER_IRQHandler+0x34>
 8004788:	6c44      	ldr	r4, [r0, #68]	; 0x44
 800478a:	f044 0408 	orr.w	r4, r4, #8
 800478e:	6444      	str	r4, [r0, #68]	; 0x44
 8004790:	f44f 6480 	mov.w	r4, #1024	; 0x400
 8004794:	61dc      	str	r4, [r3, #28]
 8004796:	0589      	lsls	r1, r1, #22
 8004798:	d508      	bpl.n	80047ac <HAL_I2C_ER_IRQHandler+0x4a>
 800479a:	0612      	lsls	r2, r2, #24
 800479c:	d506      	bpl.n	80047ac <HAL_I2C_ER_IRQHandler+0x4a>
 800479e:	6c42      	ldr	r2, [r0, #68]	; 0x44
 80047a0:	f042 0202 	orr.w	r2, r2, #2
 80047a4:	6442      	str	r2, [r0, #68]	; 0x44
 80047a6:	f44f 7200 	mov.w	r2, #512	; 0x200
 80047aa:	61da      	str	r2, [r3, #28]
 80047ac:	6c41      	ldr	r1, [r0, #68]	; 0x44
 80047ae:	f011 0f0b 	tst.w	r1, #11
 80047b2:	d003      	beq.n	80047bc <HAL_I2C_ER_IRQHandler+0x5a>
 80047b4:	f85d 4b04 	ldr.w	r4, [sp], #4
 80047b8:	f7ff bdc6 	b.w	8004348 <I2C_ITError>
 80047bc:	f85d 4b04 	ldr.w	r4, [sp], #4
 80047c0:	4770      	bx	lr
	...

080047c4 <I2C_ITSlaveCplt.constprop.0>:
 80047c4:	e92d 41f0 	stmdb	sp!, {r4, r5, r6, r7, r8, lr}
 80047c8:	6805      	ldr	r5, [r0, #0]
 80047ca:	f8d5 8000 	ldr.w	r8, [r5]
 80047ce:	f890 7041 	ldrb.w	r7, [r0, #65]	; 0x41
 80047d2:	f007 07f7 	and.w	r7, r7, #247	; 0xf7
 80047d6:	2320      	movs	r3, #32
 80047d8:	2f21      	cmp	r7, #33	; 0x21
 80047da:	4604      	mov	r4, r0
 80047dc:	460e      	mov	r6, r1
 80047de:	61eb      	str	r3, [r5, #28]
 80047e0:	d14f      	bne.n	8004882 <I2C_ITSlaveCplt.constprop.0+0xbe>
 80047e2:	f248 0101 	movw	r1, #32769	; 0x8001
 80047e6:	f7ff f83f 	bl	8003868 <I2C_Disable_IRQ>
 80047ea:	6327      	str	r7, [r4, #48]	; 0x30
 80047ec:	686b      	ldr	r3, [r5, #4]
 80047ee:	f443 4300 	orr.w	r3, r3, #32768	; 0x8000
 80047f2:	606b      	str	r3, [r5, #4]
 80047f4:	686b      	ldr	r3, [r5, #4]
 80047f6:	f023 73ff 	bic.w	r3, r3, #33423360	; 0x1fe0000
 80047fa:	f423 338b 	bic.w	r3, r3, #71168	; 0x11600
 80047fe:	f423 73ff 	bic.w	r3, r3, #510	; 0x1fe
 8004802:	f023 0301 	bic.w	r3, r3, #1
 8004806:	606b      	str	r3, [r5, #4]
 8004808:	4620      	mov	r0, r4
 800480a:	f7fe ffc1 	bl	8003790 <I2C_Flush_TXDR>
 800480e:	f418 4f80 	tst.w	r8, #16384	; 0x4000
 8004812:	d03b      	beq.n	800488c <I2C_ITSlaveCplt.constprop.0+0xc8>
 8004814:	682b      	ldr	r3, [r5, #0]
 8004816:	f423 4380 	bic.w	r3, r3, #16384	; 0x4000
 800481a:	602b      	str	r3, [r5, #0]
 800481c:	6ba3      	ldr	r3, [r4, #56]	; 0x38
 800481e:	b11b      	cbz	r3, 8004828 <I2C_ITSlaveCplt.constprop.0+0x64>
 8004820:	681b      	ldr	r3, [r3, #0]
 8004822:	685b      	ldr	r3, [r3, #4]
 8004824:	b29b      	uxth	r3, r3
 8004826:	8563      	strh	r3, [r4, #42]	; 0x2a
 8004828:	0773      	lsls	r3, r6, #29
 800482a:	d50f      	bpl.n	800484c <I2C_ITSlaveCplt.constprop.0+0x88>
 800482c:	6a63      	ldr	r3, [r4, #36]	; 0x24
 800482e:	6a6a      	ldr	r2, [r5, #36]	; 0x24
 8004830:	701a      	strb	r2, [r3, #0]
 8004832:	6a63      	ldr	r3, [r4, #36]	; 0x24
 8004834:	3301      	adds	r3, #1
 8004836:	6263      	str	r3, [r4, #36]	; 0x24
 8004838:	8d23      	ldrh	r3, [r4, #40]	; 0x28
 800483a:	f026 0604 	bic.w	r6, r6, #4
 800483e:	b12b      	cbz	r3, 800484c <I2C_ITSlaveCplt.constprop.0+0x88>
 8004840:	3b01      	subs	r3, #1
 8004842:	8523      	strh	r3, [r4, #40]	; 0x28
 8004844:	8d63      	ldrh	r3, [r4, #42]	; 0x2a
 8004846:	3b01      	subs	r3, #1
 8004848:	b29b      	uxth	r3, r3
 800484a:	8563      	strh	r3, [r4, #42]	; 0x2a
 800484c:	8d63      	ldrh	r3, [r4, #42]	; 0x2a
 800484e:	b29b      	uxth	r3, r3
 8004850:	b11b      	cbz	r3, 800485a <I2C_ITSlaveCplt.constprop.0+0x96>
 8004852:	6c63      	ldr	r3, [r4, #68]	; 0x44
 8004854:	f043 0304 	orr.w	r3, r3, #4
 8004858:	6463      	str	r3, [r4, #68]	; 0x44
 800485a:	2300      	movs	r3, #0
 800485c:	f884 3042 	strb.w	r3, [r4, #66]	; 0x42
 8004860:	6c65      	ldr	r5, [r4, #68]	; 0x44
 8004862:	6363      	str	r3, [r4, #52]	; 0x34
 8004864:	b1dd      	cbz	r5, 800489e <I2C_ITSlaveCplt.constprop.0+0xda>
 8004866:	6c61      	ldr	r1, [r4, #68]	; 0x44
 8004868:	4620      	mov	r0, r4
 800486a:	f7ff fd6d 	bl	8004348 <I2C_ITError>
 800486e:	f894 3041 	ldrb.w	r3, [r4, #65]	; 0x41
 8004872:	2b28      	cmp	r3, #40	; 0x28
 8004874:	d125      	bne.n	80048c2 <I2C_ITSlaveCplt.constprop.0+0xfe>
 8004876:	4631      	mov	r1, r6
 8004878:	4620      	mov	r0, r4
 800487a:	e8bd 41f0 	ldmia.w	sp!, {r4, r5, r6, r7, r8, lr}
 800487e:	f7ff bd19 	b.w	80042b4 <I2C_ITListenCplt>
 8004882:	2f22      	cmp	r7, #34	; 0x22
 8004884:	d1b2      	bne.n	80047ec <I2C_ITSlaveCplt.constprop.0+0x28>
 8004886:	f248 0102 	movw	r1, #32770	; 0x8002
 800488a:	e7ac      	b.n	80047e6 <I2C_ITSlaveCplt.constprop.0+0x22>
 800488c:	f418 4f00 	tst.w	r8, #32768	; 0x8000
 8004890:	d0ca      	beq.n	8004828 <I2C_ITSlaveCplt.constprop.0+0x64>
 8004892:	682b      	ldr	r3, [r5, #0]
 8004894:	f423 4300 	bic.w	r3, r3, #32768	; 0x8000
 8004898:	602b      	str	r3, [r5, #0]
 800489a:	6be3      	ldr	r3, [r4, #60]	; 0x3c
 800489c:	e7bf      	b.n	800481e <I2C_ITSlaveCplt.constprop.0+0x5a>
 800489e:	6ae3      	ldr	r3, [r4, #44]	; 0x2c
 80048a0:	f513 3f80 	cmn.w	r3, #65536	; 0x10000
 80048a4:	d00f      	beq.n	80048c6 <I2C_ITSlaveCplt.constprop.0+0x102>
 80048a6:	4620      	mov	r0, r4
 80048a8:	f7ff fc8b 	bl	80041c2 <I2C_ITSlaveSeqCplt>
 80048ac:	4b0f      	ldr	r3, [pc, #60]	; (80048ec <I2C_ITSlaveCplt.constprop.0+0x128>)
 80048ae:	62e3      	str	r3, [r4, #44]	; 0x2c
 80048b0:	2320      	movs	r3, #32
 80048b2:	f884 3041 	strb.w	r3, [r4, #65]	; 0x41
 80048b6:	f884 5040 	strb.w	r5, [r4, #64]	; 0x40
 80048ba:	6325      	str	r5, [r4, #48]	; 0x30
 80048bc:	4620      	mov	r0, r4
 80048be:	f7fb fcf7 	bl	80002b0 <HAL_I2C_ListenCpltCallback>
 80048c2:	e8bd 81f0 	ldmia.w	sp!, {r4, r5, r6, r7, r8, pc}
 80048c6:	f894 3041 	ldrb.w	r3, [r4, #65]	; 0x41
 80048ca:	f884 5040 	strb.w	r5, [r4, #64]	; 0x40
 80048ce:	2b22      	cmp	r3, #34	; 0x22
 80048d0:	f04f 0320 	mov.w	r3, #32
 80048d4:	f884 3041 	strb.w	r3, [r4, #65]	; 0x41
 80048d8:	4620      	mov	r0, r4
 80048da:	6325      	str	r5, [r4, #48]	; 0x30
 80048dc:	d102      	bne.n	80048e4 <I2C_ITSlaveCplt.constprop.0+0x120>
 80048de:	f7fb fd25 	bl	800032c <HAL_I2C_SlaveRxCpltCallback>
 80048e2:	e7ee      	b.n	80048c2 <I2C_ITSlaveCplt.constprop.0+0xfe>
 80048e4:	f7fb fd0a 	bl	80002fc <HAL_I2C_SlaveTxCpltCallback>
 80048e8:	e7eb      	b.n	80048c2 <I2C_ITSlaveCplt.constprop.0+0xfe>
 80048ea:	bf00      	nop
 80048ec:	ffff0000 	.word	0xffff0000

080048f0 <I2C_Slave_ISR_DMA>:
 80048f0:	b5f8      	push	{r3, r4, r5, r6, r7, lr}
 80048f2:	f890 3040 	ldrb.w	r3, [r0, #64]	; 0x40
 80048f6:	6ac7      	ldr	r7, [r0, #44]	; 0x2c
 80048f8:	2b01      	cmp	r3, #1
 80048fa:	4604      	mov	r4, r0
 80048fc:	460e      	mov	r6, r1
 80048fe:	4615      	mov	r5, r2
 8004900:	d070      	beq.n	80049e4 <I2C_Slave_ISR_DMA+0xf4>
 8004902:	2301      	movs	r3, #1
 8004904:	f880 3040 	strb.w	r3, [r0, #64]	; 0x40
 8004908:	068b      	lsls	r3, r1, #26
 800490a:	d503      	bpl.n	8004914 <I2C_Slave_ISR_DMA+0x24>
 800490c:	06aa      	lsls	r2, r5, #26
 800490e:	d501      	bpl.n	8004914 <I2C_Slave_ISR_DMA+0x24>
 8004910:	f7ff ff58 	bl	80047c4 <I2C_ITSlaveCplt.constprop.0>
 8004914:	06f3      	lsls	r3, r6, #27
 8004916:	d55d      	bpl.n	80049d4 <I2C_Slave_ISR_DMA+0xe4>
 8004918:	06e8      	lsls	r0, r5, #27
 800491a:	d55b      	bpl.n	80049d4 <I2C_Slave_ISR_DMA+0xe4>
 800491c:	f415 4f40 	tst.w	r5, #49152	; 0xc000
 8004920:	d054      	beq.n	80049cc <I2C_Slave_ISR_DMA+0xdc>
 8004922:	6be2      	ldr	r2, [r4, #60]	; 0x3c
 8004924:	b1fa      	cbz	r2, 8004966 <I2C_Slave_ISR_DMA+0x76>
 8004926:	f415 4300 	ands.w	r3, r5, #32768	; 0x8000
 800492a:	d004      	beq.n	8004936 <I2C_Slave_ISR_DMA+0x46>
 800492c:	6813      	ldr	r3, [r2, #0]
 800492e:	685b      	ldr	r3, [r3, #4]
 8004930:	fab3 f383 	clz	r3, r3
 8004934:	095b      	lsrs	r3, r3, #5
 8004936:	6ba2      	ldr	r2, [r4, #56]	; 0x38
 8004938:	b122      	cbz	r2, 8004944 <I2C_Slave_ISR_DMA+0x54>
 800493a:	0469      	lsls	r1, r5, #17
 800493c:	d502      	bpl.n	8004944 <I2C_Slave_ISR_DMA+0x54>
 800493e:	6812      	ldr	r2, [r2, #0]
 8004940:	6852      	ldr	r2, [r2, #4]
 8004942:	b10a      	cbz	r2, 8004948 <I2C_Slave_ISR_DMA+0x58>
 8004944:	2b01      	cmp	r3, #1
 8004946:	d121      	bne.n	800498c <I2C_Slave_ISR_DMA+0x9c>
 8004948:	f894 3041 	ldrb.w	r3, [r4, #65]	; 0x41
 800494c:	2b28      	cmp	r3, #40	; 0x28
 800494e:	d10c      	bne.n	800496a <I2C_Slave_ISR_DMA+0x7a>
 8004950:	f1b7 7f00 	cmp.w	r7, #33554432	; 0x2000000
 8004954:	d109      	bne.n	800496a <I2C_Slave_ISR_DMA+0x7a>
 8004956:	4631      	mov	r1, r6
 8004958:	4620      	mov	r0, r4
 800495a:	f7ff fcab 	bl	80042b4 <I2C_ITListenCplt>
 800495e:	2000      	movs	r0, #0
 8004960:	f884 0040 	strb.w	r0, [r4, #64]	; 0x40
 8004964:	bdf8      	pop	{r3, r4, r5, r6, r7, pc}
 8004966:	4613      	mov	r3, r2
 8004968:	e7e5      	b.n	8004936 <I2C_Slave_ISR_DMA+0x46>
 800496a:	f894 2041 	ldrb.w	r2, [r4, #65]	; 0x41
 800496e:	6823      	ldr	r3, [r4, #0]
 8004970:	2a29      	cmp	r2, #41	; 0x29
 8004972:	f04f 0210 	mov.w	r2, #16
 8004976:	61da      	str	r2, [r3, #28]
 8004978:	d1f1      	bne.n	800495e <I2C_Slave_ISR_DMA+0x6e>
 800497a:	f517 3f80 	cmn.w	r7, #65536	; 0x10000
 800497e:	d0ee      	beq.n	800495e <I2C_Slave_ISR_DMA+0x6e>
 8004980:	4620      	mov	r0, r4
 8004982:	f7fe ff05 	bl	8003790 <I2C_Flush_TXDR>
 8004986:	f7ff fc1c 	bl	80041c2 <I2C_ITSlaveSeqCplt>
 800498a:	e7e8      	b.n	800495e <I2C_Slave_ISR_DMA+0x6e>
 800498c:	6823      	ldr	r3, [r4, #0]
 800498e:	2210      	movs	r2, #16
 8004990:	61da      	str	r2, [r3, #28]
 8004992:	6c63      	ldr	r3, [r4, #68]	; 0x44
 8004994:	f043 0304 	orr.w	r3, r3, #4
 8004998:	6463      	str	r3, [r4, #68]	; 0x44
 800499a:	f894 3041 	ldrb.w	r3, [r4, #65]	; 0x41
 800499e:	f037 7280 	bics.w	r2, r7, #16777216	; 0x1000000
 80049a2:	b2db      	uxtb	r3, r3
 80049a4:	d1db      	bne.n	800495e <I2C_Slave_ISR_DMA+0x6e>
 80049a6:	3b21      	subs	r3, #33	; 0x21
 80049a8:	2b09      	cmp	r3, #9
 80049aa:	d808      	bhi.n	80049be <I2C_Slave_ISR_DMA+0xce>
 80049ac:	e8df f003 	tbb	[pc, r3]
 80049b0:	07070c05 	.word	0x07070c05
 80049b4:	07070707 	.word	0x07070707
 80049b8:	0c05      	.short	0x0c05
 80049ba:	2321      	movs	r3, #33	; 0x21
 80049bc:	6323      	str	r3, [r4, #48]	; 0x30
 80049be:	6c61      	ldr	r1, [r4, #68]	; 0x44
 80049c0:	4620      	mov	r0, r4
 80049c2:	f7ff fcc1 	bl	8004348 <I2C_ITError>
 80049c6:	e7ca      	b.n	800495e <I2C_Slave_ISR_DMA+0x6e>
 80049c8:	2322      	movs	r3, #34	; 0x22
 80049ca:	e7f7      	b.n	80049bc <I2C_Slave_ISR_DMA+0xcc>
 80049cc:	6823      	ldr	r3, [r4, #0]
 80049ce:	2210      	movs	r2, #16
 80049d0:	61da      	str	r2, [r3, #28]
 80049d2:	e7c4      	b.n	800495e <I2C_Slave_ISR_DMA+0x6e>
 80049d4:	0732      	lsls	r2, r6, #28
 80049d6:	d5c2      	bpl.n	800495e <I2C_Slave_ISR_DMA+0x6e>
 80049d8:	072b      	lsls	r3, r5, #28
 80049da:	d5c0      	bpl.n	800495e <I2C_Slave_ISR_DMA+0x6e>
 80049dc:	4620      	mov	r0, r4
 80049de:	f7ff fc26 	bl	800422e <I2C_ITAddrCplt.constprop.0>
 80049e2:	e7bc      	b.n	800495e <I2C_Slave_ISR_DMA+0x6e>
 80049e4:	2002      	movs	r0, #2
 80049e6:	e7bd      	b.n	8004964 <I2C_Slave_ISR_DMA+0x74>

080049e8 <I2C_Slave_ISR_IT>:
 80049e8:	b5f8      	push	{r3, r4, r5, r6, r7, lr}
 80049ea:	f890 3040 	ldrb.w	r3, [r0, #64]	; 0x40
 80049ee:	6ac7      	ldr	r7, [r0, #44]	; 0x2c
 80049f0:	2b01      	cmp	r3, #1
 80049f2:	4604      	mov	r4, r0
 80049f4:	460d      	mov	r5, r1
 80049f6:	4616      	mov	r6, r2
 80049f8:	d07d      	beq.n	8004af6 <I2C_Slave_ISR_IT+0x10e>
 80049fa:	2301      	movs	r3, #1
 80049fc:	068a      	lsls	r2, r1, #26
 80049fe:	f880 3040 	strb.w	r3, [r0, #64]	; 0x40
 8004a02:	d503      	bpl.n	8004a0c <I2C_Slave_ISR_IT+0x24>
 8004a04:	06b3      	lsls	r3, r6, #26
 8004a06:	d501      	bpl.n	8004a0c <I2C_Slave_ISR_IT+0x24>
 8004a08:	f7ff fedc 	bl	80047c4 <I2C_ITSlaveCplt.constprop.0>
 8004a0c:	06e8      	lsls	r0, r5, #27
 8004a0e:	d533      	bpl.n	8004a78 <I2C_Slave_ISR_IT+0x90>
 8004a10:	06f1      	lsls	r1, r6, #27
 8004a12:	d531      	bpl.n	8004a78 <I2C_Slave_ISR_IT+0x90>
 8004a14:	8d63      	ldrh	r3, [r4, #42]	; 0x2a
 8004a16:	b29b      	uxth	r3, r3
 8004a18:	b9fb      	cbnz	r3, 8004a5a <I2C_Slave_ISR_IT+0x72>
 8004a1a:	f894 3041 	ldrb.w	r3, [r4, #65]	; 0x41
 8004a1e:	2b28      	cmp	r3, #40	; 0x28
 8004a20:	d10a      	bne.n	8004a38 <I2C_Slave_ISR_IT+0x50>
 8004a22:	f1b7 7f00 	cmp.w	r7, #33554432	; 0x2000000
 8004a26:	d107      	bne.n	8004a38 <I2C_Slave_ISR_IT+0x50>
 8004a28:	4629      	mov	r1, r5
 8004a2a:	4620      	mov	r0, r4
 8004a2c:	f7ff fc42 	bl	80042b4 <I2C_ITListenCplt>
 8004a30:	2000      	movs	r0, #0
 8004a32:	f884 0040 	strb.w	r0, [r4, #64]	; 0x40
 8004a36:	bdf8      	pop	{r3, r4, r5, r6, r7, pc}
 8004a38:	f894 2041 	ldrb.w	r2, [r4, #65]	; 0x41
 8004a3c:	6823      	ldr	r3, [r4, #0]
 8004a3e:	2a29      	cmp	r2, #41	; 0x29
 8004a40:	f04f 0210 	mov.w	r2, #16
 8004a44:	61da      	str	r2, [r3, #28]
 8004a46:	d1f3      	bne.n	8004a30 <I2C_Slave_ISR_IT+0x48>
 8004a48:	f517 3f80 	cmn.w	r7, #65536	; 0x10000
 8004a4c:	d0f0      	beq.n	8004a30 <I2C_Slave_ISR_IT+0x48>
 8004a4e:	4620      	mov	r0, r4
 8004a50:	f7fe fe9e 	bl	8003790 <I2C_Flush_TXDR>
 8004a54:	f7ff fbb5 	bl	80041c2 <I2C_ITSlaveSeqCplt>
 8004a58:	e7ea      	b.n	8004a30 <I2C_Slave_ISR_IT+0x48>
 8004a5a:	6823      	ldr	r3, [r4, #0]
 8004a5c:	2210      	movs	r2, #16
 8004a5e:	61da      	str	r2, [r3, #28]
 8004a60:	6c63      	ldr	r3, [r4, #68]	; 0x44
 8004a62:	f043 0304 	orr.w	r3, r3, #4
 8004a66:	6463      	str	r3, [r4, #68]	; 0x44
 8004a68:	f037 7380 	bics.w	r3, r7, #16777216	; 0x1000000
 8004a6c:	d1e0      	bne.n	8004a30 <I2C_Slave_ISR_IT+0x48>
 8004a6e:	6c61      	ldr	r1, [r4, #68]	; 0x44
 8004a70:	4620      	mov	r0, r4
 8004a72:	f7ff fc69 	bl	8004348 <I2C_ITError>
 8004a76:	e7db      	b.n	8004a30 <I2C_Slave_ISR_IT+0x48>
 8004a78:	076a      	lsls	r2, r5, #29
 8004a7a:	d51b      	bpl.n	8004ab4 <I2C_Slave_ISR_IT+0xcc>
 8004a7c:	0773      	lsls	r3, r6, #29
 8004a7e:	d519      	bpl.n	8004ab4 <I2C_Slave_ISR_IT+0xcc>
 8004a80:	8d63      	ldrh	r3, [r4, #42]	; 0x2a
 8004a82:	b29b      	uxth	r3, r3
 8004a84:	b16b      	cbz	r3, 8004aa2 <I2C_Slave_ISR_IT+0xba>
 8004a86:	6823      	ldr	r3, [r4, #0]
 8004a88:	6a5a      	ldr	r2, [r3, #36]	; 0x24
 8004a8a:	6a63      	ldr	r3, [r4, #36]	; 0x24
 8004a8c:	701a      	strb	r2, [r3, #0]
 8004a8e:	6a63      	ldr	r3, [r4, #36]	; 0x24
 8004a90:	3301      	adds	r3, #1
 8004a92:	6263      	str	r3, [r4, #36]	; 0x24
 8004a94:	8d23      	ldrh	r3, [r4, #40]	; 0x28
 8004a96:	3b01      	subs	r3, #1
 8004a98:	8523      	strh	r3, [r4, #40]	; 0x28
 8004a9a:	8d63      	ldrh	r3, [r4, #42]	; 0x2a
 8004a9c:	3b01      	subs	r3, #1
 8004a9e:	b29b      	uxth	r3, r3
 8004aa0:	8563      	strh	r3, [r4, #42]	; 0x2a
 8004aa2:	8d63      	ldrh	r3, [r4, #42]	; 0x2a
 8004aa4:	b29b      	uxth	r3, r3
 8004aa6:	2b00      	cmp	r3, #0
 8004aa8:	d1c2      	bne.n	8004a30 <I2C_Slave_ISR_IT+0x48>
 8004aaa:	f517 3f80 	cmn.w	r7, #65536	; 0x10000
 8004aae:	d0bf      	beq.n	8004a30 <I2C_Slave_ISR_IT+0x48>
 8004ab0:	4620      	mov	r0, r4
 8004ab2:	e7cf      	b.n	8004a54 <I2C_Slave_ISR_IT+0x6c>
 8004ab4:	0728      	lsls	r0, r5, #28
 8004ab6:	d505      	bpl.n	8004ac4 <I2C_Slave_ISR_IT+0xdc>
 8004ab8:	0731      	lsls	r1, r6, #28
 8004aba:	d503      	bpl.n	8004ac4 <I2C_Slave_ISR_IT+0xdc>
 8004abc:	4620      	mov	r0, r4
 8004abe:	f7ff fbb6 	bl	800422e <I2C_ITAddrCplt.constprop.0>
 8004ac2:	e7b5      	b.n	8004a30 <I2C_Slave_ISR_IT+0x48>
 8004ac4:	07aa      	lsls	r2, r5, #30
 8004ac6:	d5b3      	bpl.n	8004a30 <I2C_Slave_ISR_IT+0x48>
 8004ac8:	07b3      	lsls	r3, r6, #30
 8004aca:	d5b1      	bpl.n	8004a30 <I2C_Slave_ISR_IT+0x48>
 8004acc:	8d63      	ldrh	r3, [r4, #42]	; 0x2a
 8004ace:	b29b      	uxth	r3, r3
 8004ad0:	b16b      	cbz	r3, 8004aee <I2C_Slave_ISR_IT+0x106>
 8004ad2:	6a63      	ldr	r3, [r4, #36]	; 0x24
 8004ad4:	6822      	ldr	r2, [r4, #0]
 8004ad6:	f813 1b01 	ldrb.w	r1, [r3], #1
 8004ada:	6291      	str	r1, [r2, #40]	; 0x28
 8004adc:	6263      	str	r3, [r4, #36]	; 0x24
 8004ade:	8d63      	ldrh	r3, [r4, #42]	; 0x2a
 8004ae0:	3b01      	subs	r3, #1
 8004ae2:	b29b      	uxth	r3, r3
 8004ae4:	8563      	strh	r3, [r4, #42]	; 0x2a
 8004ae6:	8d23      	ldrh	r3, [r4, #40]	; 0x28
 8004ae8:	3b01      	subs	r3, #1
 8004aea:	8523      	strh	r3, [r4, #40]	; 0x28
 8004aec:	e7a0      	b.n	8004a30 <I2C_Slave_ISR_IT+0x48>
 8004aee:	f037 7380 	bics.w	r3, r7, #16777216	; 0x1000000
 8004af2:	d0dd      	beq.n	8004ab0 <I2C_Slave_ISR_IT+0xc8>
 8004af4:	e79c      	b.n	8004a30 <I2C_Slave_ISR_IT+0x48>
 8004af6:	2002      	movs	r0, #2
 8004af8:	e79d      	b.n	8004a36 <I2C_Slave_ISR_IT+0x4e>

08004afa <I2C_DMAAbort>:
 8004afa:	6a40      	ldr	r0, [r0, #36]	; 0x24
 8004afc:	6b83      	ldr	r3, [r0, #56]	; 0x38
 8004afe:	b10b      	cbz	r3, 8004b04 <I2C_DMAAbort+0xa>
 8004b00:	2200      	movs	r2, #0
 8004b02:	635a      	str	r2, [r3, #52]	; 0x34
 8004b04:	6bc3      	ldr	r3, [r0, #60]	; 0x3c
 8004b06:	b10b      	cbz	r3, 8004b0c <I2C_DMAAbort+0x12>
 8004b08:	2200      	movs	r2, #0
 8004b0a:	635a      	str	r2, [r3, #52]	; 0x34
 8004b0c:	f7ff bc05 	b.w	800431a <I2C_TreatErrorCallback>

08004b10 <HAL_I2C_GetError>:
 8004b10:	6c40      	ldr	r0, [r0, #68]	; 0x44
 8004b12:	4770      	bx	lr

08004b14 <HAL_I2CEx_ConfigAnalogFilter>:
 8004b14:	b510      	push	{r4, lr}
 8004b16:	f890 3041 	ldrb.w	r3, [r0, #65]	; 0x41
 8004b1a:	2b20      	cmp	r3, #32
 8004b1c:	b2dc      	uxtb	r4, r3
 8004b1e:	d11d      	bne.n	8004b5c <HAL_I2CEx_ConfigAnalogFilter+0x48>
 8004b20:	f890 3040 	ldrb.w	r3, [r0, #64]	; 0x40
 8004b24:	2b01      	cmp	r3, #1
 8004b26:	d019      	beq.n	8004b5c <HAL_I2CEx_ConfigAnalogFilter+0x48>
 8004b28:	2324      	movs	r3, #36	; 0x24
 8004b2a:	f880 3041 	strb.w	r3, [r0, #65]	; 0x41
 8004b2e:	6803      	ldr	r3, [r0, #0]
 8004b30:	681a      	ldr	r2, [r3, #0]
 8004b32:	f022 0201 	bic.w	r2, r2, #1
 8004b36:	601a      	str	r2, [r3, #0]
 8004b38:	681a      	ldr	r2, [r3, #0]
 8004b3a:	f422 5280 	bic.w	r2, r2, #4096	; 0x1000
 8004b3e:	601a      	str	r2, [r3, #0]
 8004b40:	681a      	ldr	r2, [r3, #0]
 8004b42:	4311      	orrs	r1, r2
 8004b44:	6019      	str	r1, [r3, #0]
 8004b46:	681a      	ldr	r2, [r3, #0]
 8004b48:	f042 0201 	orr.w	r2, r2, #1
 8004b4c:	601a      	str	r2, [r3, #0]
 8004b4e:	2300      	movs	r3, #0
 8004b50:	f880 4041 	strb.w	r4, [r0, #65]	; 0x41
 8004b54:	f880 3040 	strb.w	r3, [r0, #64]	; 0x40
 8004b58:	4618      	mov	r0, r3
 8004b5a:	bd10      	pop	{r4, pc}
 8004b5c:	2002      	movs	r0, #2
 8004b5e:	e7fc      	b.n	8004b5a <HAL_I2CEx_ConfigAnalogFilter+0x46>

08004b60 <HAL_I2CEx_ConfigDigitalFilter>:
 8004b60:	b510      	push	{r4, lr}
 8004b62:	f890 3041 	ldrb.w	r3, [r0, #65]	; 0x41
 8004b66:	2b20      	cmp	r3, #32
 8004b68:	b2dc      	uxtb	r4, r3
 8004b6a:	d11c      	bne.n	8004ba6 <HAL_I2CEx_ConfigDigitalFilter+0x46>
 8004b6c:	f890 3040 	ldrb.w	r3, [r0, #64]	; 0x40
 8004b70:	2b01      	cmp	r3, #1
 8004b72:	d018      	beq.n	8004ba6 <HAL_I2CEx_ConfigDigitalFilter+0x46>
 8004b74:	2324      	movs	r3, #36	; 0x24
 8004b76:	f880 3041 	strb.w	r3, [r0, #65]	; 0x41
 8004b7a:	6803      	ldr	r3, [r0, #0]
 8004b7c:	681a      	ldr	r2, [r3, #0]
 8004b7e:	f022 0201 	bic.w	r2, r2, #1
 8004b82:	601a      	str	r2, [r3, #0]
 8004b84:	681a      	ldr	r2, [r3, #0]
 8004b86:	f422 6270 	bic.w	r2, r2, #3840	; 0xf00
 8004b8a:	ea42 2101 	orr.w	r1, r2, r1, lsl #8
 8004b8e:	6019      	str	r1, [r3, #0]
 8004b90:	681a      	ldr	r2, [r3, #0]
 8004b92:	f042 0201 	orr.w	r2, r2, #1
 8004b96:	601a      	str	r2, [r3, #0]
 8004b98:	2300      	movs	r3, #0
 8004b9a:	f880 4041 	strb.w	r4, [r0, #65]	; 0x41
 8004b9e:	f880 3040 	strb.w	r3, [r0, #64]	; 0x40
 8004ba2:	4618      	mov	r0, r3
 8004ba4:	bd10      	pop	{r4, pc}
 8004ba6:	2002      	movs	r0, #2
 8004ba8:	e7fc      	b.n	8004ba4 <HAL_I2CEx_ConfigDigitalFilter+0x44>
	...

08004bac <HAL_RCC_OscConfig>:
 8004bac:	e92d 47f3 	stmdb	sp!, {r0, r1, r4, r5, r6, r7, r8, r9, sl, lr}
 8004bb0:	4605      	mov	r5, r0
 8004bb2:	2800      	cmp	r0, #0
 8004bb4:	d033      	beq.n	8004c1e <HAL_RCC_OscConfig+0x72>
 8004bb6:	6803      	ldr	r3, [r0, #0]
 8004bb8:	07da      	lsls	r2, r3, #31
 8004bba:	d411      	bmi.n	8004be0 <HAL_RCC_OscConfig+0x34>
 8004bbc:	682b      	ldr	r3, [r5, #0]
 8004bbe:	079b      	lsls	r3, r3, #30
 8004bc0:	f100 8081 	bmi.w	8004cc6 <HAL_RCC_OscConfig+0x11a>
 8004bc4:	682b      	ldr	r3, [r5, #0]
 8004bc6:	071c      	lsls	r4, r3, #28
 8004bc8:	f100 80eb 	bmi.w	8004da2 <HAL_RCC_OscConfig+0x1f6>
 8004bcc:	682b      	ldr	r3, [r5, #0]
 8004bce:	0758      	lsls	r0, r3, #29
 8004bd0:	f100 8130 	bmi.w	8004e34 <HAL_RCC_OscConfig+0x288>
 8004bd4:	69e8      	ldr	r0, [r5, #28]
 8004bd6:	2800      	cmp	r0, #0
 8004bd8:	f040 81b5 	bne.w	8004f46 <HAL_RCC_OscConfig+0x39a>
 8004bdc:	2000      	movs	r0, #0
 8004bde:	e047      	b.n	8004c70 <HAL_RCC_OscConfig+0xc4>
 8004be0:	4cb0      	ldr	r4, [pc, #704]	; (8004ea4 <HAL_RCC_OscConfig+0x2f8>)
 8004be2:	6863      	ldr	r3, [r4, #4]
 8004be4:	f003 030c 	and.w	r3, r3, #12
 8004be8:	2b04      	cmp	r3, #4
 8004bea:	d007      	beq.n	8004bfc <HAL_RCC_OscConfig+0x50>
 8004bec:	6863      	ldr	r3, [r4, #4]
 8004bee:	f003 030c 	and.w	r3, r3, #12
 8004bf2:	2b08      	cmp	r3, #8
 8004bf4:	d115      	bne.n	8004c22 <HAL_RCC_OscConfig+0x76>
 8004bf6:	6863      	ldr	r3, [r4, #4]
 8004bf8:	03df      	lsls	r7, r3, #15
 8004bfa:	d512      	bpl.n	8004c22 <HAL_RCC_OscConfig+0x76>
 8004bfc:	f44f 3300 	mov.w	r3, #131072	; 0x20000
 8004c00:	fa93 f2a3 	rbit	r2, r3
 8004c04:	6821      	ldr	r1, [r4, #0]
 8004c06:	fa93 f3a3 	rbit	r3, r3
 8004c0a:	2201      	movs	r2, #1
 8004c0c:	fab3 f383 	clz	r3, r3
 8004c10:	fa02 f303 	lsl.w	r3, r2, r3
 8004c14:	420b      	tst	r3, r1
 8004c16:	d0d1      	beq.n	8004bbc <HAL_RCC_OscConfig+0x10>
 8004c18:	686b      	ldr	r3, [r5, #4]
 8004c1a:	2b00      	cmp	r3, #0
 8004c1c:	d1ce      	bne.n	8004bbc <HAL_RCC_OscConfig+0x10>
 8004c1e:	2001      	movs	r0, #1
 8004c20:	e026      	b.n	8004c70 <HAL_RCC_OscConfig+0xc4>
 8004c22:	686a      	ldr	r2, [r5, #4]
 8004c24:	f5b2 3f80 	cmp.w	r2, #65536	; 0x10000
 8004c28:	d125      	bne.n	8004c76 <HAL_RCC_OscConfig+0xca>
 8004c2a:	6823      	ldr	r3, [r4, #0]
 8004c2c:	f443 3380 	orr.w	r3, r3, #65536	; 0x10000
 8004c30:	6023      	str	r3, [r4, #0]
 8004c32:	6ae3      	ldr	r3, [r4, #44]	; 0x2c
 8004c34:	68a9      	ldr	r1, [r5, #8]
 8004c36:	f023 030f 	bic.w	r3, r3, #15
 8004c3a:	430b      	orrs	r3, r1
 8004c3c:	62e3      	str	r3, [r4, #44]	; 0x2c
 8004c3e:	b352      	cbz	r2, 8004c96 <HAL_RCC_OscConfig+0xea>
 8004c40:	f7fd fa00 	bl	8002044 <HAL_GetTick>
 8004c44:	f44f 3700 	mov.w	r7, #131072	; 0x20000
 8004c48:	4606      	mov	r6, r0
 8004c4a:	f04f 0801 	mov.w	r8, #1
 8004c4e:	fa97 f3a7 	rbit	r3, r7
 8004c52:	6822      	ldr	r2, [r4, #0]
 8004c54:	fa97 f3a7 	rbit	r3, r7
 8004c58:	fab3 f383 	clz	r3, r3
 8004c5c:	fa08 f303 	lsl.w	r3, r8, r3
 8004c60:	4213      	tst	r3, r2
 8004c62:	d1ab      	bne.n	8004bbc <HAL_RCC_OscConfig+0x10>
 8004c64:	f7fd f9ee 	bl	8002044 <HAL_GetTick>
 8004c68:	1b80      	subs	r0, r0, r6
 8004c6a:	2864      	cmp	r0, #100	; 0x64
 8004c6c:	d9ef      	bls.n	8004c4e <HAL_RCC_OscConfig+0xa2>
 8004c6e:	2003      	movs	r0, #3
 8004c70:	b002      	add	sp, #8
 8004c72:	e8bd 87f0 	ldmia.w	sp!, {r4, r5, r6, r7, r8, r9, sl, pc}
 8004c76:	6823      	ldr	r3, [r4, #0]
 8004c78:	b932      	cbnz	r2, 8004c88 <HAL_RCC_OscConfig+0xdc>
 8004c7a:	f423 3380 	bic.w	r3, r3, #65536	; 0x10000
 8004c7e:	6023      	str	r3, [r4, #0]
 8004c80:	6823      	ldr	r3, [r4, #0]
 8004c82:	f423 2380 	bic.w	r3, r3, #262144	; 0x40000
 8004c86:	e7d3      	b.n	8004c30 <HAL_RCC_OscConfig+0x84>
 8004c88:	f5b2 2fa0 	cmp.w	r2, #327680	; 0x50000
 8004c8c:	d1f5      	bne.n	8004c7a <HAL_RCC_OscConfig+0xce>
 8004c8e:	f443 2380 	orr.w	r3, r3, #262144	; 0x40000
 8004c92:	6023      	str	r3, [r4, #0]
 8004c94:	e7c9      	b.n	8004c2a <HAL_RCC_OscConfig+0x7e>
 8004c96:	f7fd f9d5 	bl	8002044 <HAL_GetTick>
 8004c9a:	f44f 3700 	mov.w	r7, #131072	; 0x20000
 8004c9e:	4606      	mov	r6, r0
 8004ca0:	f04f 0801 	mov.w	r8, #1
 8004ca4:	fa97 f3a7 	rbit	r3, r7
 8004ca8:	6822      	ldr	r2, [r4, #0]
 8004caa:	fa97 f3a7 	rbit	r3, r7
 8004cae:	fab3 f383 	clz	r3, r3
 8004cb2:	fa08 f303 	lsl.w	r3, r8, r3
 8004cb6:	4213      	tst	r3, r2
 8004cb8:	d080      	beq.n	8004bbc <HAL_RCC_OscConfig+0x10>
 8004cba:	f7fd f9c3 	bl	8002044 <HAL_GetTick>
 8004cbe:	1b80      	subs	r0, r0, r6
 8004cc0:	2864      	cmp	r0, #100	; 0x64
 8004cc2:	d9ef      	bls.n	8004ca4 <HAL_RCC_OscConfig+0xf8>
 8004cc4:	e7d3      	b.n	8004c6e <HAL_RCC_OscConfig+0xc2>
 8004cc6:	4c77      	ldr	r4, [pc, #476]	; (8004ea4 <HAL_RCC_OscConfig+0x2f8>)
 8004cc8:	6863      	ldr	r3, [r4, #4]
 8004cca:	f013 0f0c 	tst.w	r3, #12
 8004cce:	d007      	beq.n	8004ce0 <HAL_RCC_OscConfig+0x134>
 8004cd0:	6863      	ldr	r3, [r4, #4]
 8004cd2:	f003 030c 	and.w	r3, r3, #12
 8004cd6:	2b08      	cmp	r3, #8
 8004cd8:	d11f      	bne.n	8004d1a <HAL_RCC_OscConfig+0x16e>
 8004cda:	6863      	ldr	r3, [r4, #4]
 8004cdc:	03de      	lsls	r6, r3, #15
 8004cde:	d41c      	bmi.n	8004d1a <HAL_RCC_OscConfig+0x16e>
 8004ce0:	2302      	movs	r3, #2
 8004ce2:	fa93 f2a3 	rbit	r2, r3
 8004ce6:	6821      	ldr	r1, [r4, #0]
 8004ce8:	fa93 f3a3 	rbit	r3, r3
 8004cec:	2201      	movs	r2, #1
 8004cee:	fab3 f383 	clz	r3, r3
 8004cf2:	fa02 f303 	lsl.w	r3, r2, r3
 8004cf6:	420b      	tst	r3, r1
 8004cf8:	d002      	beq.n	8004d00 <HAL_RCC_OscConfig+0x154>
 8004cfa:	692b      	ldr	r3, [r5, #16]
 8004cfc:	4293      	cmp	r3, r2
 8004cfe:	d18e      	bne.n	8004c1e <HAL_RCC_OscConfig+0x72>
 8004d00:	6821      	ldr	r1, [r4, #0]
 8004d02:	22f8      	movs	r2, #248	; 0xf8
 8004d04:	fa92 f2a2 	rbit	r2, r2
 8004d08:	696b      	ldr	r3, [r5, #20]
 8004d0a:	fab2 f282 	clz	r2, r2
 8004d0e:	4093      	lsls	r3, r2
 8004d10:	f021 02f8 	bic.w	r2, r1, #248	; 0xf8
 8004d14:	4313      	orrs	r3, r2
 8004d16:	6023      	str	r3, [r4, #0]
 8004d18:	e754      	b.n	8004bc4 <HAL_RCC_OscConfig+0x18>
 8004d1a:	692a      	ldr	r2, [r5, #16]
 8004d1c:	2601      	movs	r6, #1
 8004d1e:	b1fa      	cbz	r2, 8004d60 <HAL_RCC_OscConfig+0x1b4>
 8004d20:	fa96 f3a6 	rbit	r3, r6
 8004d24:	fab3 f383 	clz	r3, r3
 8004d28:	f103 5384 	add.w	r3, r3, #276824064	; 0x10800000
 8004d2c:	f503 1384 	add.w	r3, r3, #1081344	; 0x108000
 8004d30:	009b      	lsls	r3, r3, #2
 8004d32:	f04f 0802 	mov.w	r8, #2
 8004d36:	601e      	str	r6, [r3, #0]
 8004d38:	f7fd f984 	bl	8002044 <HAL_GetTick>
 8004d3c:	4607      	mov	r7, r0
 8004d3e:	fa98 f3a8 	rbit	r3, r8
 8004d42:	6822      	ldr	r2, [r4, #0]
 8004d44:	fa98 f3a8 	rbit	r3, r8
 8004d48:	fab3 f383 	clz	r3, r3
 8004d4c:	fa06 f303 	lsl.w	r3, r6, r3
 8004d50:	4213      	tst	r3, r2
 8004d52:	d1d5      	bne.n	8004d00 <HAL_RCC_OscConfig+0x154>
 8004d54:	f7fd f976 	bl	8002044 <HAL_GetTick>
 8004d58:	1bc0      	subs	r0, r0, r7
 8004d5a:	2802      	cmp	r0, #2
 8004d5c:	d9ef      	bls.n	8004d3e <HAL_RCC_OscConfig+0x192>
 8004d5e:	e786      	b.n	8004c6e <HAL_RCC_OscConfig+0xc2>
 8004d60:	fa96 f3a6 	rbit	r3, r6
 8004d64:	fab3 f383 	clz	r3, r3
 8004d68:	f103 5384 	add.w	r3, r3, #276824064	; 0x10800000
 8004d6c:	f503 1384 	add.w	r3, r3, #1081344	; 0x108000
 8004d70:	009b      	lsls	r3, r3, #2
 8004d72:	f04f 0802 	mov.w	r8, #2
 8004d76:	601a      	str	r2, [r3, #0]
 8004d78:	f7fd f964 	bl	8002044 <HAL_GetTick>
 8004d7c:	4607      	mov	r7, r0
 8004d7e:	fa98 f3a8 	rbit	r3, r8
 8004d82:	6822      	ldr	r2, [r4, #0]
 8004d84:	fa98 f3a8 	rbit	r3, r8
 8004d88:	fab3 f383 	clz	r3, r3
 8004d8c:	fa06 f303 	lsl.w	r3, r6, r3
 8004d90:	4213      	tst	r3, r2
 8004d92:	f43f af17 	beq.w	8004bc4 <HAL_RCC_OscConfig+0x18>
 8004d96:	f7fd f955 	bl	8002044 <HAL_GetTick>
 8004d9a:	1bc0      	subs	r0, r0, r7
 8004d9c:	2802      	cmp	r0, #2
 8004d9e:	d9ee      	bls.n	8004d7e <HAL_RCC_OscConfig+0x1d2>
 8004da0:	e765      	b.n	8004c6e <HAL_RCC_OscConfig+0xc2>
 8004da2:	69aa      	ldr	r2, [r5, #24]
 8004da4:	4e3f      	ldr	r6, [pc, #252]	; (8004ea4 <HAL_RCC_OscConfig+0x2f8>)
 8004da6:	4940      	ldr	r1, [pc, #256]	; (8004ea8 <HAL_RCC_OscConfig+0x2fc>)
 8004da8:	2401      	movs	r4, #1
 8004daa:	b30a      	cbz	r2, 8004df0 <HAL_RCC_OscConfig+0x244>
 8004dac:	fa94 f3a4 	rbit	r3, r4
 8004db0:	fab3 f383 	clz	r3, r3
 8004db4:	440b      	add	r3, r1
 8004db6:	009b      	lsls	r3, r3, #2
 8004db8:	2702      	movs	r7, #2
 8004dba:	601c      	str	r4, [r3, #0]
 8004dbc:	f7fd f942 	bl	8002044 <HAL_GetTick>
 8004dc0:	4680      	mov	r8, r0
 8004dc2:	fa97 f3a7 	rbit	r3, r7
 8004dc6:	fa97 f3a7 	rbit	r3, r7
 8004dca:	fa97 f3a7 	rbit	r3, r7
 8004dce:	6a72      	ldr	r2, [r6, #36]	; 0x24
 8004dd0:	fa97 f3a7 	rbit	r3, r7
 8004dd4:	fab3 f383 	clz	r3, r3
 8004dd8:	fa04 f303 	lsl.w	r3, r4, r3
 8004ddc:	4213      	tst	r3, r2
 8004dde:	f47f aef5 	bne.w	8004bcc <HAL_RCC_OscConfig+0x20>
 8004de2:	f7fd f92f 	bl	8002044 <HAL_GetTick>
 8004de6:	eba0 0008 	sub.w	r0, r0, r8
 8004dea:	2802      	cmp	r0, #2
 8004dec:	d9e9      	bls.n	8004dc2 <HAL_RCC_OscConfig+0x216>
 8004dee:	e73e      	b.n	8004c6e <HAL_RCC_OscConfig+0xc2>
 8004df0:	fa94 f3a4 	rbit	r3, r4
 8004df4:	fab3 f383 	clz	r3, r3
 8004df8:	440b      	add	r3, r1
 8004dfa:	009b      	lsls	r3, r3, #2
 8004dfc:	2702      	movs	r7, #2
 8004dfe:	601a      	str	r2, [r3, #0]
 8004e00:	f7fd f920 	bl	8002044 <HAL_GetTick>
 8004e04:	4680      	mov	r8, r0
 8004e06:	fa97 f3a7 	rbit	r3, r7
 8004e0a:	fa97 f3a7 	rbit	r3, r7
 8004e0e:	fa97 f3a7 	rbit	r3, r7
 8004e12:	6a72      	ldr	r2, [r6, #36]	; 0x24
 8004e14:	fa97 f3a7 	rbit	r3, r7
 8004e18:	fab3 f383 	clz	r3, r3
 8004e1c:	fa04 f303 	lsl.w	r3, r4, r3
 8004e20:	4213      	tst	r3, r2
 8004e22:	f43f aed3 	beq.w	8004bcc <HAL_RCC_OscConfig+0x20>
 8004e26:	f7fd f90d 	bl	8002044 <HAL_GetTick>
 8004e2a:	eba0 0008 	sub.w	r0, r0, r8
 8004e2e:	2802      	cmp	r0, #2
 8004e30:	d9e9      	bls.n	8004e06 <HAL_RCC_OscConfig+0x25a>
 8004e32:	e71c      	b.n	8004c6e <HAL_RCC_OscConfig+0xc2>
 8004e34:	4c1b      	ldr	r4, [pc, #108]	; (8004ea4 <HAL_RCC_OscConfig+0x2f8>)
 8004e36:	69e3      	ldr	r3, [r4, #28]
 8004e38:	00d9      	lsls	r1, r3, #3
 8004e3a:	d431      	bmi.n	8004ea0 <HAL_RCC_OscConfig+0x2f4>
 8004e3c:	69e3      	ldr	r3, [r4, #28]
 8004e3e:	f043 5380 	orr.w	r3, r3, #268435456	; 0x10000000
 8004e42:	61e3      	str	r3, [r4, #28]
 8004e44:	69e3      	ldr	r3, [r4, #28]
 8004e46:	f003 5380 	and.w	r3, r3, #268435456	; 0x10000000
 8004e4a:	9301      	str	r3, [sp, #4]
 8004e4c:	9b01      	ldr	r3, [sp, #4]
 8004e4e:	2601      	movs	r6, #1
 8004e50:	4f16      	ldr	r7, [pc, #88]	; (8004eac <HAL_RCC_OscConfig+0x300>)
 8004e52:	683b      	ldr	r3, [r7, #0]
 8004e54:	05da      	lsls	r2, r3, #23
 8004e56:	d52b      	bpl.n	8004eb0 <HAL_RCC_OscConfig+0x304>
 8004e58:	68eb      	ldr	r3, [r5, #12]
 8004e5a:	2b01      	cmp	r3, #1
 8004e5c:	d139      	bne.n	8004ed2 <HAL_RCC_OscConfig+0x326>
 8004e5e:	6a23      	ldr	r3, [r4, #32]
 8004e60:	f043 0301 	orr.w	r3, r3, #1
 8004e64:	6223      	str	r3, [r4, #32]
 8004e66:	f7fd f8ed 	bl	8002044 <HAL_GetTick>
 8004e6a:	2702      	movs	r7, #2
 8004e6c:	4680      	mov	r8, r0
 8004e6e:	f04f 0901 	mov.w	r9, #1
 8004e72:	f241 3a88 	movw	sl, #5000	; 0x1388
 8004e76:	fa97 f3a7 	rbit	r3, r7
 8004e7a:	fa97 f3a7 	rbit	r3, r7
 8004e7e:	6a22      	ldr	r2, [r4, #32]
 8004e80:	fa97 f3a7 	rbit	r3, r7
 8004e84:	fab3 f383 	clz	r3, r3
 8004e88:	fa09 f303 	lsl.w	r3, r9, r3
 8004e8c:	4213      	tst	r3, r2
 8004e8e:	d053      	beq.n	8004f38 <HAL_RCC_OscConfig+0x38c>
 8004e90:	2e00      	cmp	r6, #0
 8004e92:	f43f ae9f 	beq.w	8004bd4 <HAL_RCC_OscConfig+0x28>
 8004e96:	69e3      	ldr	r3, [r4, #28]
 8004e98:	f023 5380 	bic.w	r3, r3, #268435456	; 0x10000000
 8004e9c:	61e3      	str	r3, [r4, #28]
 8004e9e:	e699      	b.n	8004bd4 <HAL_RCC_OscConfig+0x28>
 8004ea0:	2600      	movs	r6, #0
 8004ea2:	e7d5      	b.n	8004e50 <HAL_RCC_OscConfig+0x2a4>
 8004ea4:	40021000 	.word	0x40021000
 8004ea8:	10908120 	.word	0x10908120
 8004eac:	40007000 	.word	0x40007000
 8004eb0:	683b      	ldr	r3, [r7, #0]
 8004eb2:	f443 7380 	orr.w	r3, r3, #256	; 0x100
 8004eb6:	603b      	str	r3, [r7, #0]
 8004eb8:	f7fd f8c4 	bl	8002044 <HAL_GetTick>
 8004ebc:	4680      	mov	r8, r0
 8004ebe:	683b      	ldr	r3, [r7, #0]
 8004ec0:	05db      	lsls	r3, r3, #23
 8004ec2:	d4c9      	bmi.n	8004e58 <HAL_RCC_OscConfig+0x2ac>
 8004ec4:	f7fd f8be 	bl	8002044 <HAL_GetTick>
 8004ec8:	eba0 0008 	sub.w	r0, r0, r8
 8004ecc:	2864      	cmp	r0, #100	; 0x64
 8004ece:	d9f6      	bls.n	8004ebe <HAL_RCC_OscConfig+0x312>
 8004ed0:	e6cd      	b.n	8004c6e <HAL_RCC_OscConfig+0xc2>
 8004ed2:	bb1b      	cbnz	r3, 8004f1c <HAL_RCC_OscConfig+0x370>
 8004ed4:	6a23      	ldr	r3, [r4, #32]
 8004ed6:	f023 0301 	bic.w	r3, r3, #1
 8004eda:	6223      	str	r3, [r4, #32]
 8004edc:	6a23      	ldr	r3, [r4, #32]
 8004ede:	f023 0304 	bic.w	r3, r3, #4
 8004ee2:	6223      	str	r3, [r4, #32]
 8004ee4:	f7fd f8ae 	bl	8002044 <HAL_GetTick>
 8004ee8:	2702      	movs	r7, #2
 8004eea:	4680      	mov	r8, r0
 8004eec:	f04f 0901 	mov.w	r9, #1
 8004ef0:	f241 3a88 	movw	sl, #5000	; 0x1388
 8004ef4:	fa97 f3a7 	rbit	r3, r7
 8004ef8:	fa97 f3a7 	rbit	r3, r7
 8004efc:	6a22      	ldr	r2, [r4, #32]
 8004efe:	fa97 f3a7 	rbit	r3, r7
 8004f02:	fab3 f383 	clz	r3, r3
 8004f06:	fa09 f303 	lsl.w	r3, r9, r3
 8004f0a:	4213      	tst	r3, r2
 8004f0c:	d0c0      	beq.n	8004e90 <HAL_RCC_OscConfig+0x2e4>
 8004f0e:	f7fd f899 	bl	8002044 <HAL_GetTick>
 8004f12:	eba0 0008 	sub.w	r0, r0, r8
 8004f16:	4550      	cmp	r0, sl
 8004f18:	d9ec      	bls.n	8004ef4 <HAL_RCC_OscConfig+0x348>
 8004f1a:	e6a8      	b.n	8004c6e <HAL_RCC_OscConfig+0xc2>
 8004f1c:	2b05      	cmp	r3, #5
 8004f1e:	6a23      	ldr	r3, [r4, #32]
 8004f20:	d103      	bne.n	8004f2a <HAL_RCC_OscConfig+0x37e>
 8004f22:	f043 0304 	orr.w	r3, r3, #4
 8004f26:	6223      	str	r3, [r4, #32]
 8004f28:	e799      	b.n	8004e5e <HAL_RCC_OscConfig+0x2b2>
 8004f2a:	f023 0301 	bic.w	r3, r3, #1
 8004f2e:	6223      	str	r3, [r4, #32]
 8004f30:	6a23      	ldr	r3, [r4, #32]
 8004f32:	f023 0304 	bic.w	r3, r3, #4
 8004f36:	e795      	b.n	8004e64 <HAL_RCC_OscConfig+0x2b8>
 8004f38:	f7fd f884 	bl	8002044 <HAL_GetTick>
 8004f3c:	eba0 0008 	sub.w	r0, r0, r8
 8004f40:	4550      	cmp	r0, sl
 8004f42:	d998      	bls.n	8004e76 <HAL_RCC_OscConfig+0x2ca>
 8004f44:	e693      	b.n	8004c6e <HAL_RCC_OscConfig+0xc2>
 8004f46:	4c46      	ldr	r4, [pc, #280]	; (8005060 <HAL_RCC_OscConfig+0x4b4>)
 8004f48:	6863      	ldr	r3, [r4, #4]
 8004f4a:	f003 030c 	and.w	r3, r3, #12
 8004f4e:	2b08      	cmp	r3, #8
 8004f50:	d074      	beq.n	800503c <HAL_RCC_OscConfig+0x490>
 8004f52:	2802      	cmp	r0, #2
 8004f54:	f04f 7380 	mov.w	r3, #16777216	; 0x1000000
 8004f58:	d14d      	bne.n	8004ff6 <HAL_RCC_OscConfig+0x44a>
 8004f5a:	fa93 f3a3 	rbit	r3, r3
 8004f5e:	fab3 f383 	clz	r3, r3
 8004f62:	f103 5384 	add.w	r3, r3, #276824064	; 0x10800000
 8004f66:	f503 1384 	add.w	r3, r3, #1081344	; 0x108000
 8004f6a:	009b      	lsls	r3, r3, #2
 8004f6c:	2200      	movs	r2, #0
 8004f6e:	601a      	str	r2, [r3, #0]
 8004f70:	f7fd f868 	bl	8002044 <HAL_GetTick>
 8004f74:	f04f 7800 	mov.w	r8, #33554432	; 0x2000000
 8004f78:	4607      	mov	r7, r0
 8004f7a:	2601      	movs	r6, #1
 8004f7c:	fa98 f3a8 	rbit	r3, r8
 8004f80:	6822      	ldr	r2, [r4, #0]
 8004f82:	fa98 f3a8 	rbit	r3, r8
 8004f86:	fab3 f383 	clz	r3, r3
 8004f8a:	fa06 f303 	lsl.w	r3, r6, r3
 8004f8e:	4213      	tst	r3, r2
 8004f90:	d12b      	bne.n	8004fea <HAL_RCC_OscConfig+0x43e>
 8004f92:	e9d5 1308 	ldrd	r1, r3, [r5, #32]
 8004f96:	6862      	ldr	r2, [r4, #4]
 8004f98:	430b      	orrs	r3, r1
 8004f9a:	f422 1274 	bic.w	r2, r2, #3997696	; 0x3d0000
 8004f9e:	4313      	orrs	r3, r2
 8004fa0:	6063      	str	r3, [r4, #4]
 8004fa2:	f04f 7380 	mov.w	r3, #16777216	; 0x1000000
 8004fa6:	fa93 f3a3 	rbit	r3, r3
 8004faa:	fab3 f383 	clz	r3, r3
 8004fae:	f103 5384 	add.w	r3, r3, #276824064	; 0x10800000
 8004fb2:	f503 1384 	add.w	r3, r3, #1081344	; 0x108000
 8004fb6:	009b      	lsls	r3, r3, #2
 8004fb8:	2701      	movs	r7, #1
 8004fba:	601e      	str	r6, [r3, #0]
 8004fbc:	f7fd f842 	bl	8002044 <HAL_GetTick>
 8004fc0:	f04f 7600 	mov.w	r6, #33554432	; 0x2000000
 8004fc4:	4605      	mov	r5, r0
 8004fc6:	fa96 f3a6 	rbit	r3, r6
 8004fca:	6822      	ldr	r2, [r4, #0]
 8004fcc:	fa96 f3a6 	rbit	r3, r6
 8004fd0:	fab3 f383 	clz	r3, r3
 8004fd4:	fa07 f303 	lsl.w	r3, r7, r3
 8004fd8:	4213      	tst	r3, r2
 8004fda:	f47f adff 	bne.w	8004bdc <HAL_RCC_OscConfig+0x30>
 8004fde:	f7fd f831 	bl	8002044 <HAL_GetTick>
 8004fe2:	1b40      	subs	r0, r0, r5
 8004fe4:	2802      	cmp	r0, #2
 8004fe6:	d9ee      	bls.n	8004fc6 <HAL_RCC_OscConfig+0x41a>
 8004fe8:	e641      	b.n	8004c6e <HAL_RCC_OscConfig+0xc2>
 8004fea:	f7fd f82b 	bl	8002044 <HAL_GetTick>
 8004fee:	1bc0      	subs	r0, r0, r7
 8004ff0:	2802      	cmp	r0, #2
 8004ff2:	d9c3      	bls.n	8004f7c <HAL_RCC_OscConfig+0x3d0>
 8004ff4:	e63b      	b.n	8004c6e <HAL_RCC_OscConfig+0xc2>
 8004ff6:	fa93 f3a3 	rbit	r3, r3
 8004ffa:	fab3 f383 	clz	r3, r3
 8004ffe:	f103 5384 	add.w	r3, r3, #276824064	; 0x10800000
 8005002:	f503 1384 	add.w	r3, r3, #1081344	; 0x108000
 8005006:	009b      	lsls	r3, r3, #2
 8005008:	2200      	movs	r2, #0
 800500a:	601a      	str	r2, [r3, #0]
 800500c:	f7fd f81a 	bl	8002044 <HAL_GetTick>
 8005010:	f04f 7600 	mov.w	r6, #33554432	; 0x2000000
 8005014:	4605      	mov	r5, r0
 8005016:	2701      	movs	r7, #1
 8005018:	fa96 f3a6 	rbit	r3, r6
 800501c:	6822      	ldr	r2, [r4, #0]
 800501e:	fa96 f3a6 	rbit	r3, r6
 8005022:	fab3 f383 	clz	r3, r3
 8005026:	fa07 f303 	lsl.w	r3, r7, r3
 800502a:	4213      	tst	r3, r2
 800502c:	f43f add6 	beq.w	8004bdc <HAL_RCC_OscConfig+0x30>
 8005030:	f7fd f808 	bl	8002044 <HAL_GetTick>
 8005034:	1b40      	subs	r0, r0, r5
 8005036:	2802      	cmp	r0, #2
 8005038:	d9ee      	bls.n	8005018 <HAL_RCC_OscConfig+0x46c>
 800503a:	e618      	b.n	8004c6e <HAL_RCC_OscConfig+0xc2>
 800503c:	2801      	cmp	r0, #1
 800503e:	f43f ae17 	beq.w	8004c70 <HAL_RCC_OscConfig+0xc4>
 8005042:	6863      	ldr	r3, [r4, #4]
 8005044:	6a2a      	ldr	r2, [r5, #32]
 8005046:	f403 3180 	and.w	r1, r3, #65536	; 0x10000
 800504a:	4291      	cmp	r1, r2
 800504c:	f47f ade7 	bne.w	8004c1e <HAL_RCC_OscConfig+0x72>
 8005050:	6a6a      	ldr	r2, [r5, #36]	; 0x24
 8005052:	f403 1370 	and.w	r3, r3, #3932160	; 0x3c0000
 8005056:	4293      	cmp	r3, r2
 8005058:	f43f adc0 	beq.w	8004bdc <HAL_RCC_OscConfig+0x30>
 800505c:	e5df      	b.n	8004c1e <HAL_RCC_OscConfig+0x72>
 800505e:	bf00      	nop
 8005060:	40021000 	.word	0x40021000

08005064 <HAL_RCC_GetSysClockFreq>:
 8005064:	b510      	push	{r4, lr}
 8005066:	4c14      	ldr	r4, [pc, #80]	; (80050b8 <HAL_RCC_GetSysClockFreq+0x54>)
 8005068:	6861      	ldr	r1, [r4, #4]
 800506a:	f001 030c 	and.w	r3, r1, #12
 800506e:	2b08      	cmp	r3, #8
 8005070:	d11f      	bne.n	80050b2 <HAL_RCC_GetSysClockFreq+0x4e>
 8005072:	f44f 1370 	mov.w	r3, #3932160	; 0x3c0000
 8005076:	fa93 f3a3 	rbit	r3, r3
 800507a:	f401 1270 	and.w	r2, r1, #3932160	; 0x3c0000
 800507e:	fab3 f383 	clz	r3, r3
 8005082:	fa22 f303 	lsr.w	r3, r2, r3
 8005086:	4a0d      	ldr	r2, [pc, #52]	; (80050bc <HAL_RCC_GetSysClockFreq+0x58>)
 8005088:	5cd0      	ldrb	r0, [r2, r3]
 800508a:	6ae3      	ldr	r3, [r4, #44]	; 0x2c
 800508c:	220f      	movs	r2, #15
 800508e:	fa92 f2a2 	rbit	r2, r2
 8005092:	03c9      	lsls	r1, r1, #15
 8005094:	bf41      	itttt	mi
 8005096:	f003 030f 	andmi.w	r3, r3, #15
 800509a:	fab2 f282 	clzmi	r2, r2
 800509e:	40d3      	lsrmi	r3, r2
 80050a0:	4a07      	ldrmi	r2, [pc, #28]	; (80050c0 <HAL_RCC_GetSysClockFreq+0x5c>)
 80050a2:	bf51      	iteee	pl
 80050a4:	4b07      	ldrpl	r3, [pc, #28]	; (80050c4 <HAL_RCC_GetSysClockFreq+0x60>)
 80050a6:	5cd2      	ldrbmi	r2, [r2, r3]
 80050a8:	4b07      	ldrmi	r3, [pc, #28]	; (80050c8 <HAL_RCC_GetSysClockFreq+0x64>)
 80050aa:	fbb3 f3f2 	udivmi	r3, r3, r2
 80050ae:	4358      	muls	r0, r3
 80050b0:	bd10      	pop	{r4, pc}
 80050b2:	4805      	ldr	r0, [pc, #20]	; (80050c8 <HAL_RCC_GetSysClockFreq+0x64>)
 80050b4:	e7fc      	b.n	80050b0 <HAL_RCC_GetSysClockFreq+0x4c>
 80050b6:	bf00      	nop
 80050b8:	40021000 	.word	0x40021000
 80050bc:	0800789a 	.word	0x0800789a
 80050c0:	080078aa 	.word	0x080078aa
 80050c4:	003d0900 	.word	0x003d0900
 80050c8:	007a1200 	.word	0x007a1200

080050cc <HAL_RCC_ClockConfig>:
 80050cc:	e92d 41f0 	stmdb	sp!, {r4, r5, r6, r7, r8, lr}
 80050d0:	460d      	mov	r5, r1
 80050d2:	4604      	mov	r4, r0
 80050d4:	b910      	cbnz	r0, 80050dc <HAL_RCC_ClockConfig+0x10>
 80050d6:	2001      	movs	r0, #1
 80050d8:	e8bd 81f0 	ldmia.w	sp!, {r4, r5, r6, r7, r8, pc}
 80050dc:	4a4a      	ldr	r2, [pc, #296]	; (8005208 <HAL_RCC_ClockConfig+0x13c>)
 80050de:	6813      	ldr	r3, [r2, #0]
 80050e0:	f003 0307 	and.w	r3, r3, #7
 80050e4:	428b      	cmp	r3, r1
 80050e6:	d32e      	bcc.n	8005146 <HAL_RCC_ClockConfig+0x7a>
 80050e8:	6822      	ldr	r2, [r4, #0]
 80050ea:	0791      	lsls	r1, r2, #30
 80050ec:	d436      	bmi.n	800515c <HAL_RCC_ClockConfig+0x90>
 80050ee:	07d2      	lsls	r2, r2, #31
 80050f0:	d43c      	bmi.n	800516c <HAL_RCC_ClockConfig+0xa0>
 80050f2:	4a45      	ldr	r2, [pc, #276]	; (8005208 <HAL_RCC_ClockConfig+0x13c>)
 80050f4:	6813      	ldr	r3, [r2, #0]
 80050f6:	f003 0307 	and.w	r3, r3, #7
 80050fa:	42ab      	cmp	r3, r5
 80050fc:	d870      	bhi.n	80051e0 <HAL_RCC_ClockConfig+0x114>
 80050fe:	6822      	ldr	r2, [r4, #0]
 8005100:	4d42      	ldr	r5, [pc, #264]	; (800520c <HAL_RCC_ClockConfig+0x140>)
 8005102:	f012 0f04 	tst.w	r2, #4
 8005106:	d177      	bne.n	80051f8 <HAL_RCC_ClockConfig+0x12c>
 8005108:	0713      	lsls	r3, r2, #28
 800510a:	d506      	bpl.n	800511a <HAL_RCC_ClockConfig+0x4e>
 800510c:	686b      	ldr	r3, [r5, #4]
 800510e:	6922      	ldr	r2, [r4, #16]
 8005110:	f423 5360 	bic.w	r3, r3, #14336	; 0x3800
 8005114:	ea43 03c2 	orr.w	r3, r3, r2, lsl #3
 8005118:	606b      	str	r3, [r5, #4]
 800511a:	f7ff ffa3 	bl	8005064 <HAL_RCC_GetSysClockFreq>
 800511e:	686b      	ldr	r3, [r5, #4]
 8005120:	22f0      	movs	r2, #240	; 0xf0
 8005122:	fa92 f2a2 	rbit	r2, r2
 8005126:	fab2 f282 	clz	r2, r2
 800512a:	f003 03f0 	and.w	r3, r3, #240	; 0xf0
 800512e:	40d3      	lsrs	r3, r2
 8005130:	4a37      	ldr	r2, [pc, #220]	; (8005210 <HAL_RCC_ClockConfig+0x144>)
 8005132:	5cd3      	ldrb	r3, [r2, r3]
 8005134:	40d8      	lsrs	r0, r3
 8005136:	4b37      	ldr	r3, [pc, #220]	; (8005214 <HAL_RCC_ClockConfig+0x148>)
 8005138:	6018      	str	r0, [r3, #0]
 800513a:	4b37      	ldr	r3, [pc, #220]	; (8005218 <HAL_RCC_ClockConfig+0x14c>)
 800513c:	6818      	ldr	r0, [r3, #0]
 800513e:	f7fc ff3f 	bl	8001fc0 <HAL_InitTick>
 8005142:	2000      	movs	r0, #0
 8005144:	e7c8      	b.n	80050d8 <HAL_RCC_ClockConfig+0xc>
 8005146:	6813      	ldr	r3, [r2, #0]
 8005148:	f023 0307 	bic.w	r3, r3, #7
 800514c:	430b      	orrs	r3, r1
 800514e:	6013      	str	r3, [r2, #0]
 8005150:	6813      	ldr	r3, [r2, #0]
 8005152:	f003 0307 	and.w	r3, r3, #7
 8005156:	428b      	cmp	r3, r1
 8005158:	d1bd      	bne.n	80050d6 <HAL_RCC_ClockConfig+0xa>
 800515a:	e7c5      	b.n	80050e8 <HAL_RCC_ClockConfig+0x1c>
 800515c:	492b      	ldr	r1, [pc, #172]	; (800520c <HAL_RCC_ClockConfig+0x140>)
 800515e:	68a0      	ldr	r0, [r4, #8]
 8005160:	684b      	ldr	r3, [r1, #4]
 8005162:	f023 03f0 	bic.w	r3, r3, #240	; 0xf0
 8005166:	4303      	orrs	r3, r0
 8005168:	604b      	str	r3, [r1, #4]
 800516a:	e7c0      	b.n	80050ee <HAL_RCC_ClockConfig+0x22>
 800516c:	6862      	ldr	r2, [r4, #4]
 800516e:	4e27      	ldr	r6, [pc, #156]	; (800520c <HAL_RCC_ClockConfig+0x140>)
 8005170:	2a01      	cmp	r2, #1
 8005172:	d124      	bne.n	80051be <HAL_RCC_ClockConfig+0xf2>
 8005174:	f44f 3300 	mov.w	r3, #131072	; 0x20000
 8005178:	fa93 f1a3 	rbit	r1, r3
 800517c:	6831      	ldr	r1, [r6, #0]
 800517e:	fa93 f3a3 	rbit	r3, r3
 8005182:	fab3 f383 	clz	r3, r3
 8005186:	fa02 f303 	lsl.w	r3, r2, r3
 800518a:	420b      	tst	r3, r1
 800518c:	d0a3      	beq.n	80050d6 <HAL_RCC_ClockConfig+0xa>
 800518e:	6873      	ldr	r3, [r6, #4]
 8005190:	f023 0303 	bic.w	r3, r3, #3
 8005194:	4313      	orrs	r3, r2
 8005196:	6073      	str	r3, [r6, #4]
 8005198:	f7fc ff54 	bl	8002044 <HAL_GetTick>
 800519c:	f241 3888 	movw	r8, #5000	; 0x1388
 80051a0:	4607      	mov	r7, r0
 80051a2:	6873      	ldr	r3, [r6, #4]
 80051a4:	6862      	ldr	r2, [r4, #4]
 80051a6:	f003 030c 	and.w	r3, r3, #12
 80051aa:	ebb3 0f82 	cmp.w	r3, r2, lsl #2
 80051ae:	d0a0      	beq.n	80050f2 <HAL_RCC_ClockConfig+0x26>
 80051b0:	f7fc ff48 	bl	8002044 <HAL_GetTick>
 80051b4:	1bc0      	subs	r0, r0, r7
 80051b6:	4540      	cmp	r0, r8
 80051b8:	d9f3      	bls.n	80051a2 <HAL_RCC_ClockConfig+0xd6>
 80051ba:	2003      	movs	r0, #3
 80051bc:	e78c      	b.n	80050d8 <HAL_RCC_ClockConfig+0xc>
 80051be:	2a02      	cmp	r2, #2
 80051c0:	bf0c      	ite	eq
 80051c2:	f04f 7300 	moveq.w	r3, #33554432	; 0x2000000
 80051c6:	2302      	movne	r3, #2
 80051c8:	fa93 f1a3 	rbit	r1, r3
 80051cc:	6830      	ldr	r0, [r6, #0]
 80051ce:	fa93 f3a3 	rbit	r3, r3
 80051d2:	2101      	movs	r1, #1
 80051d4:	fab3 f383 	clz	r3, r3
 80051d8:	fa01 f303 	lsl.w	r3, r1, r3
 80051dc:	4203      	tst	r3, r0
 80051de:	e7d5      	b.n	800518c <HAL_RCC_ClockConfig+0xc0>
 80051e0:	6813      	ldr	r3, [r2, #0]
 80051e2:	f023 0307 	bic.w	r3, r3, #7
 80051e6:	432b      	orrs	r3, r5
 80051e8:	6013      	str	r3, [r2, #0]
 80051ea:	6813      	ldr	r3, [r2, #0]
 80051ec:	f003 0307 	and.w	r3, r3, #7
 80051f0:	42ab      	cmp	r3, r5
 80051f2:	f47f af70 	bne.w	80050d6 <HAL_RCC_ClockConfig+0xa>
 80051f6:	e782      	b.n	80050fe <HAL_RCC_ClockConfig+0x32>
 80051f8:	686b      	ldr	r3, [r5, #4]
 80051fa:	68e1      	ldr	r1, [r4, #12]
 80051fc:	f423 63e0 	bic.w	r3, r3, #1792	; 0x700
 8005200:	430b      	orrs	r3, r1
 8005202:	606b      	str	r3, [r5, #4]
 8005204:	e780      	b.n	8005108 <HAL_RCC_ClockConfig+0x3c>
 8005206:	bf00      	nop
 8005208:	40022000 	.word	0x40022000
 800520c:	40021000 	.word	0x40021000
 8005210:	08007882 	.word	0x08007882
 8005214:	2000000c 	.word	0x2000000c
 8005218:	20000014 	.word	0x20000014

0800521c <HAL_RCC_GetPCLK1Freq>:
 800521c:	4b08      	ldr	r3, [pc, #32]	; (8005240 <HAL_RCC_GetPCLK1Freq+0x24>)
 800521e:	f44f 62e0 	mov.w	r2, #1792	; 0x700
 8005222:	685b      	ldr	r3, [r3, #4]
 8005224:	fa92 f2a2 	rbit	r2, r2
 8005228:	fab2 f282 	clz	r2, r2
 800522c:	f403 63e0 	and.w	r3, r3, #1792	; 0x700
 8005230:	40d3      	lsrs	r3, r2
 8005232:	4a04      	ldr	r2, [pc, #16]	; (8005244 <HAL_RCC_GetPCLK1Freq+0x28>)
 8005234:	5cd3      	ldrb	r3, [r2, r3]
 8005236:	4a04      	ldr	r2, [pc, #16]	; (8005248 <HAL_RCC_GetPCLK1Freq+0x2c>)
 8005238:	6810      	ldr	r0, [r2, #0]
 800523a:	40d8      	lsrs	r0, r3
 800523c:	4770      	bx	lr
 800523e:	bf00      	nop
 8005240:	40021000 	.word	0x40021000
 8005244:	08007892 	.word	0x08007892
 8005248:	2000000c 	.word	0x2000000c

0800524c <HAL_RCC_GetPCLK2Freq>:
 800524c:	4b08      	ldr	r3, [pc, #32]	; (8005270 <HAL_RCC_GetPCLK2Freq+0x24>)
 800524e:	f44f 5260 	mov.w	r2, #14336	; 0x3800
 8005252:	685b      	ldr	r3, [r3, #4]
 8005254:	fa92 f2a2 	rbit	r2, r2
 8005258:	fab2 f282 	clz	r2, r2
 800525c:	f403 5360 	and.w	r3, r3, #14336	; 0x3800
 8005260:	40d3      	lsrs	r3, r2
 8005262:	4a04      	ldr	r2, [pc, #16]	; (8005274 <HAL_RCC_GetPCLK2Freq+0x28>)
 8005264:	5cd3      	ldrb	r3, [r2, r3]
 8005266:	4a04      	ldr	r2, [pc, #16]	; (8005278 <HAL_RCC_GetPCLK2Freq+0x2c>)
 8005268:	6810      	ldr	r0, [r2, #0]
 800526a:	40d8      	lsrs	r0, r3
 800526c:	4770      	bx	lr
 800526e:	bf00      	nop
 8005270:	40021000 	.word	0x40021000
 8005274:	08007892 	.word	0x08007892
 8005278:	2000000c 	.word	0x2000000c

0800527c <HAL_RCCEx_PeriphCLKConfig>:
 800527c:	6803      	ldr	r3, [r0, #0]
 800527e:	e92d 47f3 	stmdb	sp!, {r0, r1, r4, r5, r6, r7, r8, r9, sl, lr}
 8005282:	03dd      	lsls	r5, r3, #15
 8005284:	4604      	mov	r4, r0
 8005286:	d524      	bpl.n	80052d2 <HAL_RCCEx_PeriphCLKConfig+0x56>
 8005288:	4d79      	ldr	r5, [pc, #484]	; (8005470 <HAL_RCCEx_PeriphCLKConfig+0x1f4>)
 800528a:	69eb      	ldr	r3, [r5, #28]
 800528c:	00d8      	lsls	r0, r3, #3
 800528e:	f100 809b 	bmi.w	80053c8 <HAL_RCCEx_PeriphCLKConfig+0x14c>
 8005292:	69eb      	ldr	r3, [r5, #28]
 8005294:	f043 5380 	orr.w	r3, r3, #268435456	; 0x10000000
 8005298:	61eb      	str	r3, [r5, #28]
 800529a:	69eb      	ldr	r3, [r5, #28]
 800529c:	f003 5380 	and.w	r3, r3, #268435456	; 0x10000000
 80052a0:	9301      	str	r3, [sp, #4]
 80052a2:	9b01      	ldr	r3, [sp, #4]
 80052a4:	2601      	movs	r6, #1
 80052a6:	4f73      	ldr	r7, [pc, #460]	; (8005474 <HAL_RCCEx_PeriphCLKConfig+0x1f8>)
 80052a8:	683b      	ldr	r3, [r7, #0]
 80052aa:	05d9      	lsls	r1, r3, #23
 80052ac:	f140 808e 	bpl.w	80053cc <HAL_RCCEx_PeriphCLKConfig+0x150>
 80052b0:	6a2b      	ldr	r3, [r5, #32]
 80052b2:	6862      	ldr	r2, [r4, #4]
 80052b4:	f413 7340 	ands.w	r3, r3, #768	; 0x300
 80052b8:	f040 809d 	bne.w	80053f6 <HAL_RCCEx_PeriphCLKConfig+0x17a>
 80052bc:	6a2b      	ldr	r3, [r5, #32]
 80052be:	6862      	ldr	r2, [r4, #4]
 80052c0:	f423 7340 	bic.w	r3, r3, #768	; 0x300
 80052c4:	4313      	orrs	r3, r2
 80052c6:	622b      	str	r3, [r5, #32]
 80052c8:	b11e      	cbz	r6, 80052d2 <HAL_RCCEx_PeriphCLKConfig+0x56>
 80052ca:	69eb      	ldr	r3, [r5, #28]
 80052cc:	f023 5380 	bic.w	r3, r3, #268435456	; 0x10000000
 80052d0:	61eb      	str	r3, [r5, #28]
 80052d2:	6823      	ldr	r3, [r4, #0]
 80052d4:	07df      	lsls	r7, r3, #31
 80052d6:	d506      	bpl.n	80052e6 <HAL_RCCEx_PeriphCLKConfig+0x6a>
 80052d8:	4965      	ldr	r1, [pc, #404]	; (8005470 <HAL_RCCEx_PeriphCLKConfig+0x1f4>)
 80052da:	68a0      	ldr	r0, [r4, #8]
 80052dc:	6b0a      	ldr	r2, [r1, #48]	; 0x30
 80052de:	f022 0203 	bic.w	r2, r2, #3
 80052e2:	4302      	orrs	r2, r0
 80052e4:	630a      	str	r2, [r1, #48]	; 0x30
 80052e6:	079e      	lsls	r6, r3, #30
 80052e8:	d506      	bpl.n	80052f8 <HAL_RCCEx_PeriphCLKConfig+0x7c>
 80052ea:	4961      	ldr	r1, [pc, #388]	; (8005470 <HAL_RCCEx_PeriphCLKConfig+0x1f4>)
 80052ec:	68e0      	ldr	r0, [r4, #12]
 80052ee:	6b0a      	ldr	r2, [r1, #48]	; 0x30
 80052f0:	f422 3240 	bic.w	r2, r2, #196608	; 0x30000
 80052f4:	4302      	orrs	r2, r0
 80052f6:	630a      	str	r2, [r1, #48]	; 0x30
 80052f8:	075d      	lsls	r5, r3, #29
 80052fa:	d506      	bpl.n	800530a <HAL_RCCEx_PeriphCLKConfig+0x8e>
 80052fc:	495c      	ldr	r1, [pc, #368]	; (8005470 <HAL_RCCEx_PeriphCLKConfig+0x1f4>)
 80052fe:	6920      	ldr	r0, [r4, #16]
 8005300:	6b0a      	ldr	r2, [r1, #48]	; 0x30
 8005302:	f422 2240 	bic.w	r2, r2, #786432	; 0xc0000
 8005306:	4302      	orrs	r2, r0
 8005308:	630a      	str	r2, [r1, #48]	; 0x30
 800530a:	0698      	lsls	r0, r3, #26
 800530c:	d506      	bpl.n	800531c <HAL_RCCEx_PeriphCLKConfig+0xa0>
 800530e:	4958      	ldr	r1, [pc, #352]	; (8005470 <HAL_RCCEx_PeriphCLKConfig+0x1f4>)
 8005310:	69e0      	ldr	r0, [r4, #28]
 8005312:	6b0a      	ldr	r2, [r1, #48]	; 0x30
 8005314:	f022 0210 	bic.w	r2, r2, #16
 8005318:	4302      	orrs	r2, r0
 800531a:	630a      	str	r2, [r1, #48]	; 0x30
 800531c:	0399      	lsls	r1, r3, #14
 800531e:	d506      	bpl.n	800532e <HAL_RCCEx_PeriphCLKConfig+0xb2>
 8005320:	4953      	ldr	r1, [pc, #332]	; (8005470 <HAL_RCCEx_PeriphCLKConfig+0x1f4>)
 8005322:	6ba0      	ldr	r0, [r4, #56]	; 0x38
 8005324:	684a      	ldr	r2, [r1, #4]
 8005326:	f422 0280 	bic.w	r2, r2, #4194304	; 0x400000
 800532a:	4302      	orrs	r2, r0
 800532c:	604a      	str	r2, [r1, #4]
 800532e:	065a      	lsls	r2, r3, #25
 8005330:	d506      	bpl.n	8005340 <HAL_RCCEx_PeriphCLKConfig+0xc4>
 8005332:	494f      	ldr	r1, [pc, #316]	; (8005470 <HAL_RCCEx_PeriphCLKConfig+0x1f4>)
 8005334:	6a20      	ldr	r0, [r4, #32]
 8005336:	6b0a      	ldr	r2, [r1, #48]	; 0x30
 8005338:	f022 0220 	bic.w	r2, r2, #32
 800533c:	4302      	orrs	r2, r0
 800533e:	630a      	str	r2, [r1, #48]	; 0x30
 8005340:	071f      	lsls	r7, r3, #28
 8005342:	d506      	bpl.n	8005352 <HAL_RCCEx_PeriphCLKConfig+0xd6>
 8005344:	494a      	ldr	r1, [pc, #296]	; (8005470 <HAL_RCCEx_PeriphCLKConfig+0x1f4>)
 8005346:	6960      	ldr	r0, [r4, #20]
 8005348:	6b0a      	ldr	r2, [r1, #48]	; 0x30
 800534a:	f422 1240 	bic.w	r2, r2, #3145728	; 0x300000
 800534e:	4302      	orrs	r2, r0
 8005350:	630a      	str	r2, [r1, #48]	; 0x30
 8005352:	06de      	lsls	r6, r3, #27
 8005354:	d506      	bpl.n	8005364 <HAL_RCCEx_PeriphCLKConfig+0xe8>
 8005356:	4946      	ldr	r1, [pc, #280]	; (8005470 <HAL_RCCEx_PeriphCLKConfig+0x1f4>)
 8005358:	69a0      	ldr	r0, [r4, #24]
 800535a:	6b0a      	ldr	r2, [r1, #48]	; 0x30
 800535c:	f422 0240 	bic.w	r2, r2, #12582912	; 0xc00000
 8005360:	4302      	orrs	r2, r0
 8005362:	630a      	str	r2, [r1, #48]	; 0x30
 8005364:	059d      	lsls	r5, r3, #22
 8005366:	d506      	bpl.n	8005376 <HAL_RCCEx_PeriphCLKConfig+0xfa>
 8005368:	4941      	ldr	r1, [pc, #260]	; (8005470 <HAL_RCCEx_PeriphCLKConfig+0x1f4>)
 800536a:	6ae0      	ldr	r0, [r4, #44]	; 0x2c
 800536c:	684a      	ldr	r2, [r1, #4]
 800536e:	f422 0200 	bic.w	r2, r2, #8388608	; 0x800000
 8005372:	4302      	orrs	r2, r0
 8005374:	604a      	str	r2, [r1, #4]
 8005376:	0618      	lsls	r0, r3, #24
 8005378:	d506      	bpl.n	8005388 <HAL_RCCEx_PeriphCLKConfig+0x10c>
 800537a:	493d      	ldr	r1, [pc, #244]	; (8005470 <HAL_RCCEx_PeriphCLKConfig+0x1f4>)
 800537c:	6a60      	ldr	r0, [r4, #36]	; 0x24
 800537e:	6aca      	ldr	r2, [r1, #44]	; 0x2c
 8005380:	f422 72f8 	bic.w	r2, r2, #496	; 0x1f0
 8005384:	4302      	orrs	r2, r0
 8005386:	62ca      	str	r2, [r1, #44]	; 0x2c
 8005388:	05d9      	lsls	r1, r3, #23
 800538a:	d506      	bpl.n	800539a <HAL_RCCEx_PeriphCLKConfig+0x11e>
 800538c:	4938      	ldr	r1, [pc, #224]	; (8005470 <HAL_RCCEx_PeriphCLKConfig+0x1f4>)
 800538e:	6aa0      	ldr	r0, [r4, #40]	; 0x28
 8005390:	6aca      	ldr	r2, [r1, #44]	; 0x2c
 8005392:	f422 5278 	bic.w	r2, r2, #15872	; 0x3e00
 8005396:	4302      	orrs	r2, r0
 8005398:	62ca      	str	r2, [r1, #44]	; 0x2c
 800539a:	04da      	lsls	r2, r3, #19
 800539c:	d506      	bpl.n	80053ac <HAL_RCCEx_PeriphCLKConfig+0x130>
 800539e:	4934      	ldr	r1, [pc, #208]	; (8005470 <HAL_RCCEx_PeriphCLKConfig+0x1f4>)
 80053a0:	6b20      	ldr	r0, [r4, #48]	; 0x30
 80053a2:	6b0a      	ldr	r2, [r1, #48]	; 0x30
 80053a4:	f422 7280 	bic.w	r2, r2, #256	; 0x100
 80053a8:	4302      	orrs	r2, r0
 80053aa:	630a      	str	r2, [r1, #48]	; 0x30
 80053ac:	f413 5300 	ands.w	r3, r3, #8192	; 0x2000
 80053b0:	bf1f      	itttt	ne
 80053b2:	4a2f      	ldrne	r2, [pc, #188]	; (8005470 <HAL_RCCEx_PeriphCLKConfig+0x1f4>)
 80053b4:	6b61      	ldrne	r1, [r4, #52]	; 0x34
 80053b6:	6b13      	ldrne	r3, [r2, #48]	; 0x30
 80053b8:	f423 7300 	bicne.w	r3, r3, #512	; 0x200
 80053bc:	bf1d      	ittte	ne
 80053be:	430b      	orrne	r3, r1
 80053c0:	6313      	strne	r3, [r2, #48]	; 0x30
 80053c2:	2000      	movne	r0, #0
 80053c4:	4618      	moveq	r0, r3
 80053c6:	e013      	b.n	80053f0 <HAL_RCCEx_PeriphCLKConfig+0x174>
 80053c8:	2600      	movs	r6, #0
 80053ca:	e76c      	b.n	80052a6 <HAL_RCCEx_PeriphCLKConfig+0x2a>
 80053cc:	683b      	ldr	r3, [r7, #0]
 80053ce:	f443 7380 	orr.w	r3, r3, #256	; 0x100
 80053d2:	603b      	str	r3, [r7, #0]
 80053d4:	f7fc fe36 	bl	8002044 <HAL_GetTick>
 80053d8:	4680      	mov	r8, r0
 80053da:	683b      	ldr	r3, [r7, #0]
 80053dc:	05da      	lsls	r2, r3, #23
 80053de:	f53f af67 	bmi.w	80052b0 <HAL_RCCEx_PeriphCLKConfig+0x34>
 80053e2:	f7fc fe2f 	bl	8002044 <HAL_GetTick>
 80053e6:	eba0 0008 	sub.w	r0, r0, r8
 80053ea:	2864      	cmp	r0, #100	; 0x64
 80053ec:	d9f5      	bls.n	80053da <HAL_RCCEx_PeriphCLKConfig+0x15e>
 80053ee:	2003      	movs	r0, #3
 80053f0:	b002      	add	sp, #8
 80053f2:	e8bd 87f0 	ldmia.w	sp!, {r4, r5, r6, r7, r8, r9, sl, pc}
 80053f6:	f402 7240 	and.w	r2, r2, #768	; 0x300
 80053fa:	429a      	cmp	r2, r3
 80053fc:	f43f af5e 	beq.w	80052bc <HAL_RCCEx_PeriphCLKConfig+0x40>
 8005400:	6a29      	ldr	r1, [r5, #32]
 8005402:	f44f 3380 	mov.w	r3, #65536	; 0x10000
 8005406:	f421 7040 	bic.w	r0, r1, #768	; 0x300
 800540a:	fa93 f2a3 	rbit	r2, r3
 800540e:	f8df c068 	ldr.w	ip, [pc, #104]	; 8005478 <HAL_RCCEx_PeriphCLKConfig+0x1fc>
 8005412:	fab2 f282 	clz	r2, r2
 8005416:	4462      	add	r2, ip
 8005418:	0092      	lsls	r2, r2, #2
 800541a:	2701      	movs	r7, #1
 800541c:	6017      	str	r7, [r2, #0]
 800541e:	fa93 f3a3 	rbit	r3, r3
 8005422:	fab3 f383 	clz	r3, r3
 8005426:	4463      	add	r3, ip
 8005428:	009b      	lsls	r3, r3, #2
 800542a:	2200      	movs	r2, #0
 800542c:	601a      	str	r2, [r3, #0]
 800542e:	07cb      	lsls	r3, r1, #31
 8005430:	6228      	str	r0, [r5, #32]
 8005432:	f57f af43 	bpl.w	80052bc <HAL_RCCEx_PeriphCLKConfig+0x40>
 8005436:	f7fc fe05 	bl	8002044 <HAL_GetTick>
 800543a:	f04f 0802 	mov.w	r8, #2
 800543e:	4681      	mov	r9, r0
 8005440:	f241 3a88 	movw	sl, #5000	; 0x1388
 8005444:	fa98 f3a8 	rbit	r3, r8
 8005448:	fa98 f3a8 	rbit	r3, r8
 800544c:	6a2a      	ldr	r2, [r5, #32]
 800544e:	fa98 f3a8 	rbit	r3, r8
 8005452:	fab3 f383 	clz	r3, r3
 8005456:	fa07 f303 	lsl.w	r3, r7, r3
 800545a:	4213      	tst	r3, r2
 800545c:	f47f af2e 	bne.w	80052bc <HAL_RCCEx_PeriphCLKConfig+0x40>
 8005460:	f7fc fdf0 	bl	8002044 <HAL_GetTick>
 8005464:	eba0 0009 	sub.w	r0, r0, r9
 8005468:	4550      	cmp	r0, sl
 800546a:	d9eb      	bls.n	8005444 <HAL_RCCEx_PeriphCLKConfig+0x1c8>
 800546c:	e7bf      	b.n	80053ee <HAL_RCCEx_PeriphCLKConfig+0x172>
 800546e:	bf00      	nop
 8005470:	40021000 	.word	0x40021000
 8005474:	40007000 	.word	0x40007000
 8005478:	10908100 	.word	0x10908100

0800547c <HAL_RTC_WaitForSynchro>:
 800547c:	b538      	push	{r3, r4, r5, lr}
 800547e:	6803      	ldr	r3, [r0, #0]
 8005480:	4a09      	ldr	r2, [pc, #36]	; (80054a8 <HAL_RTC_WaitForSynchro+0x2c>)
 8005482:	60da      	str	r2, [r3, #12]
 8005484:	4604      	mov	r4, r0
 8005486:	f7fc fddd 	bl	8002044 <HAL_GetTick>
 800548a:	4605      	mov	r5, r0
 800548c:	6823      	ldr	r3, [r4, #0]
 800548e:	68db      	ldr	r3, [r3, #12]
 8005490:	069b      	lsls	r3, r3, #26
 8005492:	d501      	bpl.n	8005498 <HAL_RTC_WaitForSynchro+0x1c>
 8005494:	2000      	movs	r0, #0
 8005496:	bd38      	pop	{r3, r4, r5, pc}
 8005498:	f7fc fdd4 	bl	8002044 <HAL_GetTick>
 800549c:	1b40      	subs	r0, r0, r5
 800549e:	f5b0 7f7a 	cmp.w	r0, #1000	; 0x3e8
 80054a2:	d9f3      	bls.n	800548c <HAL_RTC_WaitForSynchro+0x10>
 80054a4:	2003      	movs	r0, #3
 80054a6:	e7f6      	b.n	8005496 <HAL_RTC_WaitForSynchro+0x1a>
 80054a8:	0001ff5f 	.word	0x0001ff5f

080054ac <RTC_EnterInitMode>:
 80054ac:	b5f8      	push	{r3, r4, r5, r6, r7, lr}
 80054ae:	6803      	ldr	r3, [r0, #0]
 80054b0:	68dc      	ldr	r4, [r3, #12]
 80054b2:	f014 0440 	ands.w	r4, r4, #64	; 0x40
 80054b6:	4605      	mov	r5, r0
 80054b8:	d117      	bne.n	80054ea <RTC_EnterInitMode+0x3e>
 80054ba:	68da      	ldr	r2, [r3, #12]
 80054bc:	f042 0280 	orr.w	r2, r2, #128	; 0x80
 80054c0:	60da      	str	r2, [r3, #12]
 80054c2:	f7fc fdbf 	bl	8002044 <HAL_GetTick>
 80054c6:	2704      	movs	r7, #4
 80054c8:	4606      	mov	r6, r0
 80054ca:	682b      	ldr	r3, [r5, #0]
 80054cc:	68db      	ldr	r3, [r3, #12]
 80054ce:	065b      	lsls	r3, r3, #25
 80054d0:	d400      	bmi.n	80054d4 <RTC_EnterInitMode+0x28>
 80054d2:	b10c      	cbz	r4, 80054d8 <RTC_EnterInitMode+0x2c>
 80054d4:	4620      	mov	r0, r4
 80054d6:	bdf8      	pop	{r3, r4, r5, r6, r7, pc}
 80054d8:	f7fc fdb4 	bl	8002044 <HAL_GetTick>
 80054dc:	1b80      	subs	r0, r0, r6
 80054de:	f5b0 7f7a 	cmp.w	r0, #1000	; 0x3e8
 80054e2:	bf84      	itt	hi
 80054e4:	776f      	strbhi	r7, [r5, #29]
 80054e6:	2401      	movhi	r4, #1
 80054e8:	e7ef      	b.n	80054ca <RTC_EnterInitMode+0x1e>
 80054ea:	2400      	movs	r4, #0
 80054ec:	e7f2      	b.n	80054d4 <RTC_EnterInitMode+0x28>

080054ee <RTC_ExitInitMode>:
 80054ee:	6803      	ldr	r3, [r0, #0]
 80054f0:	68da      	ldr	r2, [r3, #12]
 80054f2:	f022 0280 	bic.w	r2, r2, #128	; 0x80
 80054f6:	b510      	push	{r4, lr}
 80054f8:	60da      	str	r2, [r3, #12]
 80054fa:	689b      	ldr	r3, [r3, #8]
 80054fc:	069b      	lsls	r3, r3, #26
 80054fe:	4604      	mov	r4, r0
 8005500:	d501      	bpl.n	8005506 <RTC_ExitInitMode+0x18>
 8005502:	2000      	movs	r0, #0
 8005504:	bd10      	pop	{r4, pc}
 8005506:	f7ff ffb9 	bl	800547c <HAL_RTC_WaitForSynchro>
 800550a:	2800      	cmp	r0, #0
 800550c:	d0f9      	beq.n	8005502 <RTC_ExitInitMode+0x14>
 800550e:	2304      	movs	r3, #4
 8005510:	7763      	strb	r3, [r4, #29]
 8005512:	2001      	movs	r0, #1
 8005514:	e7f6      	b.n	8005504 <RTC_ExitInitMode+0x16>

08005516 <HAL_RTC_Init>:
 8005516:	b510      	push	{r4, lr}
 8005518:	4604      	mov	r4, r0
 800551a:	2800      	cmp	r0, #0
 800551c:	d041      	beq.n	80055a2 <HAL_RTC_Init+0x8c>
 800551e:	7f43      	ldrb	r3, [r0, #29]
 8005520:	f003 02ff 	and.w	r2, r3, #255	; 0xff
 8005524:	b913      	cbnz	r3, 800552c <HAL_RTC_Init+0x16>
 8005526:	7702      	strb	r2, [r0, #28]
 8005528:	f7fc fac8 	bl	8001abc <HAL_RTC_MspInit>
 800552c:	2302      	movs	r3, #2
 800552e:	7763      	strb	r3, [r4, #29]
 8005530:	6823      	ldr	r3, [r4, #0]
 8005532:	68da      	ldr	r2, [r3, #12]
 8005534:	06d2      	lsls	r2, r2, #27
 8005536:	d503      	bpl.n	8005540 <HAL_RTC_Init+0x2a>
 8005538:	2301      	movs	r3, #1
 800553a:	7763      	strb	r3, [r4, #29]
 800553c:	2000      	movs	r0, #0
 800553e:	bd10      	pop	{r4, pc}
 8005540:	22ca      	movs	r2, #202	; 0xca
 8005542:	625a      	str	r2, [r3, #36]	; 0x24
 8005544:	2253      	movs	r2, #83	; 0x53
 8005546:	625a      	str	r2, [r3, #36]	; 0x24
 8005548:	4620      	mov	r0, r4
 800554a:	f7ff ffaf 	bl	80054ac <RTC_EnterInitMode>
 800554e:	bb10      	cbnz	r0, 8005596 <HAL_RTC_Init+0x80>
 8005550:	6823      	ldr	r3, [r4, #0]
 8005552:	6920      	ldr	r0, [r4, #16]
 8005554:	689a      	ldr	r2, [r3, #8]
 8005556:	f422 02e0 	bic.w	r2, r2, #7340032	; 0x700000
 800555a:	f022 0240 	bic.w	r2, r2, #64	; 0x40
 800555e:	609a      	str	r2, [r3, #8]
 8005560:	6862      	ldr	r2, [r4, #4]
 8005562:	6899      	ldr	r1, [r3, #8]
 8005564:	4302      	orrs	r2, r0
 8005566:	6960      	ldr	r0, [r4, #20]
 8005568:	4302      	orrs	r2, r0
 800556a:	430a      	orrs	r2, r1
 800556c:	609a      	str	r2, [r3, #8]
 800556e:	68e2      	ldr	r2, [r4, #12]
 8005570:	611a      	str	r2, [r3, #16]
 8005572:	691a      	ldr	r2, [r3, #16]
 8005574:	68a1      	ldr	r1, [r4, #8]
 8005576:	ea42 4201 	orr.w	r2, r2, r1, lsl #16
 800557a:	611a      	str	r2, [r3, #16]
 800557c:	4620      	mov	r0, r4
 800557e:	f7ff ffb6 	bl	80054ee <RTC_ExitInitMode>
 8005582:	b940      	cbnz	r0, 8005596 <HAL_RTC_Init+0x80>
 8005584:	6823      	ldr	r3, [r4, #0]
 8005586:	69a1      	ldr	r1, [r4, #24]
 8005588:	6c1a      	ldr	r2, [r3, #64]	; 0x40
 800558a:	f422 2280 	bic.w	r2, r2, #262144	; 0x40000
 800558e:	641a      	str	r2, [r3, #64]	; 0x40
 8005590:	6c1a      	ldr	r2, [r3, #64]	; 0x40
 8005592:	430a      	orrs	r2, r1
 8005594:	641a      	str	r2, [r3, #64]	; 0x40
 8005596:	6823      	ldr	r3, [r4, #0]
 8005598:	22ff      	movs	r2, #255	; 0xff
 800559a:	625a      	str	r2, [r3, #36]	; 0x24
 800559c:	2800      	cmp	r0, #0
 800559e:	d0cb      	beq.n	8005538 <HAL_RTC_Init+0x22>
 80055a0:	e7cd      	b.n	800553e <HAL_RTC_Init+0x28>
 80055a2:	2001      	movs	r0, #1
 80055a4:	e7cb      	b.n	800553e <HAL_RTC_Init+0x28>

080055a6 <RTC_ByteToBcd2>:
 80055a6:	2300      	movs	r3, #0
 80055a8:	2809      	cmp	r0, #9
 80055aa:	d803      	bhi.n	80055b4 <RTC_ByteToBcd2+0xe>
 80055ac:	ea40 1003 	orr.w	r0, r0, r3, lsl #4
 80055b0:	b2c0      	uxtb	r0, r0
 80055b2:	4770      	bx	lr
 80055b4:	380a      	subs	r0, #10
 80055b6:	3301      	adds	r3, #1
 80055b8:	b2c0      	uxtb	r0, r0
 80055ba:	e7f5      	b.n	80055a8 <RTC_ByteToBcd2+0x2>

080055bc <HAL_RTC_SetTime>:
 80055bc:	e92d 41f0 	stmdb	sp!, {r4, r5, r6, r7, r8, lr}
 80055c0:	7f03      	ldrb	r3, [r0, #28]
 80055c2:	2b01      	cmp	r3, #1
 80055c4:	4606      	mov	r6, r0
 80055c6:	460f      	mov	r7, r1
 80055c8:	f04f 0002 	mov.w	r0, #2
 80055cc:	d041      	beq.n	8005652 <HAL_RTC_SetTime+0x96>
 80055ce:	2301      	movs	r3, #1
 80055d0:	6831      	ldr	r1, [r6, #0]
 80055d2:	7733      	strb	r3, [r6, #28]
 80055d4:	7770      	strb	r0, [r6, #29]
 80055d6:	7838      	ldrb	r0, [r7, #0]
 80055d8:	787d      	ldrb	r5, [r7, #1]
 80055da:	78bc      	ldrb	r4, [r7, #2]
 80055dc:	688b      	ldr	r3, [r1, #8]
 80055de:	2a00      	cmp	r2, #0
 80055e0:	d139      	bne.n	8005656 <HAL_RTC_SetTime+0x9a>
 80055e2:	f013 0340 	ands.w	r3, r3, #64	; 0x40
 80055e6:	bf08      	it	eq
 80055e8:	70fb      	strbeq	r3, [r7, #3]
 80055ea:	f7ff ffdc 	bl	80055a6 <RTC_ByteToBcd2>
 80055ee:	4680      	mov	r8, r0
 80055f0:	4628      	mov	r0, r5
 80055f2:	f7ff ffd8 	bl	80055a6 <RTC_ByteToBcd2>
 80055f6:	4602      	mov	r2, r0
 80055f8:	4620      	mov	r0, r4
 80055fa:	f7ff ffd4 	bl	80055a6 <RTC_ByteToBcd2>
 80055fe:	78fb      	ldrb	r3, [r7, #3]
 8005600:	ea40 5383 	orr.w	r3, r0, r3, lsl #22
 8005604:	ea43 4308 	orr.w	r3, r3, r8, lsl #16
 8005608:	ea43 2402 	orr.w	r4, r3, r2, lsl #8
 800560c:	23ca      	movs	r3, #202	; 0xca
 800560e:	624b      	str	r3, [r1, #36]	; 0x24
 8005610:	2353      	movs	r3, #83	; 0x53
 8005612:	624b      	str	r3, [r1, #36]	; 0x24
 8005614:	4630      	mov	r0, r6
 8005616:	f7ff ff49 	bl	80054ac <RTC_EnterInitMode>
 800561a:	b9a8      	cbnz	r0, 8005648 <HAL_RTC_SetTime+0x8c>
 800561c:	6832      	ldr	r2, [r6, #0]
 800561e:	f004 347f 	and.w	r4, r4, #2139062143	; 0x7f7f7f7f
 8005622:	f024 44fe 	bic.w	r4, r4, #2130706432	; 0x7f000000
 8005626:	6014      	str	r4, [r2, #0]
 8005628:	6893      	ldr	r3, [r2, #8]
 800562a:	f423 2380 	bic.w	r3, r3, #262144	; 0x40000
 800562e:	6093      	str	r3, [r2, #8]
 8005630:	e9d7 3003 	ldrd	r3, r0, [r7, #12]
 8005634:	6891      	ldr	r1, [r2, #8]
 8005636:	4303      	orrs	r3, r0
 8005638:	430b      	orrs	r3, r1
 800563a:	6093      	str	r3, [r2, #8]
 800563c:	4630      	mov	r0, r6
 800563e:	f7ff ff56 	bl	80054ee <RTC_ExitInitMode>
 8005642:	b908      	cbnz	r0, 8005648 <HAL_RTC_SetTime+0x8c>
 8005644:	2301      	movs	r3, #1
 8005646:	7773      	strb	r3, [r6, #29]
 8005648:	6833      	ldr	r3, [r6, #0]
 800564a:	22ff      	movs	r2, #255	; 0xff
 800564c:	625a      	str	r2, [r3, #36]	; 0x24
 800564e:	2300      	movs	r3, #0
 8005650:	7733      	strb	r3, [r6, #28]
 8005652:	e8bd 81f0 	ldmia.w	sp!, {r4, r5, r6, r7, r8, pc}
 8005656:	f013 0340 	ands.w	r3, r3, #64	; 0x40
 800565a:	bf08      	it	eq
 800565c:	70fb      	strbeq	r3, [r7, #3]
 800565e:	022d      	lsls	r5, r5, #8
 8005660:	78fa      	ldrb	r2, [r7, #3]
 8005662:	ea45 4500 	orr.w	r5, r5, r0, lsl #16
 8005666:	ea45 0304 	orr.w	r3, r5, r4
 800566a:	ea43 5482 	orr.w	r4, r3, r2, lsl #22
 800566e:	e7cd      	b.n	800560c <HAL_RTC_SetTime+0x50>

08005670 <HAL_RTC_SetDate>:
 8005670:	b5f8      	push	{r3, r4, r5, r6, r7, lr}
 8005672:	7f03      	ldrb	r3, [r0, #28]
 8005674:	2b01      	cmp	r3, #1
 8005676:	4605      	mov	r5, r0
 8005678:	f04f 0302 	mov.w	r3, #2
 800567c:	d039      	beq.n	80056f2 <HAL_RTC_SetDate+0x82>
 800567e:	2001      	movs	r0, #1
 8005680:	7728      	strb	r0, [r5, #28]
 8005682:	776b      	strb	r3, [r5, #29]
 8005684:	780c      	ldrb	r4, [r1, #0]
 8005686:	78c8      	ldrb	r0, [r1, #3]
 8005688:	784e      	ldrb	r6, [r1, #1]
 800568a:	788f      	ldrb	r7, [r1, #2]
 800568c:	0364      	lsls	r4, r4, #13
 800568e:	bb92      	cbnz	r2, 80056f6 <HAL_RTC_SetDate+0x86>
 8005690:	06f3      	lsls	r3, r6, #27
 8005692:	d503      	bpl.n	800569c <HAL_RTC_SetDate+0x2c>
 8005694:	f026 0610 	bic.w	r6, r6, #16
 8005698:	360a      	adds	r6, #10
 800569a:	704e      	strb	r6, [r1, #1]
 800569c:	f7ff ff83 	bl	80055a6 <RTC_ByteToBcd2>
 80056a0:	4606      	mov	r6, r0
 80056a2:	7848      	ldrb	r0, [r1, #1]
 80056a4:	f7ff ff7f 	bl	80055a6 <RTC_ByteToBcd2>
 80056a8:	4602      	mov	r2, r0
 80056aa:	4638      	mov	r0, r7
 80056ac:	f7ff ff7b 	bl	80055a6 <RTC_ByteToBcd2>
 80056b0:	ea40 0304 	orr.w	r3, r0, r4
 80056b4:	ea43 4306 	orr.w	r3, r3, r6, lsl #16
 80056b8:	ea43 2402 	orr.w	r4, r3, r2, lsl #8
 80056bc:	682b      	ldr	r3, [r5, #0]
 80056be:	22ca      	movs	r2, #202	; 0xca
 80056c0:	625a      	str	r2, [r3, #36]	; 0x24
 80056c2:	2253      	movs	r2, #83	; 0x53
 80056c4:	625a      	str	r2, [r3, #36]	; 0x24
 80056c6:	4628      	mov	r0, r5
 80056c8:	f7ff fef0 	bl	80054ac <RTC_EnterInitMode>
 80056cc:	b958      	cbnz	r0, 80056e6 <HAL_RTC_SetDate+0x76>
 80056ce:	682a      	ldr	r2, [r5, #0]
 80056d0:	f024 447f 	bic.w	r4, r4, #4278190080	; 0xff000000
 80056d4:	f024 04c0 	bic.w	r4, r4, #192	; 0xc0
 80056d8:	6054      	str	r4, [r2, #4]
 80056da:	4628      	mov	r0, r5
 80056dc:	f7ff ff07 	bl	80054ee <RTC_ExitInitMode>
 80056e0:	b908      	cbnz	r0, 80056e6 <HAL_RTC_SetDate+0x76>
 80056e2:	2301      	movs	r3, #1
 80056e4:	776b      	strb	r3, [r5, #29]
 80056e6:	682b      	ldr	r3, [r5, #0]
 80056e8:	22ff      	movs	r2, #255	; 0xff
 80056ea:	625a      	str	r2, [r3, #36]	; 0x24
 80056ec:	2300      	movs	r3, #0
 80056ee:	772b      	strb	r3, [r5, #28]
 80056f0:	bdf8      	pop	{r3, r4, r5, r6, r7, pc}
 80056f2:	4618      	mov	r0, r3
 80056f4:	e7fc      	b.n	80056f0 <HAL_RTC_SetDate+0x80>
 80056f6:	ea44 4400 	orr.w	r4, r4, r0, lsl #16
 80056fa:	433c      	orrs	r4, r7
 80056fc:	ea44 2406 	orr.w	r4, r4, r6, lsl #8
 8005700:	e7dc      	b.n	80056bc <HAL_RTC_SetDate+0x4c>

08005702 <RTC_Bcd2ToByte>:
 8005702:	0903      	lsrs	r3, r0, #4
 8005704:	eb03 0383 	add.w	r3, r3, r3, lsl #2
 8005708:	f000 000f 	and.w	r0, r0, #15
 800570c:	eb00 0043 	add.w	r0, r0, r3, lsl #1
 8005710:	b2c0      	uxtb	r0, r0
 8005712:	4770      	bx	lr

08005714 <HAL_RTC_GetTime>:
 8005714:	b538      	push	{r3, r4, r5, lr}
 8005716:	6803      	ldr	r3, [r0, #0]
 8005718:	6a98      	ldr	r0, [r3, #40]	; 0x28
 800571a:	6048      	str	r0, [r1, #4]
 800571c:	6918      	ldr	r0, [r3, #16]
 800571e:	681b      	ldr	r3, [r3, #0]
 8005720:	f3c0 000e 	ubfx	r0, r0, #0, #15
 8005724:	f3c3 2506 	ubfx	r5, r3, #8, #7
 8005728:	f003 047f 	and.w	r4, r3, #127	; 0x7f
 800572c:	6088      	str	r0, [r1, #8]
 800572e:	f3c3 4005 	ubfx	r0, r3, #16, #6
 8005732:	f3c3 5380 	ubfx	r3, r3, #22, #1
 8005736:	7008      	strb	r0, [r1, #0]
 8005738:	704d      	strb	r5, [r1, #1]
 800573a:	708c      	strb	r4, [r1, #2]
 800573c:	70cb      	strb	r3, [r1, #3]
 800573e:	b952      	cbnz	r2, 8005756 <HAL_RTC_GetTime+0x42>
 8005740:	f7ff ffdf 	bl	8005702 <RTC_Bcd2ToByte>
 8005744:	7008      	strb	r0, [r1, #0]
 8005746:	4628      	mov	r0, r5
 8005748:	f7ff ffdb 	bl	8005702 <RTC_Bcd2ToByte>
 800574c:	7048      	strb	r0, [r1, #1]
 800574e:	4620      	mov	r0, r4
 8005750:	f7ff ffd7 	bl	8005702 <RTC_Bcd2ToByte>
 8005754:	7088      	strb	r0, [r1, #2]
 8005756:	2000      	movs	r0, #0
 8005758:	bd38      	pop	{r3, r4, r5, pc}

0800575a <HAL_RTC_GetDate>:
 800575a:	b538      	push	{r3, r4, r5, lr}
 800575c:	6803      	ldr	r3, [r0, #0]
 800575e:	685b      	ldr	r3, [r3, #4]
 8005760:	f3c3 4007 	ubfx	r0, r3, #16, #8
 8005764:	f3c3 2504 	ubfx	r5, r3, #8, #5
 8005768:	f003 043f 	and.w	r4, r3, #63	; 0x3f
 800576c:	f3c3 3342 	ubfx	r3, r3, #13, #3
 8005770:	70c8      	strb	r0, [r1, #3]
 8005772:	704d      	strb	r5, [r1, #1]
 8005774:	708c      	strb	r4, [r1, #2]
 8005776:	700b      	strb	r3, [r1, #0]
 8005778:	b952      	cbnz	r2, 8005790 <HAL_RTC_GetDate+0x36>
 800577a:	f7ff ffc2 	bl	8005702 <RTC_Bcd2ToByte>
 800577e:	70c8      	strb	r0, [r1, #3]
 8005780:	4628      	mov	r0, r5
 8005782:	f7ff ffbe 	bl	8005702 <RTC_Bcd2ToByte>
 8005786:	7048      	strb	r0, [r1, #1]
 8005788:	4620      	mov	r0, r4
 800578a:	f7ff ffba 	bl	8005702 <RTC_Bcd2ToByte>
 800578e:	7088      	strb	r0, [r1, #2]
 8005790:	2000      	movs	r0, #0
 8005792:	bd38      	pop	{r3, r4, r5, pc}

08005794 <TIM_OC1_SetConfig>:
 8005794:	6a03      	ldr	r3, [r0, #32]
 8005796:	f023 0301 	bic.w	r3, r3, #1
 800579a:	6203      	str	r3, [r0, #32]
 800579c:	6a03      	ldr	r3, [r0, #32]
 800579e:	b570      	push	{r4, r5, r6, lr}
 80057a0:	6844      	ldr	r4, [r0, #4]
 80057a2:	6982      	ldr	r2, [r0, #24]
 80057a4:	680d      	ldr	r5, [r1, #0]
 80057a6:	f422 3280 	bic.w	r2, r2, #65536	; 0x10000
 80057aa:	f022 0273 	bic.w	r2, r2, #115	; 0x73
 80057ae:	432a      	orrs	r2, r5
 80057b0:	688d      	ldr	r5, [r1, #8]
 80057b2:	f023 0302 	bic.w	r3, r3, #2
 80057b6:	432b      	orrs	r3, r5
 80057b8:	4d1b      	ldr	r5, [pc, #108]	; (8005828 <TIM_OC1_SetConfig+0x94>)
 80057ba:	42a8      	cmp	r0, r5
 80057bc:	d00f      	beq.n	80057de <TIM_OC1_SetConfig+0x4a>
 80057be:	f505 6500 	add.w	r5, r5, #2048	; 0x800
 80057c2:	42a8      	cmp	r0, r5
 80057c4:	d00b      	beq.n	80057de <TIM_OC1_SetConfig+0x4a>
 80057c6:	f505 6540 	add.w	r5, r5, #3072	; 0xc00
 80057ca:	42a8      	cmp	r0, r5
 80057cc:	d007      	beq.n	80057de <TIM_OC1_SetConfig+0x4a>
 80057ce:	f505 6580 	add.w	r5, r5, #1024	; 0x400
 80057d2:	42a8      	cmp	r0, r5
 80057d4:	d003      	beq.n	80057de <TIM_OC1_SetConfig+0x4a>
 80057d6:	f505 6580 	add.w	r5, r5, #1024	; 0x400
 80057da:	42a8      	cmp	r0, r5
 80057dc:	d11e      	bne.n	800581c <TIM_OC1_SetConfig+0x88>
 80057de:	68cd      	ldr	r5, [r1, #12]
 80057e0:	f023 0308 	bic.w	r3, r3, #8
 80057e4:	432b      	orrs	r3, r5
 80057e6:	4d10      	ldr	r5, [pc, #64]	; (8005828 <TIM_OC1_SetConfig+0x94>)
 80057e8:	42a8      	cmp	r0, r5
 80057ea:	f023 0304 	bic.w	r3, r3, #4
 80057ee:	d00f      	beq.n	8005810 <TIM_OC1_SetConfig+0x7c>
 80057f0:	f505 6500 	add.w	r5, r5, #2048	; 0x800
 80057f4:	42a8      	cmp	r0, r5
 80057f6:	d00b      	beq.n	8005810 <TIM_OC1_SetConfig+0x7c>
 80057f8:	f505 6540 	add.w	r5, r5, #3072	; 0xc00
 80057fc:	42a8      	cmp	r0, r5
 80057fe:	d007      	beq.n	8005810 <TIM_OC1_SetConfig+0x7c>
 8005800:	f505 6580 	add.w	r5, r5, #1024	; 0x400
 8005804:	42a8      	cmp	r0, r5
 8005806:	d003      	beq.n	8005810 <TIM_OC1_SetConfig+0x7c>
 8005808:	f505 6580 	add.w	r5, r5, #1024	; 0x400
 800580c:	42a8      	cmp	r0, r5
 800580e:	d105      	bne.n	800581c <TIM_OC1_SetConfig+0x88>
 8005810:	f424 7540 	bic.w	r5, r4, #768	; 0x300
 8005814:	e9d1 4605 	ldrd	r4, r6, [r1, #20]
 8005818:	4334      	orrs	r4, r6
 800581a:	432c      	orrs	r4, r5
 800581c:	6044      	str	r4, [r0, #4]
 800581e:	6182      	str	r2, [r0, #24]
 8005820:	684a      	ldr	r2, [r1, #4]
 8005822:	6342      	str	r2, [r0, #52]	; 0x34
 8005824:	6203      	str	r3, [r0, #32]
 8005826:	bd70      	pop	{r4, r5, r6, pc}
 8005828:	40012c00 	.word	0x40012c00

0800582c <TIM_OC3_SetConfig>:
 800582c:	6a03      	ldr	r3, [r0, #32]
 800582e:	f423 7380 	bic.w	r3, r3, #256	; 0x100
 8005832:	6203      	str	r3, [r0, #32]
 8005834:	6a03      	ldr	r3, [r0, #32]
 8005836:	b570      	push	{r4, r5, r6, lr}
 8005838:	6844      	ldr	r4, [r0, #4]
 800583a:	69c2      	ldr	r2, [r0, #28]
 800583c:	680d      	ldr	r5, [r1, #0]
 800583e:	f422 3280 	bic.w	r2, r2, #65536	; 0x10000
 8005842:	f022 0273 	bic.w	r2, r2, #115	; 0x73
 8005846:	432a      	orrs	r2, r5
 8005848:	688d      	ldr	r5, [r1, #8]
 800584a:	f423 7300 	bic.w	r3, r3, #512	; 0x200
 800584e:	ea43 2305 	orr.w	r3, r3, r5, lsl #8
 8005852:	4d16      	ldr	r5, [pc, #88]	; (80058ac <TIM_OC3_SetConfig+0x80>)
 8005854:	42a8      	cmp	r0, r5
 8005856:	d003      	beq.n	8005860 <TIM_OC3_SetConfig+0x34>
 8005858:	f505 6500 	add.w	r5, r5, #2048	; 0x800
 800585c:	42a8      	cmp	r0, r5
 800585e:	d10d      	bne.n	800587c <TIM_OC3_SetConfig+0x50>
 8005860:	68cd      	ldr	r5, [r1, #12]
 8005862:	f423 6300 	bic.w	r3, r3, #2048	; 0x800
 8005866:	ea43 2305 	orr.w	r3, r3, r5, lsl #8
 800586a:	4d10      	ldr	r5, [pc, #64]	; (80058ac <TIM_OC3_SetConfig+0x80>)
 800586c:	42a8      	cmp	r0, r5
 800586e:	f423 6380 	bic.w	r3, r3, #1024	; 0x400
 8005872:	d00e      	beq.n	8005892 <TIM_OC3_SetConfig+0x66>
 8005874:	f505 6500 	add.w	r5, r5, #2048	; 0x800
 8005878:	42a8      	cmp	r0, r5
 800587a:	d00a      	beq.n	8005892 <TIM_OC3_SetConfig+0x66>
 800587c:	4d0c      	ldr	r5, [pc, #48]	; (80058b0 <TIM_OC3_SetConfig+0x84>)
 800587e:	42a8      	cmp	r0, r5
 8005880:	d007      	beq.n	8005892 <TIM_OC3_SetConfig+0x66>
 8005882:	f505 6580 	add.w	r5, r5, #1024	; 0x400
 8005886:	42a8      	cmp	r0, r5
 8005888:	d003      	beq.n	8005892 <TIM_OC3_SetConfig+0x66>
 800588a:	f505 6580 	add.w	r5, r5, #1024	; 0x400
 800588e:	42a8      	cmp	r0, r5
 8005890:	d106      	bne.n	80058a0 <TIM_OC3_SetConfig+0x74>
 8005892:	f424 5540 	bic.w	r5, r4, #12288	; 0x3000
 8005896:	e9d1 4605 	ldrd	r4, r6, [r1, #20]
 800589a:	4334      	orrs	r4, r6
 800589c:	ea45 1404 	orr.w	r4, r5, r4, lsl #4
 80058a0:	6044      	str	r4, [r0, #4]
 80058a2:	61c2      	str	r2, [r0, #28]
 80058a4:	684a      	ldr	r2, [r1, #4]
 80058a6:	63c2      	str	r2, [r0, #60]	; 0x3c
 80058a8:	6203      	str	r3, [r0, #32]
 80058aa:	bd70      	pop	{r4, r5, r6, pc}
 80058ac:	40012c00 	.word	0x40012c00
 80058b0:	40014000 	.word	0x40014000

080058b4 <TIM_OC4_SetConfig>:
 80058b4:	6a03      	ldr	r3, [r0, #32]
 80058b6:	f423 5380 	bic.w	r3, r3, #4096	; 0x1000
 80058ba:	6203      	str	r3, [r0, #32]
 80058bc:	6a03      	ldr	r3, [r0, #32]
 80058be:	b530      	push	{r4, r5, lr}
 80058c0:	6844      	ldr	r4, [r0, #4]
 80058c2:	69c2      	ldr	r2, [r0, #28]
 80058c4:	680d      	ldr	r5, [r1, #0]
 80058c6:	f022 7280 	bic.w	r2, r2, #16777216	; 0x1000000
 80058ca:	f422 42e6 	bic.w	r2, r2, #29440	; 0x7300
 80058ce:	ea42 2205 	orr.w	r2, r2, r5, lsl #8
 80058d2:	688d      	ldr	r5, [r1, #8]
 80058d4:	f423 5300 	bic.w	r3, r3, #8192	; 0x2000
 80058d8:	ea43 3305 	orr.w	r3, r3, r5, lsl #12
 80058dc:	4d0e      	ldr	r5, [pc, #56]	; (8005918 <TIM_OC4_SetConfig+0x64>)
 80058de:	42a8      	cmp	r0, r5
 80058e0:	d00f      	beq.n	8005902 <TIM_OC4_SetConfig+0x4e>
 80058e2:	f505 6500 	add.w	r5, r5, #2048	; 0x800
 80058e6:	42a8      	cmp	r0, r5
 80058e8:	d00b      	beq.n	8005902 <TIM_OC4_SetConfig+0x4e>
 80058ea:	f505 6540 	add.w	r5, r5, #3072	; 0xc00
 80058ee:	42a8      	cmp	r0, r5
 80058f0:	d007      	beq.n	8005902 <TIM_OC4_SetConfig+0x4e>
 80058f2:	f505 6580 	add.w	r5, r5, #1024	; 0x400
 80058f6:	42a8      	cmp	r0, r5
 80058f8:	d003      	beq.n	8005902 <TIM_OC4_SetConfig+0x4e>
 80058fa:	f505 6580 	add.w	r5, r5, #1024	; 0x400
 80058fe:	42a8      	cmp	r0, r5
 8005900:	d104      	bne.n	800590c <TIM_OC4_SetConfig+0x58>
 8005902:	694d      	ldr	r5, [r1, #20]
 8005904:	f424 4480 	bic.w	r4, r4, #16384	; 0x4000
 8005908:	ea44 1485 	orr.w	r4, r4, r5, lsl #6
 800590c:	6044      	str	r4, [r0, #4]
 800590e:	61c2      	str	r2, [r0, #28]
 8005910:	684a      	ldr	r2, [r1, #4]
 8005912:	6402      	str	r2, [r0, #64]	; 0x40
 8005914:	6203      	str	r3, [r0, #32]
 8005916:	bd30      	pop	{r4, r5, pc}
 8005918:	40012c00 	.word	0x40012c00

0800591c <TIM_OC5_SetConfig>:
 800591c:	6a03      	ldr	r3, [r0, #32]
 800591e:	f423 3380 	bic.w	r3, r3, #65536	; 0x10000
 8005922:	6203      	str	r3, [r0, #32]
 8005924:	6a03      	ldr	r3, [r0, #32]
 8005926:	b530      	push	{r4, r5, lr}
 8005928:	6844      	ldr	r4, [r0, #4]
 800592a:	6d42      	ldr	r2, [r0, #84]	; 0x54
 800592c:	680d      	ldr	r5, [r1, #0]
 800592e:	f422 3280 	bic.w	r2, r2, #65536	; 0x10000
 8005932:	f022 0270 	bic.w	r2, r2, #112	; 0x70
 8005936:	432a      	orrs	r2, r5
 8005938:	688d      	ldr	r5, [r1, #8]
 800593a:	f423 3300 	bic.w	r3, r3, #131072	; 0x20000
 800593e:	ea43 4305 	orr.w	r3, r3, r5, lsl #16
 8005942:	4d0f      	ldr	r5, [pc, #60]	; (8005980 <TIM_OC5_SetConfig+0x64>)
 8005944:	42a8      	cmp	r0, r5
 8005946:	d00f      	beq.n	8005968 <TIM_OC5_SetConfig+0x4c>
 8005948:	f505 6500 	add.w	r5, r5, #2048	; 0x800
 800594c:	42a8      	cmp	r0, r5
 800594e:	d00b      	beq.n	8005968 <TIM_OC5_SetConfig+0x4c>
 8005950:	f505 6540 	add.w	r5, r5, #3072	; 0xc00
 8005954:	42a8      	cmp	r0, r5
 8005956:	d007      	beq.n	8005968 <TIM_OC5_SetConfig+0x4c>
 8005958:	f505 6580 	add.w	r5, r5, #1024	; 0x400
 800595c:	42a8      	cmp	r0, r5
 800595e:	d003      	beq.n	8005968 <TIM_OC5_SetConfig+0x4c>
 8005960:	f505 6580 	add.w	r5, r5, #1024	; 0x400
 8005964:	42a8      	cmp	r0, r5
 8005966:	d104      	bne.n	8005972 <TIM_OC5_SetConfig+0x56>
 8005968:	694d      	ldr	r5, [r1, #20]
 800596a:	f424 3480 	bic.w	r4, r4, #65536	; 0x10000
 800596e:	ea44 2405 	orr.w	r4, r4, r5, lsl #8
 8005972:	6044      	str	r4, [r0, #4]
 8005974:	6542      	str	r2, [r0, #84]	; 0x54
 8005976:	684a      	ldr	r2, [r1, #4]
 8005978:	6582      	str	r2, [r0, #88]	; 0x58
 800597a:	6203      	str	r3, [r0, #32]
 800597c:	bd30      	pop	{r4, r5, pc}
 800597e:	bf00      	nop
 8005980:	40012c00 	.word	0x40012c00

08005984 <TIM_OC6_SetConfig>:
 8005984:	6a03      	ldr	r3, [r0, #32]
 8005986:	f423 1380 	bic.w	r3, r3, #1048576	; 0x100000
 800598a:	6203      	str	r3, [r0, #32]
 800598c:	6a03      	ldr	r3, [r0, #32]
 800598e:	b530      	push	{r4, r5, lr}
 8005990:	6844      	ldr	r4, [r0, #4]
 8005992:	6d42      	ldr	r2, [r0, #84]	; 0x54
 8005994:	680d      	ldr	r5, [r1, #0]
 8005996:	f022 7280 	bic.w	r2, r2, #16777216	; 0x1000000
 800599a:	f422 42e0 	bic.w	r2, r2, #28672	; 0x7000
 800599e:	ea42 2205 	orr.w	r2, r2, r5, lsl #8
 80059a2:	688d      	ldr	r5, [r1, #8]
 80059a4:	f423 1300 	bic.w	r3, r3, #2097152	; 0x200000
 80059a8:	ea43 5305 	orr.w	r3, r3, r5, lsl #20
 80059ac:	4d0e      	ldr	r5, [pc, #56]	; (80059e8 <TIM_OC6_SetConfig+0x64>)
 80059ae:	42a8      	cmp	r0, r5
 80059b0:	d00f      	beq.n	80059d2 <TIM_OC6_SetConfig+0x4e>
 80059b2:	f505 6500 	add.w	r5, r5, #2048	; 0x800
 80059b6:	42a8      	cmp	r0, r5
 80059b8:	d00b      	beq.n	80059d2 <TIM_OC6_SetConfig+0x4e>
 80059ba:	f505 6540 	add.w	r5, r5, #3072	; 0xc00
 80059be:	42a8      	cmp	r0, r5
 80059c0:	d007      	beq.n	80059d2 <TIM_OC6_SetConfig+0x4e>
 80059c2:	f505 6580 	add.w	r5, r5, #1024	; 0x400
 80059c6:	42a8      	cmp	r0, r5
 80059c8:	d003      	beq.n	80059d2 <TIM_OC6_SetConfig+0x4e>
 80059ca:	f505 6580 	add.w	r5, r5, #1024	; 0x400
 80059ce:	42a8      	cmp	r0, r5
 80059d0:	d104      	bne.n	80059dc <TIM_OC6_SetConfig+0x58>
 80059d2:	694d      	ldr	r5, [r1, #20]
 80059d4:	f424 2480 	bic.w	r4, r4, #262144	; 0x40000
 80059d8:	ea44 2485 	orr.w	r4, r4, r5, lsl #10
 80059dc:	6044      	str	r4, [r0, #4]
 80059de:	6542      	str	r2, [r0, #84]	; 0x54
 80059e0:	684a      	ldr	r2, [r1, #4]
 80059e2:	65c2      	str	r2, [r0, #92]	; 0x5c
 80059e4:	6203      	str	r3, [r0, #32]
 80059e6:	bd30      	pop	{r4, r5, pc}
 80059e8:	40012c00 	.word	0x40012c00

080059ec <HAL_TIM_PWM_MspInit>:
 80059ec:	4770      	bx	lr

080059ee <HAL_TIM_IC_MspInit>:
 80059ee:	4770      	bx	lr

080059f0 <HAL_TIM_ReadCapturedValue>:
 80059f0:	2908      	cmp	r1, #8
 80059f2:	d010      	beq.n	8005a16 <HAL_TIM_ReadCapturedValue+0x26>
 80059f4:	d804      	bhi.n	8005a00 <HAL_TIM_ReadCapturedValue+0x10>
 80059f6:	b141      	cbz	r1, 8005a0a <HAL_TIM_ReadCapturedValue+0x1a>
 80059f8:	2904      	cmp	r1, #4
 80059fa:	d009      	beq.n	8005a10 <HAL_TIM_ReadCapturedValue+0x20>
 80059fc:	2000      	movs	r0, #0
 80059fe:	4770      	bx	lr
 8005a00:	290c      	cmp	r1, #12
 8005a02:	d1fb      	bne.n	80059fc <HAL_TIM_ReadCapturedValue+0xc>
 8005a04:	6803      	ldr	r3, [r0, #0]
 8005a06:	6c18      	ldr	r0, [r3, #64]	; 0x40
 8005a08:	4770      	bx	lr
 8005a0a:	6803      	ldr	r3, [r0, #0]
 8005a0c:	6b58      	ldr	r0, [r3, #52]	; 0x34
 8005a0e:	4770      	bx	lr
 8005a10:	6803      	ldr	r3, [r0, #0]
 8005a12:	6b98      	ldr	r0, [r3, #56]	; 0x38
 8005a14:	4770      	bx	lr
 8005a16:	6803      	ldr	r3, [r0, #0]
 8005a18:	6bd8      	ldr	r0, [r3, #60]	; 0x3c
 8005a1a:	4770      	bx	lr

08005a1c <HAL_TIM_PeriodElapsedCallback>:
 8005a1c:	4770      	bx	lr

08005a1e <HAL_TIM_OC_DelayElapsedCallback>:
 8005a1e:	4770      	bx	lr

08005a20 <HAL_TIM_PWM_PulseFinishedCallback>:
 8005a20:	4770      	bx	lr

08005a22 <HAL_TIM_TriggerCallback>:
 8005a22:	4770      	bx	lr

08005a24 <HAL_TIM_IRQHandler>:
 8005a24:	6803      	ldr	r3, [r0, #0]
 8005a26:	691a      	ldr	r2, [r3, #16]
 8005a28:	0791      	lsls	r1, r2, #30
 8005a2a:	b510      	push	{r4, lr}
 8005a2c:	4604      	mov	r4, r0
 8005a2e:	d50f      	bpl.n	8005a50 <HAL_TIM_IRQHandler+0x2c>
 8005a30:	68da      	ldr	r2, [r3, #12]
 8005a32:	0792      	lsls	r2, r2, #30
 8005a34:	d50c      	bpl.n	8005a50 <HAL_TIM_IRQHandler+0x2c>
 8005a36:	f06f 0202 	mvn.w	r2, #2
 8005a3a:	611a      	str	r2, [r3, #16]
 8005a3c:	2201      	movs	r2, #1
 8005a3e:	7702      	strb	r2, [r0, #28]
 8005a40:	699b      	ldr	r3, [r3, #24]
 8005a42:	0799      	lsls	r1, r3, #30
 8005a44:	f000 8085 	beq.w	8005b52 <HAL_TIM_IRQHandler+0x12e>
 8005a48:	f7fb fdc0 	bl	80015cc <HAL_TIM_IC_CaptureCallback>
 8005a4c:	2300      	movs	r3, #0
 8005a4e:	7723      	strb	r3, [r4, #28]
 8005a50:	6823      	ldr	r3, [r4, #0]
 8005a52:	691a      	ldr	r2, [r3, #16]
 8005a54:	0752      	lsls	r2, r2, #29
 8005a56:	d510      	bpl.n	8005a7a <HAL_TIM_IRQHandler+0x56>
 8005a58:	68da      	ldr	r2, [r3, #12]
 8005a5a:	0750      	lsls	r0, r2, #29
 8005a5c:	d50d      	bpl.n	8005a7a <HAL_TIM_IRQHandler+0x56>
 8005a5e:	f06f 0204 	mvn.w	r2, #4
 8005a62:	611a      	str	r2, [r3, #16]
 8005a64:	2202      	movs	r2, #2
 8005a66:	7722      	strb	r2, [r4, #28]
 8005a68:	699b      	ldr	r3, [r3, #24]
 8005a6a:	f413 7f40 	tst.w	r3, #768	; 0x300
 8005a6e:	4620      	mov	r0, r4
 8005a70:	d075      	beq.n	8005b5e <HAL_TIM_IRQHandler+0x13a>
 8005a72:	f7fb fdab 	bl	80015cc <HAL_TIM_IC_CaptureCallback>
 8005a76:	2300      	movs	r3, #0
 8005a78:	7723      	strb	r3, [r4, #28]
 8005a7a:	6823      	ldr	r3, [r4, #0]
 8005a7c:	691a      	ldr	r2, [r3, #16]
 8005a7e:	0711      	lsls	r1, r2, #28
 8005a80:	d50f      	bpl.n	8005aa2 <HAL_TIM_IRQHandler+0x7e>
 8005a82:	68da      	ldr	r2, [r3, #12]
 8005a84:	0712      	lsls	r2, r2, #28
 8005a86:	d50c      	bpl.n	8005aa2 <HAL_TIM_IRQHandler+0x7e>
 8005a88:	f06f 0208 	mvn.w	r2, #8
 8005a8c:	611a      	str	r2, [r3, #16]
 8005a8e:	2204      	movs	r2, #4
 8005a90:	7722      	strb	r2, [r4, #28]
 8005a92:	69db      	ldr	r3, [r3, #28]
 8005a94:	079b      	lsls	r3, r3, #30
 8005a96:	4620      	mov	r0, r4
 8005a98:	d067      	beq.n	8005b6a <HAL_TIM_IRQHandler+0x146>
 8005a9a:	f7fb fd97 	bl	80015cc <HAL_TIM_IC_CaptureCallback>
 8005a9e:	2300      	movs	r3, #0
 8005aa0:	7723      	strb	r3, [r4, #28]
 8005aa2:	6823      	ldr	r3, [r4, #0]
 8005aa4:	691a      	ldr	r2, [r3, #16]
 8005aa6:	06d0      	lsls	r0, r2, #27
 8005aa8:	d510      	bpl.n	8005acc <HAL_TIM_IRQHandler+0xa8>
 8005aaa:	68da      	ldr	r2, [r3, #12]
 8005aac:	06d1      	lsls	r1, r2, #27
 8005aae:	d50d      	bpl.n	8005acc <HAL_TIM_IRQHandler+0xa8>
 8005ab0:	f06f 0210 	mvn.w	r2, #16
 8005ab4:	611a      	str	r2, [r3, #16]
 8005ab6:	2208      	movs	r2, #8
 8005ab8:	7722      	strb	r2, [r4, #28]
 8005aba:	69db      	ldr	r3, [r3, #28]
 8005abc:	f413 7f40 	tst.w	r3, #768	; 0x300
 8005ac0:	4620      	mov	r0, r4
 8005ac2:	d058      	beq.n	8005b76 <HAL_TIM_IRQHandler+0x152>
 8005ac4:	f7fb fd82 	bl	80015cc <HAL_TIM_IC_CaptureCallback>
 8005ac8:	2300      	movs	r3, #0
 8005aca:	7723      	strb	r3, [r4, #28]
 8005acc:	6823      	ldr	r3, [r4, #0]
 8005ace:	691a      	ldr	r2, [r3, #16]
 8005ad0:	07d2      	lsls	r2, r2, #31
 8005ad2:	d508      	bpl.n	8005ae6 <HAL_TIM_IRQHandler+0xc2>
 8005ad4:	68da      	ldr	r2, [r3, #12]
 8005ad6:	07d0      	lsls	r0, r2, #31
 8005ad8:	d505      	bpl.n	8005ae6 <HAL_TIM_IRQHandler+0xc2>
 8005ada:	f06f 0201 	mvn.w	r2, #1
 8005ade:	611a      	str	r2, [r3, #16]
 8005ae0:	4620      	mov	r0, r4
 8005ae2:	f7ff ff9b 	bl	8005a1c <HAL_TIM_PeriodElapsedCallback>
 8005ae6:	6823      	ldr	r3, [r4, #0]
 8005ae8:	691a      	ldr	r2, [r3, #16]
 8005aea:	0611      	lsls	r1, r2, #24
 8005aec:	d508      	bpl.n	8005b00 <HAL_TIM_IRQHandler+0xdc>
 8005aee:	68da      	ldr	r2, [r3, #12]
 8005af0:	0612      	lsls	r2, r2, #24
 8005af2:	d505      	bpl.n	8005b00 <HAL_TIM_IRQHandler+0xdc>
 8005af4:	f06f 0280 	mvn.w	r2, #128	; 0x80
 8005af8:	611a      	str	r2, [r3, #16]
 8005afa:	4620      	mov	r0, r4
 8005afc:	f000 fe23 	bl	8006746 <HAL_TIMEx_BreakCallback>
 8005b00:	6823      	ldr	r3, [r4, #0]
 8005b02:	691a      	ldr	r2, [r3, #16]
 8005b04:	05d0      	lsls	r0, r2, #23
 8005b06:	d508      	bpl.n	8005b1a <HAL_TIM_IRQHandler+0xf6>
 8005b08:	68da      	ldr	r2, [r3, #12]
 8005b0a:	0611      	lsls	r1, r2, #24
 8005b0c:	d505      	bpl.n	8005b1a <HAL_TIM_IRQHandler+0xf6>
 8005b0e:	f46f 7280 	mvn.w	r2, #256	; 0x100
 8005b12:	611a      	str	r2, [r3, #16]
 8005b14:	4620      	mov	r0, r4
 8005b16:	f000 fe17 	bl	8006748 <HAL_TIMEx_Break2Callback>
 8005b1a:	6823      	ldr	r3, [r4, #0]
 8005b1c:	691a      	ldr	r2, [r3, #16]
 8005b1e:	0652      	lsls	r2, r2, #25
 8005b20:	d508      	bpl.n	8005b34 <HAL_TIM_IRQHandler+0x110>
 8005b22:	68da      	ldr	r2, [r3, #12]
 8005b24:	0650      	lsls	r0, r2, #25
 8005b26:	d505      	bpl.n	8005b34 <HAL_TIM_IRQHandler+0x110>
 8005b28:	f06f 0240 	mvn.w	r2, #64	; 0x40
 8005b2c:	611a      	str	r2, [r3, #16]
 8005b2e:	4620      	mov	r0, r4
 8005b30:	f7ff ff77 	bl	8005a22 <HAL_TIM_TriggerCallback>
 8005b34:	6823      	ldr	r3, [r4, #0]
 8005b36:	691a      	ldr	r2, [r3, #16]
 8005b38:	0691      	lsls	r1, r2, #26
 8005b3a:	d522      	bpl.n	8005b82 <HAL_TIM_IRQHandler+0x15e>
 8005b3c:	68da      	ldr	r2, [r3, #12]
 8005b3e:	0692      	lsls	r2, r2, #26
 8005b40:	d51f      	bpl.n	8005b82 <HAL_TIM_IRQHandler+0x15e>
 8005b42:	f06f 0220 	mvn.w	r2, #32
 8005b46:	4620      	mov	r0, r4
 8005b48:	611a      	str	r2, [r3, #16]
 8005b4a:	e8bd 4010 	ldmia.w	sp!, {r4, lr}
 8005b4e:	f000 bdf9 	b.w	8006744 <HAL_TIMEx_CommutCallback>
 8005b52:	f7ff ff64 	bl	8005a1e <HAL_TIM_OC_DelayElapsedCallback>
 8005b56:	4620      	mov	r0, r4
 8005b58:	f7ff ff62 	bl	8005a20 <HAL_TIM_PWM_PulseFinishedCallback>
 8005b5c:	e776      	b.n	8005a4c <HAL_TIM_IRQHandler+0x28>
 8005b5e:	f7ff ff5e 	bl	8005a1e <HAL_TIM_OC_DelayElapsedCallback>
 8005b62:	4620      	mov	r0, r4
 8005b64:	f7ff ff5c 	bl	8005a20 <HAL_TIM_PWM_PulseFinishedCallback>
 8005b68:	e785      	b.n	8005a76 <HAL_TIM_IRQHandler+0x52>
 8005b6a:	f7ff ff58 	bl	8005a1e <HAL_TIM_OC_DelayElapsedCallback>
 8005b6e:	4620      	mov	r0, r4
 8005b70:	f7ff ff56 	bl	8005a20 <HAL_TIM_PWM_PulseFinishedCallback>
 8005b74:	e793      	b.n	8005a9e <HAL_TIM_IRQHandler+0x7a>
 8005b76:	f7ff ff52 	bl	8005a1e <HAL_TIM_OC_DelayElapsedCallback>
 8005b7a:	4620      	mov	r0, r4
 8005b7c:	f7ff ff50 	bl	8005a20 <HAL_TIM_PWM_PulseFinishedCallback>
 8005b80:	e7a2      	b.n	8005ac8 <HAL_TIM_IRQHandler+0xa4>
 8005b82:	bd10      	pop	{r4, pc}

08005b84 <TIM_Base_SetConfig>:
 8005b84:	4a2c      	ldr	r2, [pc, #176]	; (8005c38 <TIM_Base_SetConfig+0xb4>)
 8005b86:	6803      	ldr	r3, [r0, #0]
 8005b88:	4290      	cmp	r0, r2
 8005b8a:	d00e      	beq.n	8005baa <TIM_Base_SetConfig+0x26>
 8005b8c:	f1b0 4f80 	cmp.w	r0, #1073741824	; 0x40000000
 8005b90:	d00b      	beq.n	8005baa <TIM_Base_SetConfig+0x26>
 8005b92:	f5a2 3294 	sub.w	r2, r2, #75776	; 0x12800
 8005b96:	4290      	cmp	r0, r2
 8005b98:	d007      	beq.n	8005baa <TIM_Base_SetConfig+0x26>
 8005b9a:	f502 6280 	add.w	r2, r2, #1024	; 0x400
 8005b9e:	4290      	cmp	r0, r2
 8005ba0:	d003      	beq.n	8005baa <TIM_Base_SetConfig+0x26>
 8005ba2:	f502 3296 	add.w	r2, r2, #76800	; 0x12c00
 8005ba6:	4290      	cmp	r0, r2
 8005ba8:	d115      	bne.n	8005bd6 <TIM_Base_SetConfig+0x52>
 8005baa:	684a      	ldr	r2, [r1, #4]
 8005bac:	f023 0370 	bic.w	r3, r3, #112	; 0x70
 8005bb0:	4313      	orrs	r3, r2
 8005bb2:	4a21      	ldr	r2, [pc, #132]	; (8005c38 <TIM_Base_SetConfig+0xb4>)
 8005bb4:	4290      	cmp	r0, r2
 8005bb6:	d019      	beq.n	8005bec <TIM_Base_SetConfig+0x68>
 8005bb8:	f1b0 4f80 	cmp.w	r0, #1073741824	; 0x40000000
 8005bbc:	d016      	beq.n	8005bec <TIM_Base_SetConfig+0x68>
 8005bbe:	f5a2 3294 	sub.w	r2, r2, #75776	; 0x12800
 8005bc2:	4290      	cmp	r0, r2
 8005bc4:	d012      	beq.n	8005bec <TIM_Base_SetConfig+0x68>
 8005bc6:	f502 6280 	add.w	r2, r2, #1024	; 0x400
 8005bca:	4290      	cmp	r0, r2
 8005bcc:	d00e      	beq.n	8005bec <TIM_Base_SetConfig+0x68>
 8005bce:	f502 3296 	add.w	r2, r2, #76800	; 0x12c00
 8005bd2:	4290      	cmp	r0, r2
 8005bd4:	d00a      	beq.n	8005bec <TIM_Base_SetConfig+0x68>
 8005bd6:	4a19      	ldr	r2, [pc, #100]	; (8005c3c <TIM_Base_SetConfig+0xb8>)
 8005bd8:	4290      	cmp	r0, r2
 8005bda:	d007      	beq.n	8005bec <TIM_Base_SetConfig+0x68>
 8005bdc:	f502 6280 	add.w	r2, r2, #1024	; 0x400
 8005be0:	4290      	cmp	r0, r2
 8005be2:	d003      	beq.n	8005bec <TIM_Base_SetConfig+0x68>
 8005be4:	f502 6280 	add.w	r2, r2, #1024	; 0x400
 8005be8:	4290      	cmp	r0, r2
 8005bea:	d103      	bne.n	8005bf4 <TIM_Base_SetConfig+0x70>
 8005bec:	68ca      	ldr	r2, [r1, #12]
 8005bee:	f423 7340 	bic.w	r3, r3, #768	; 0x300
 8005bf2:	4313      	orrs	r3, r2
 8005bf4:	694a      	ldr	r2, [r1, #20]
 8005bf6:	f023 0380 	bic.w	r3, r3, #128	; 0x80
 8005bfa:	4313      	orrs	r3, r2
 8005bfc:	6003      	str	r3, [r0, #0]
 8005bfe:	688b      	ldr	r3, [r1, #8]
 8005c00:	62c3      	str	r3, [r0, #44]	; 0x2c
 8005c02:	680b      	ldr	r3, [r1, #0]
 8005c04:	6283      	str	r3, [r0, #40]	; 0x28
 8005c06:	4b0c      	ldr	r3, [pc, #48]	; (8005c38 <TIM_Base_SetConfig+0xb4>)
 8005c08:	4298      	cmp	r0, r3
 8005c0a:	d00f      	beq.n	8005c2c <TIM_Base_SetConfig+0xa8>
 8005c0c:	f503 6300 	add.w	r3, r3, #2048	; 0x800
 8005c10:	4298      	cmp	r0, r3
 8005c12:	d00b      	beq.n	8005c2c <TIM_Base_SetConfig+0xa8>
 8005c14:	f503 6340 	add.w	r3, r3, #3072	; 0xc00
 8005c18:	4298      	cmp	r0, r3
 8005c1a:	d007      	beq.n	8005c2c <TIM_Base_SetConfig+0xa8>
 8005c1c:	f503 6380 	add.w	r3, r3, #1024	; 0x400
 8005c20:	4298      	cmp	r0, r3
 8005c22:	d003      	beq.n	8005c2c <TIM_Base_SetConfig+0xa8>
 8005c24:	f503 6380 	add.w	r3, r3, #1024	; 0x400
 8005c28:	4298      	cmp	r0, r3
 8005c2a:	d101      	bne.n	8005c30 <TIM_Base_SetConfig+0xac>
 8005c2c:	690b      	ldr	r3, [r1, #16]
 8005c2e:	6303      	str	r3, [r0, #48]	; 0x30
 8005c30:	2301      	movs	r3, #1
 8005c32:	6143      	str	r3, [r0, #20]
 8005c34:	4770      	bx	lr
 8005c36:	bf00      	nop
 8005c38:	40012c00 	.word	0x40012c00
 8005c3c:	40014000 	.word	0x40014000

08005c40 <HAL_TIM_Base_Init>:
 8005c40:	b510      	push	{r4, lr}
 8005c42:	4604      	mov	r4, r0
 8005c44:	b350      	cbz	r0, 8005c9c <HAL_TIM_Base_Init+0x5c>
 8005c46:	f890 303d 	ldrb.w	r3, [r0, #61]	; 0x3d
 8005c4a:	f003 02ff 	and.w	r2, r3, #255	; 0xff
 8005c4e:	b91b      	cbnz	r3, 8005c58 <HAL_TIM_Base_Init+0x18>
 8005c50:	f880 203c 	strb.w	r2, [r0, #60]	; 0x3c
 8005c54:	f7fb ff46 	bl	8001ae4 <HAL_TIM_Base_MspInit>
 8005c58:	2302      	movs	r3, #2
 8005c5a:	6820      	ldr	r0, [r4, #0]
 8005c5c:	f884 303d 	strb.w	r3, [r4, #61]	; 0x3d
 8005c60:	1d21      	adds	r1, r4, #4
 8005c62:	f7ff ff8f 	bl	8005b84 <TIM_Base_SetConfig>
 8005c66:	2301      	movs	r3, #1
 8005c68:	f884 3048 	strb.w	r3, [r4, #72]	; 0x48
 8005c6c:	2000      	movs	r0, #0
 8005c6e:	f884 303e 	strb.w	r3, [r4, #62]	; 0x3e
 8005c72:	f884 303f 	strb.w	r3, [r4, #63]	; 0x3f
 8005c76:	f884 3040 	strb.w	r3, [r4, #64]	; 0x40
 8005c7a:	f884 3041 	strb.w	r3, [r4, #65]	; 0x41
 8005c7e:	f884 3042 	strb.w	r3, [r4, #66]	; 0x42
 8005c82:	f884 3043 	strb.w	r3, [r4, #67]	; 0x43
 8005c86:	f884 3044 	strb.w	r3, [r4, #68]	; 0x44
 8005c8a:	f884 3045 	strb.w	r3, [r4, #69]	; 0x45
 8005c8e:	f884 3046 	strb.w	r3, [r4, #70]	; 0x46
 8005c92:	f884 3047 	strb.w	r3, [r4, #71]	; 0x47
 8005c96:	f884 303d 	strb.w	r3, [r4, #61]	; 0x3d
 8005c9a:	bd10      	pop	{r4, pc}
 8005c9c:	2001      	movs	r0, #1
 8005c9e:	e7fc      	b.n	8005c9a <HAL_TIM_Base_Init+0x5a>

08005ca0 <HAL_TIM_PWM_Init>:
 8005ca0:	b510      	push	{r4, lr}
 8005ca2:	4604      	mov	r4, r0
 8005ca4:	b350      	cbz	r0, 8005cfc <HAL_TIM_PWM_Init+0x5c>
 8005ca6:	f890 303d 	ldrb.w	r3, [r0, #61]	; 0x3d
 8005caa:	f003 02ff 	and.w	r2, r3, #255	; 0xff
 8005cae:	b91b      	cbnz	r3, 8005cb8 <HAL_TIM_PWM_Init+0x18>
 8005cb0:	f880 203c 	strb.w	r2, [r0, #60]	; 0x3c
 8005cb4:	f7ff fe9a 	bl	80059ec <HAL_TIM_PWM_MspInit>
 8005cb8:	2302      	movs	r3, #2
 8005cba:	6820      	ldr	r0, [r4, #0]
 8005cbc:	f884 303d 	strb.w	r3, [r4, #61]	; 0x3d
 8005cc0:	1d21      	adds	r1, r4, #4
 8005cc2:	f7ff ff5f 	bl	8005b84 <TIM_Base_SetConfig>
 8005cc6:	2301      	movs	r3, #1
 8005cc8:	f884 3048 	strb.w	r3, [r4, #72]	; 0x48
 8005ccc:	2000      	movs	r0, #0
 8005cce:	f884 303e 	strb.w	r3, [r4, #62]	; 0x3e
 8005cd2:	f884 303f 	strb.w	r3, [r4, #63]	; 0x3f
 8005cd6:	f884 3040 	strb.w	r3, [r4, #64]	; 0x40
 8005cda:	f884 3041 	strb.w	r3, [r4, #65]	; 0x41
 8005cde:	f884 3042 	strb.w	r3, [r4, #66]	; 0x42
 8005ce2:	f884 3043 	strb.w	r3, [r4, #67]	; 0x43
 8005ce6:	f884 3044 	strb.w	r3, [r4, #68]	; 0x44
 8005cea:	f884 3045 	strb.w	r3, [r4, #69]	; 0x45
 8005cee:	f884 3046 	strb.w	r3, [r4, #70]	; 0x46
 8005cf2:	f884 3047 	strb.w	r3, [r4, #71]	; 0x47
 8005cf6:	f884 303d 	strb.w	r3, [r4, #61]	; 0x3d
 8005cfa:	bd10      	pop	{r4, pc}
 8005cfc:	2001      	movs	r0, #1
 8005cfe:	e7fc      	b.n	8005cfa <HAL_TIM_PWM_Init+0x5a>

08005d00 <HAL_TIM_IC_Init>:
 8005d00:	b510      	push	{r4, lr}
 8005d02:	4604      	mov	r4, r0
 8005d04:	b350      	cbz	r0, 8005d5c <HAL_TIM_IC_Init+0x5c>
 8005d06:	f890 303d 	ldrb.w	r3, [r0, #61]	; 0x3d
 8005d0a:	f003 02ff 	and.w	r2, r3, #255	; 0xff
 8005d0e:	b91b      	cbnz	r3, 8005d18 <HAL_TIM_IC_Init+0x18>
 8005d10:	f880 203c 	strb.w	r2, [r0, #60]	; 0x3c
 8005d14:	f7ff fe6b 	bl	80059ee <HAL_TIM_IC_MspInit>
 8005d18:	2302      	movs	r3, #2
 8005d1a:	6820      	ldr	r0, [r4, #0]
 8005d1c:	f884 303d 	strb.w	r3, [r4, #61]	; 0x3d
 8005d20:	1d21      	adds	r1, r4, #4
 8005d22:	f7ff ff2f 	bl	8005b84 <TIM_Base_SetConfig>
 8005d26:	2301      	movs	r3, #1
 8005d28:	f884 3048 	strb.w	r3, [r4, #72]	; 0x48
 8005d2c:	2000      	movs	r0, #0
 8005d2e:	f884 303e 	strb.w	r3, [r4, #62]	; 0x3e
 8005d32:	f884 303f 	strb.w	r3, [r4, #63]	; 0x3f
 8005d36:	f884 3040 	strb.w	r3, [r4, #64]	; 0x40
 8005d3a:	f884 3041 	strb.w	r3, [r4, #65]	; 0x41
 8005d3e:	f884 3042 	strb.w	r3, [r4, #66]	; 0x42
 8005d42:	f884 3043 	strb.w	r3, [r4, #67]	; 0x43
 8005d46:	f884 3044 	strb.w	r3, [r4, #68]	; 0x44
 8005d4a:	f884 3045 	strb.w	r3, [r4, #69]	; 0x45
 8005d4e:	f884 3046 	strb.w	r3, [r4, #70]	; 0x46
 8005d52:	f884 3047 	strb.w	r3, [r4, #71]	; 0x47
 8005d56:	f884 303d 	strb.w	r3, [r4, #61]	; 0x3d
 8005d5a:	bd10      	pop	{r4, pc}
 8005d5c:	2001      	movs	r0, #1
 8005d5e:	e7fc      	b.n	8005d5a <HAL_TIM_IC_Init+0x5a>

08005d60 <TIM_OC2_SetConfig>:
 8005d60:	6a03      	ldr	r3, [r0, #32]
 8005d62:	f023 0310 	bic.w	r3, r3, #16
 8005d66:	6203      	str	r3, [r0, #32]
 8005d68:	6a03      	ldr	r3, [r0, #32]
 8005d6a:	b570      	push	{r4, r5, r6, lr}
 8005d6c:	6844      	ldr	r4, [r0, #4]
 8005d6e:	6982      	ldr	r2, [r0, #24]
 8005d70:	680d      	ldr	r5, [r1, #0]
 8005d72:	f022 7280 	bic.w	r2, r2, #16777216	; 0x1000000
 8005d76:	f422 42e6 	bic.w	r2, r2, #29440	; 0x7300
 8005d7a:	ea42 2205 	orr.w	r2, r2, r5, lsl #8
 8005d7e:	688d      	ldr	r5, [r1, #8]
 8005d80:	f023 0320 	bic.w	r3, r3, #32
 8005d84:	ea43 1305 	orr.w	r3, r3, r5, lsl #4
 8005d88:	4d16      	ldr	r5, [pc, #88]	; (8005de4 <TIM_OC2_SetConfig+0x84>)
 8005d8a:	42a8      	cmp	r0, r5
 8005d8c:	d003      	beq.n	8005d96 <TIM_OC2_SetConfig+0x36>
 8005d8e:	f505 6500 	add.w	r5, r5, #2048	; 0x800
 8005d92:	42a8      	cmp	r0, r5
 8005d94:	d10d      	bne.n	8005db2 <TIM_OC2_SetConfig+0x52>
 8005d96:	68cd      	ldr	r5, [r1, #12]
 8005d98:	f023 0380 	bic.w	r3, r3, #128	; 0x80
 8005d9c:	ea43 1305 	orr.w	r3, r3, r5, lsl #4
 8005da0:	4d10      	ldr	r5, [pc, #64]	; (8005de4 <TIM_OC2_SetConfig+0x84>)
 8005da2:	42a8      	cmp	r0, r5
 8005da4:	f023 0340 	bic.w	r3, r3, #64	; 0x40
 8005da8:	d00e      	beq.n	8005dc8 <TIM_OC2_SetConfig+0x68>
 8005daa:	f505 6500 	add.w	r5, r5, #2048	; 0x800
 8005dae:	42a8      	cmp	r0, r5
 8005db0:	d00a      	beq.n	8005dc8 <TIM_OC2_SetConfig+0x68>
 8005db2:	4d0d      	ldr	r5, [pc, #52]	; (8005de8 <TIM_OC2_SetConfig+0x88>)
 8005db4:	42a8      	cmp	r0, r5
 8005db6:	d007      	beq.n	8005dc8 <TIM_OC2_SetConfig+0x68>
 8005db8:	f505 6580 	add.w	r5, r5, #1024	; 0x400
 8005dbc:	42a8      	cmp	r0, r5
 8005dbe:	d003      	beq.n	8005dc8 <TIM_OC2_SetConfig+0x68>
 8005dc0:	f505 6580 	add.w	r5, r5, #1024	; 0x400
 8005dc4:	42a8      	cmp	r0, r5
 8005dc6:	d106      	bne.n	8005dd6 <TIM_OC2_SetConfig+0x76>
 8005dc8:	f424 6540 	bic.w	r5, r4, #3072	; 0xc00
 8005dcc:	e9d1 4605 	ldrd	r4, r6, [r1, #20]
 8005dd0:	4334      	orrs	r4, r6
 8005dd2:	ea45 0484 	orr.w	r4, r5, r4, lsl #2
 8005dd6:	6044      	str	r4, [r0, #4]
 8005dd8:	6182      	str	r2, [r0, #24]
 8005dda:	684a      	ldr	r2, [r1, #4]
 8005ddc:	6382      	str	r2, [r0, #56]	; 0x38
 8005dde:	6203      	str	r3, [r0, #32]
 8005de0:	bd70      	pop	{r4, r5, r6, pc}
 8005de2:	bf00      	nop
 8005de4:	40012c00 	.word	0x40012c00
 8005de8:	40014000 	.word	0x40014000

08005dec <HAL_TIM_PWM_ConfigChannel>:
 8005dec:	b570      	push	{r4, r5, r6, lr}
 8005dee:	f890 303c 	ldrb.w	r3, [r0, #60]	; 0x3c
 8005df2:	2b01      	cmp	r3, #1
 8005df4:	4605      	mov	r5, r0
 8005df6:	d074      	beq.n	8005ee2 <HAL_TIM_PWM_ConfigChannel+0xf6>
 8005df8:	2301      	movs	r3, #1
 8005dfa:	2a0c      	cmp	r2, #12
 8005dfc:	f880 303c 	strb.w	r3, [r0, #60]	; 0x3c
 8005e00:	d04f      	beq.n	8005ea2 <HAL_TIM_PWM_ConfigChannel+0xb6>
 8005e02:	d809      	bhi.n	8005e18 <HAL_TIM_PWM_ConfigChannel+0x2c>
 8005e04:	2a04      	cmp	r2, #4
 8005e06:	d02c      	beq.n	8005e62 <HAL_TIM_PWM_ConfigChannel+0x76>
 8005e08:	2a08      	cmp	r2, #8
 8005e0a:	d03a      	beq.n	8005e82 <HAL_TIM_PWM_ConfigChannel+0x96>
 8005e0c:	b1c2      	cbz	r2, 8005e40 <HAL_TIM_PWM_ConfigChannel+0x54>
 8005e0e:	4618      	mov	r0, r3
 8005e10:	2300      	movs	r3, #0
 8005e12:	f885 303c 	strb.w	r3, [r5, #60]	; 0x3c
 8005e16:	bd70      	pop	{r4, r5, r6, pc}
 8005e18:	2a10      	cmp	r2, #16
 8005e1a:	d052      	beq.n	8005ec2 <HAL_TIM_PWM_ConfigChannel+0xd6>
 8005e1c:	2a14      	cmp	r2, #20
 8005e1e:	d1f6      	bne.n	8005e0e <HAL_TIM_PWM_ConfigChannel+0x22>
 8005e20:	6800      	ldr	r0, [r0, #0]
 8005e22:	f7ff fdaf 	bl	8005984 <TIM_OC6_SetConfig>
 8005e26:	6d43      	ldr	r3, [r0, #84]	; 0x54
 8005e28:	690a      	ldr	r2, [r1, #16]
 8005e2a:	f443 6300 	orr.w	r3, r3, #2048	; 0x800
 8005e2e:	6543      	str	r3, [r0, #84]	; 0x54
 8005e30:	6d43      	ldr	r3, [r0, #84]	; 0x54
 8005e32:	f423 6380 	bic.w	r3, r3, #1024	; 0x400
 8005e36:	6543      	str	r3, [r0, #84]	; 0x54
 8005e38:	6d43      	ldr	r3, [r0, #84]	; 0x54
 8005e3a:	ea43 2302 	orr.w	r3, r3, r2, lsl #8
 8005e3e:	e04e      	b.n	8005ede <HAL_TIM_PWM_ConfigChannel+0xf2>
 8005e40:	6800      	ldr	r0, [r0, #0]
 8005e42:	f7ff fca7 	bl	8005794 <TIM_OC1_SetConfig>
 8005e46:	6983      	ldr	r3, [r0, #24]
 8005e48:	690a      	ldr	r2, [r1, #16]
 8005e4a:	f043 0308 	orr.w	r3, r3, #8
 8005e4e:	6183      	str	r3, [r0, #24]
 8005e50:	6983      	ldr	r3, [r0, #24]
 8005e52:	f023 0304 	bic.w	r3, r3, #4
 8005e56:	6183      	str	r3, [r0, #24]
 8005e58:	6983      	ldr	r3, [r0, #24]
 8005e5a:	4313      	orrs	r3, r2
 8005e5c:	6183      	str	r3, [r0, #24]
 8005e5e:	2000      	movs	r0, #0
 8005e60:	e7d6      	b.n	8005e10 <HAL_TIM_PWM_ConfigChannel+0x24>
 8005e62:	6800      	ldr	r0, [r0, #0]
 8005e64:	f7ff ff7c 	bl	8005d60 <TIM_OC2_SetConfig>
 8005e68:	6983      	ldr	r3, [r0, #24]
 8005e6a:	690a      	ldr	r2, [r1, #16]
 8005e6c:	f443 6300 	orr.w	r3, r3, #2048	; 0x800
 8005e70:	6183      	str	r3, [r0, #24]
 8005e72:	6983      	ldr	r3, [r0, #24]
 8005e74:	f423 6380 	bic.w	r3, r3, #1024	; 0x400
 8005e78:	6183      	str	r3, [r0, #24]
 8005e7a:	6983      	ldr	r3, [r0, #24]
 8005e7c:	ea43 2302 	orr.w	r3, r3, r2, lsl #8
 8005e80:	e7ec      	b.n	8005e5c <HAL_TIM_PWM_ConfigChannel+0x70>
 8005e82:	6800      	ldr	r0, [r0, #0]
 8005e84:	f7ff fcd2 	bl	800582c <TIM_OC3_SetConfig>
 8005e88:	69c3      	ldr	r3, [r0, #28]
 8005e8a:	690a      	ldr	r2, [r1, #16]
 8005e8c:	f043 0308 	orr.w	r3, r3, #8
 8005e90:	61c3      	str	r3, [r0, #28]
 8005e92:	69c3      	ldr	r3, [r0, #28]
 8005e94:	f023 0304 	bic.w	r3, r3, #4
 8005e98:	61c3      	str	r3, [r0, #28]
 8005e9a:	69c3      	ldr	r3, [r0, #28]
 8005e9c:	4313      	orrs	r3, r2
 8005e9e:	61c3      	str	r3, [r0, #28]
 8005ea0:	e7dd      	b.n	8005e5e <HAL_TIM_PWM_ConfigChannel+0x72>
 8005ea2:	6800      	ldr	r0, [r0, #0]
 8005ea4:	f7ff fd06 	bl	80058b4 <TIM_OC4_SetConfig>
 8005ea8:	69c3      	ldr	r3, [r0, #28]
 8005eaa:	690a      	ldr	r2, [r1, #16]
 8005eac:	f443 6300 	orr.w	r3, r3, #2048	; 0x800
 8005eb0:	61c3      	str	r3, [r0, #28]
 8005eb2:	69c3      	ldr	r3, [r0, #28]
 8005eb4:	f423 6380 	bic.w	r3, r3, #1024	; 0x400
 8005eb8:	61c3      	str	r3, [r0, #28]
 8005eba:	69c3      	ldr	r3, [r0, #28]
 8005ebc:	ea43 2302 	orr.w	r3, r3, r2, lsl #8
 8005ec0:	e7ed      	b.n	8005e9e <HAL_TIM_PWM_ConfigChannel+0xb2>
 8005ec2:	6800      	ldr	r0, [r0, #0]
 8005ec4:	f7ff fd2a 	bl	800591c <TIM_OC5_SetConfig>
 8005ec8:	6d43      	ldr	r3, [r0, #84]	; 0x54
 8005eca:	690a      	ldr	r2, [r1, #16]
 8005ecc:	f043 0308 	orr.w	r3, r3, #8
 8005ed0:	6543      	str	r3, [r0, #84]	; 0x54
 8005ed2:	6d43      	ldr	r3, [r0, #84]	; 0x54
 8005ed4:	f023 0304 	bic.w	r3, r3, #4
 8005ed8:	6543      	str	r3, [r0, #84]	; 0x54
 8005eda:	6d43      	ldr	r3, [r0, #84]	; 0x54
 8005edc:	4313      	orrs	r3, r2
 8005ede:	6543      	str	r3, [r0, #84]	; 0x54
 8005ee0:	e7bd      	b.n	8005e5e <HAL_TIM_PWM_ConfigChannel+0x72>
 8005ee2:	2002      	movs	r0, #2
 8005ee4:	e797      	b.n	8005e16 <HAL_TIM_PWM_ConfigChannel+0x2a>
	...

08005ee8 <TIM_TI1_SetConfig>:
 8005ee8:	b570      	push	{r4, r5, r6, lr}
 8005eea:	6a04      	ldr	r4, [r0, #32]
 8005eec:	4e16      	ldr	r6, [pc, #88]	; (8005f48 <TIM_TI1_SetConfig+0x60>)
 8005eee:	f024 0401 	bic.w	r4, r4, #1
 8005ef2:	6204      	str	r4, [r0, #32]
 8005ef4:	42b0      	cmp	r0, r6
 8005ef6:	6984      	ldr	r4, [r0, #24]
 8005ef8:	6a05      	ldr	r5, [r0, #32]
 8005efa:	d021      	beq.n	8005f40 <TIM_TI1_SetConfig+0x58>
 8005efc:	f1b0 4f80 	cmp.w	r0, #1073741824	; 0x40000000
 8005f00:	d01e      	beq.n	8005f40 <TIM_TI1_SetConfig+0x58>
 8005f02:	f5a6 3694 	sub.w	r6, r6, #75776	; 0x12800
 8005f06:	42b0      	cmp	r0, r6
 8005f08:	d01a      	beq.n	8005f40 <TIM_TI1_SetConfig+0x58>
 8005f0a:	f506 6680 	add.w	r6, r6, #1024	; 0x400
 8005f0e:	42b0      	cmp	r0, r6
 8005f10:	d016      	beq.n	8005f40 <TIM_TI1_SetConfig+0x58>
 8005f12:	f506 3696 	add.w	r6, r6, #76800	; 0x12c00
 8005f16:	42b0      	cmp	r0, r6
 8005f18:	d012      	beq.n	8005f40 <TIM_TI1_SetConfig+0x58>
 8005f1a:	f506 6640 	add.w	r6, r6, #3072	; 0xc00
 8005f1e:	42b0      	cmp	r0, r6
 8005f20:	d00e      	beq.n	8005f40 <TIM_TI1_SetConfig+0x58>
 8005f22:	f044 0201 	orr.w	r2, r4, #1
 8005f26:	011b      	lsls	r3, r3, #4
 8005f28:	f022 02f0 	bic.w	r2, r2, #240	; 0xf0
 8005f2c:	b2db      	uxtb	r3, r3
 8005f2e:	4313      	orrs	r3, r2
 8005f30:	f001 010a 	and.w	r1, r1, #10
 8005f34:	f025 020a 	bic.w	r2, r5, #10
 8005f38:	4311      	orrs	r1, r2
 8005f3a:	6183      	str	r3, [r0, #24]
 8005f3c:	6201      	str	r1, [r0, #32]
 8005f3e:	bd70      	pop	{r4, r5, r6, pc}
 8005f40:	f024 0403 	bic.w	r4, r4, #3
 8005f44:	4322      	orrs	r2, r4
 8005f46:	e7ee      	b.n	8005f26 <TIM_TI1_SetConfig+0x3e>
 8005f48:	40012c00 	.word	0x40012c00

08005f4c <HAL_TIM_IC_ConfigChannel>:
 8005f4c:	b5f8      	push	{r3, r4, r5, r6, r7, lr}
 8005f4e:	f890 303c 	ldrb.w	r3, [r0, #60]	; 0x3c
 8005f52:	2b01      	cmp	r3, #1
 8005f54:	4605      	mov	r5, r0
 8005f56:	460c      	mov	r4, r1
 8005f58:	f000 808b 	beq.w	8006072 <HAL_TIM_IC_ConfigChannel+0x126>
 8005f5c:	2301      	movs	r3, #1
 8005f5e:	f880 303c 	strb.w	r3, [r0, #60]	; 0x3c
 8005f62:	b992      	cbnz	r2, 8005f8a <HAL_TIM_IC_ConfigChannel+0x3e>
 8005f64:	6800      	ldr	r0, [r0, #0]
 8005f66:	68cb      	ldr	r3, [r1, #12]
 8005f68:	e9d1 1200 	ldrd	r1, r2, [r1]
 8005f6c:	f7ff ffbc 	bl	8005ee8 <TIM_TI1_SetConfig>
 8005f70:	6983      	ldr	r3, [r0, #24]
 8005f72:	68a2      	ldr	r2, [r4, #8]
 8005f74:	f023 030c 	bic.w	r3, r3, #12
 8005f78:	6183      	str	r3, [r0, #24]
 8005f7a:	6983      	ldr	r3, [r0, #24]
 8005f7c:	4313      	orrs	r3, r2
 8005f7e:	6183      	str	r3, [r0, #24]
 8005f80:	2000      	movs	r0, #0
 8005f82:	2300      	movs	r3, #0
 8005f84:	f885 303c 	strb.w	r3, [r5, #60]	; 0x3c
 8005f88:	bdf8      	pop	{r3, r4, r5, r6, r7, pc}
 8005f8a:	2a04      	cmp	r2, #4
 8005f8c:	d124      	bne.n	8005fd8 <HAL_TIM_IC_ConfigChannel+0x8c>
 8005f8e:	6803      	ldr	r3, [r0, #0]
 8005f90:	6a18      	ldr	r0, [r3, #32]
 8005f92:	f020 0010 	bic.w	r0, r0, #16
 8005f96:	e9d1 2700 	ldrd	r2, r7, [r1]
 8005f9a:	68c9      	ldr	r1, [r1, #12]
 8005f9c:	6218      	str	r0, [r3, #32]
 8005f9e:	6998      	ldr	r0, [r3, #24]
 8005fa0:	6a1e      	ldr	r6, [r3, #32]
 8005fa2:	f420 7040 	bic.w	r0, r0, #768	; 0x300
 8005fa6:	ea40 2007 	orr.w	r0, r0, r7, lsl #8
 8005faa:	0309      	lsls	r1, r1, #12
 8005fac:	f420 4070 	bic.w	r0, r0, #61440	; 0xf000
 8005fb0:	b289      	uxth	r1, r1
 8005fb2:	0112      	lsls	r2, r2, #4
 8005fb4:	4301      	orrs	r1, r0
 8005fb6:	f002 02a0 	and.w	r2, r2, #160	; 0xa0
 8005fba:	f026 00a0 	bic.w	r0, r6, #160	; 0xa0
 8005fbe:	4302      	orrs	r2, r0
 8005fc0:	6199      	str	r1, [r3, #24]
 8005fc2:	621a      	str	r2, [r3, #32]
 8005fc4:	699a      	ldr	r2, [r3, #24]
 8005fc6:	68a1      	ldr	r1, [r4, #8]
 8005fc8:	f422 6240 	bic.w	r2, r2, #3072	; 0xc00
 8005fcc:	619a      	str	r2, [r3, #24]
 8005fce:	699a      	ldr	r2, [r3, #24]
 8005fd0:	ea42 2201 	orr.w	r2, r2, r1, lsl #8
 8005fd4:	619a      	str	r2, [r3, #24]
 8005fd6:	e7d3      	b.n	8005f80 <HAL_TIM_IC_ConfigChannel+0x34>
 8005fd8:	2a08      	cmp	r2, #8
 8005fda:	d122      	bne.n	8006022 <HAL_TIM_IC_ConfigChannel+0xd6>
 8005fdc:	6803      	ldr	r3, [r0, #0]
 8005fde:	6a1e      	ldr	r6, [r3, #32]
 8005fe0:	f426 7680 	bic.w	r6, r6, #256	; 0x100
 8005fe4:	e9d1 2000 	ldrd	r2, r0, [r1]
 8005fe8:	68c9      	ldr	r1, [r1, #12]
 8005fea:	621e      	str	r6, [r3, #32]
 8005fec:	69df      	ldr	r7, [r3, #28]
 8005fee:	6a1e      	ldr	r6, [r3, #32]
 8005ff0:	f027 0703 	bic.w	r7, r7, #3
 8005ff4:	4338      	orrs	r0, r7
 8005ff6:	0109      	lsls	r1, r1, #4
 8005ff8:	f020 00f0 	bic.w	r0, r0, #240	; 0xf0
 8005ffc:	b2c9      	uxtb	r1, r1
 8005ffe:	0212      	lsls	r2, r2, #8
 8006000:	4301      	orrs	r1, r0
 8006002:	f402 6220 	and.w	r2, r2, #2560	; 0xa00
 8006006:	f426 6020 	bic.w	r0, r6, #2560	; 0xa00
 800600a:	4302      	orrs	r2, r0
 800600c:	61d9      	str	r1, [r3, #28]
 800600e:	621a      	str	r2, [r3, #32]
 8006010:	69da      	ldr	r2, [r3, #28]
 8006012:	68a1      	ldr	r1, [r4, #8]
 8006014:	f022 020c 	bic.w	r2, r2, #12
 8006018:	61da      	str	r2, [r3, #28]
 800601a:	69da      	ldr	r2, [r3, #28]
 800601c:	430a      	orrs	r2, r1
 800601e:	61da      	str	r2, [r3, #28]
 8006020:	e7ae      	b.n	8005f80 <HAL_TIM_IC_ConfigChannel+0x34>
 8006022:	2a0c      	cmp	r2, #12
 8006024:	d123      	bne.n	800606e <HAL_TIM_IC_ConfigChannel+0x122>
 8006026:	6803      	ldr	r3, [r0, #0]
 8006028:	6a18      	ldr	r0, [r3, #32]
 800602a:	f420 5080 	bic.w	r0, r0, #4096	; 0x1000
 800602e:	e9d1 2700 	ldrd	r2, r7, [r1]
 8006032:	68c9      	ldr	r1, [r1, #12]
 8006034:	6218      	str	r0, [r3, #32]
 8006036:	69d8      	ldr	r0, [r3, #28]
 8006038:	6a1e      	ldr	r6, [r3, #32]
 800603a:	f420 7040 	bic.w	r0, r0, #768	; 0x300
 800603e:	ea40 2007 	orr.w	r0, r0, r7, lsl #8
 8006042:	0309      	lsls	r1, r1, #12
 8006044:	f420 4070 	bic.w	r0, r0, #61440	; 0xf000
 8006048:	b289      	uxth	r1, r1
 800604a:	0312      	lsls	r2, r2, #12
 800604c:	4301      	orrs	r1, r0
 800604e:	f402 4220 	and.w	r2, r2, #40960	; 0xa000
 8006052:	f426 4020 	bic.w	r0, r6, #40960	; 0xa000
 8006056:	4302      	orrs	r2, r0
 8006058:	61d9      	str	r1, [r3, #28]
 800605a:	621a      	str	r2, [r3, #32]
 800605c:	69da      	ldr	r2, [r3, #28]
 800605e:	68a1      	ldr	r1, [r4, #8]
 8006060:	f422 6240 	bic.w	r2, r2, #3072	; 0xc00
 8006064:	61da      	str	r2, [r3, #28]
 8006066:	69da      	ldr	r2, [r3, #28]
 8006068:	ea42 2201 	orr.w	r2, r2, r1, lsl #8
 800606c:	e7d7      	b.n	800601e <HAL_TIM_IC_ConfigChannel+0xd2>
 800606e:	4618      	mov	r0, r3
 8006070:	e787      	b.n	8005f82 <HAL_TIM_IC_ConfigChannel+0x36>
 8006072:	2002      	movs	r0, #2
 8006074:	e788      	b.n	8005f88 <HAL_TIM_IC_ConfigChannel+0x3c>

08006076 <TIM_ETR_SetConfig>:
 8006076:	b510      	push	{r4, lr}
 8006078:	6884      	ldr	r4, [r0, #8]
 800607a:	4311      	orrs	r1, r2
 800607c:	f424 447f 	bic.w	r4, r4, #65280	; 0xff00
 8006080:	ea41 2303 	orr.w	r3, r1, r3, lsl #8
 8006084:	4323      	orrs	r3, r4
 8006086:	6083      	str	r3, [r0, #8]
 8006088:	bd10      	pop	{r4, pc}
	...

0800608c <HAL_TIM_ConfigClockSource>:
 800608c:	b538      	push	{r3, r4, r5, lr}
 800608e:	f890 303c 	ldrb.w	r3, [r0, #60]	; 0x3c
 8006092:	2b01      	cmp	r3, #1
 8006094:	4604      	mov	r4, r0
 8006096:	f04f 0302 	mov.w	r3, #2
 800609a:	f000 808c 	beq.w	80061b6 <HAL_TIM_ConfigClockSource+0x12a>
 800609e:	2201      	movs	r2, #1
 80060a0:	f880 303d 	strb.w	r3, [r0, #61]	; 0x3d
 80060a4:	f880 203c 	strb.w	r2, [r0, #60]	; 0x3c
 80060a8:	6800      	ldr	r0, [r0, #0]
 80060aa:	4b44      	ldr	r3, [pc, #272]	; (80061bc <HAL_TIM_ConfigClockSource+0x130>)
 80060ac:	6885      	ldr	r5, [r0, #8]
 80060ae:	402b      	ands	r3, r5
 80060b0:	6083      	str	r3, [r0, #8]
 80060b2:	680b      	ldr	r3, [r1, #0]
 80060b4:	2b60      	cmp	r3, #96	; 0x60
 80060b6:	d04f      	beq.n	8006158 <HAL_TIM_ConfigClockSource+0xcc>
 80060b8:	d832      	bhi.n	8006120 <HAL_TIM_ConfigClockSource+0x94>
 80060ba:	2b40      	cmp	r3, #64	; 0x40
 80060bc:	d064      	beq.n	8006188 <HAL_TIM_ConfigClockSource+0xfc>
 80060be:	d816      	bhi.n	80060ee <HAL_TIM_ConfigClockSource+0x62>
 80060c0:	2b20      	cmp	r3, #32
 80060c2:	d00d      	beq.n	80060e0 <HAL_TIM_ConfigClockSource+0x54>
 80060c4:	d80a      	bhi.n	80060dc <HAL_TIM_ConfigClockSource+0x50>
 80060c6:	f033 0110 	bics.w	r1, r3, #16
 80060ca:	d009      	beq.n	80060e0 <HAL_TIM_ConfigClockSource+0x54>
 80060cc:	2301      	movs	r3, #1
 80060ce:	f884 303d 	strb.w	r3, [r4, #61]	; 0x3d
 80060d2:	2300      	movs	r3, #0
 80060d4:	f884 303c 	strb.w	r3, [r4, #60]	; 0x3c
 80060d8:	4610      	mov	r0, r2
 80060da:	bd38      	pop	{r3, r4, r5, pc}
 80060dc:	2b30      	cmp	r3, #48	; 0x30
 80060de:	d1f5      	bne.n	80060cc <HAL_TIM_ConfigClockSource+0x40>
 80060e0:	6882      	ldr	r2, [r0, #8]
 80060e2:	f022 0270 	bic.w	r2, r2, #112	; 0x70
 80060e6:	4313      	orrs	r3, r2
 80060e8:	f043 0307 	orr.w	r3, r3, #7
 80060ec:	e028      	b.n	8006140 <HAL_TIM_ConfigClockSource+0xb4>
 80060ee:	2b50      	cmp	r3, #80	; 0x50
 80060f0:	d1ec      	bne.n	80060cc <HAL_TIM_ConfigClockSource+0x40>
 80060f2:	684a      	ldr	r2, [r1, #4]
 80060f4:	68cd      	ldr	r5, [r1, #12]
 80060f6:	6a01      	ldr	r1, [r0, #32]
 80060f8:	6a03      	ldr	r3, [r0, #32]
 80060fa:	f023 0301 	bic.w	r3, r3, #1
 80060fe:	6203      	str	r3, [r0, #32]
 8006100:	6983      	ldr	r3, [r0, #24]
 8006102:	f021 010a 	bic.w	r1, r1, #10
 8006106:	f023 03f0 	bic.w	r3, r3, #240	; 0xf0
 800610a:	ea43 1305 	orr.w	r3, r3, r5, lsl #4
 800610e:	430a      	orrs	r2, r1
 8006110:	6183      	str	r3, [r0, #24]
 8006112:	6202      	str	r2, [r0, #32]
 8006114:	6883      	ldr	r3, [r0, #8]
 8006116:	f023 0370 	bic.w	r3, r3, #112	; 0x70
 800611a:	f043 0357 	orr.w	r3, r3, #87	; 0x57
 800611e:	e00f      	b.n	8006140 <HAL_TIM_ConfigClockSource+0xb4>
 8006120:	f5b3 5f80 	cmp.w	r3, #4096	; 0x1000
 8006124:	d00d      	beq.n	8006142 <HAL_TIM_ConfigClockSource+0xb6>
 8006126:	f5b3 5f00 	cmp.w	r3, #8192	; 0x2000
 800612a:	d00c      	beq.n	8006146 <HAL_TIM_ConfigClockSource+0xba>
 800612c:	2b70      	cmp	r3, #112	; 0x70
 800612e:	d1cd      	bne.n	80060cc <HAL_TIM_ConfigClockSource+0x40>
 8006130:	68cb      	ldr	r3, [r1, #12]
 8006132:	e9d1 2101 	ldrd	r2, r1, [r1, #4]
 8006136:	f7ff ff9e 	bl	8006076 <TIM_ETR_SetConfig>
 800613a:	6883      	ldr	r3, [r0, #8]
 800613c:	f043 0377 	orr.w	r3, r3, #119	; 0x77
 8006140:	6083      	str	r3, [r0, #8]
 8006142:	2200      	movs	r2, #0
 8006144:	e7c2      	b.n	80060cc <HAL_TIM_ConfigClockSource+0x40>
 8006146:	68cb      	ldr	r3, [r1, #12]
 8006148:	e9d1 2101 	ldrd	r2, r1, [r1, #4]
 800614c:	f7ff ff93 	bl	8006076 <TIM_ETR_SetConfig>
 8006150:	6883      	ldr	r3, [r0, #8]
 8006152:	f443 4380 	orr.w	r3, r3, #16384	; 0x4000
 8006156:	e7f3      	b.n	8006140 <HAL_TIM_ConfigClockSource+0xb4>
 8006158:	6a03      	ldr	r3, [r0, #32]
 800615a:	684d      	ldr	r5, [r1, #4]
 800615c:	68c9      	ldr	r1, [r1, #12]
 800615e:	f023 0310 	bic.w	r3, r3, #16
 8006162:	6203      	str	r3, [r0, #32]
 8006164:	6982      	ldr	r2, [r0, #24]
 8006166:	6a03      	ldr	r3, [r0, #32]
 8006168:	f422 4270 	bic.w	r2, r2, #61440	; 0xf000
 800616c:	f023 03a0 	bic.w	r3, r3, #160	; 0xa0
 8006170:	ea43 1305 	orr.w	r3, r3, r5, lsl #4
 8006174:	ea42 3201 	orr.w	r2, r2, r1, lsl #12
 8006178:	6182      	str	r2, [r0, #24]
 800617a:	6203      	str	r3, [r0, #32]
 800617c:	6883      	ldr	r3, [r0, #8]
 800617e:	f023 0370 	bic.w	r3, r3, #112	; 0x70
 8006182:	f043 0367 	orr.w	r3, r3, #103	; 0x67
 8006186:	e7db      	b.n	8006140 <HAL_TIM_ConfigClockSource+0xb4>
 8006188:	684a      	ldr	r2, [r1, #4]
 800618a:	68cd      	ldr	r5, [r1, #12]
 800618c:	6a01      	ldr	r1, [r0, #32]
 800618e:	6a03      	ldr	r3, [r0, #32]
 8006190:	f023 0301 	bic.w	r3, r3, #1
 8006194:	6203      	str	r3, [r0, #32]
 8006196:	6983      	ldr	r3, [r0, #24]
 8006198:	f021 010a 	bic.w	r1, r1, #10
 800619c:	f023 03f0 	bic.w	r3, r3, #240	; 0xf0
 80061a0:	ea43 1305 	orr.w	r3, r3, r5, lsl #4
 80061a4:	430a      	orrs	r2, r1
 80061a6:	6183      	str	r3, [r0, #24]
 80061a8:	6202      	str	r2, [r0, #32]
 80061aa:	6883      	ldr	r3, [r0, #8]
 80061ac:	f023 0370 	bic.w	r3, r3, #112	; 0x70
 80061b0:	f043 0347 	orr.w	r3, r3, #71	; 0x47
 80061b4:	e7c4      	b.n	8006140 <HAL_TIM_ConfigClockSource+0xb4>
 80061b6:	461a      	mov	r2, r3
 80061b8:	e78e      	b.n	80060d8 <HAL_TIM_ConfigClockSource+0x4c>
 80061ba:	bf00      	nop
 80061bc:	fffe0088 	.word	0xfffe0088

080061c0 <TIM_CCxChannelCmd>:
 80061c0:	6a03      	ldr	r3, [r0, #32]
 80061c2:	f001 011f 	and.w	r1, r1, #31
 80061c6:	b510      	push	{r4, lr}
 80061c8:	2401      	movs	r4, #1
 80061ca:	408c      	lsls	r4, r1
 80061cc:	ea23 0304 	bic.w	r3, r3, r4
 80061d0:	6203      	str	r3, [r0, #32]
 80061d2:	6a03      	ldr	r3, [r0, #32]
 80061d4:	408a      	lsls	r2, r1
 80061d6:	431a      	orrs	r2, r3
 80061d8:	6202      	str	r2, [r0, #32]
 80061da:	bd10      	pop	{r4, pc}

080061dc <HAL_TIM_OC_Start>:
 80061dc:	2908      	cmp	r1, #8
 80061de:	b508      	push	{r3, lr}
 80061e0:	d018      	beq.n	8006214 <HAL_TIM_OC_Start+0x38>
 80061e2:	d805      	bhi.n	80061f0 <HAL_TIM_OC_Start+0x14>
 80061e4:	b159      	cbz	r1, 80061fe <HAL_TIM_OC_Start+0x22>
 80061e6:	2904      	cmp	r1, #4
 80061e8:	d011      	beq.n	800620e <HAL_TIM_OC_Start+0x32>
 80061ea:	f890 3043 	ldrb.w	r3, [r0, #67]	; 0x43
 80061ee:	e013      	b.n	8006218 <HAL_TIM_OC_Start+0x3c>
 80061f0:	290c      	cmp	r1, #12
 80061f2:	d023      	beq.n	800623c <HAL_TIM_OC_Start+0x60>
 80061f4:	2910      	cmp	r1, #16
 80061f6:	d1f8      	bne.n	80061ea <HAL_TIM_OC_Start+0xe>
 80061f8:	f890 3042 	ldrb.w	r3, [r0, #66]	; 0x42
 80061fc:	e00c      	b.n	8006218 <HAL_TIM_OC_Start+0x3c>
 80061fe:	f890 303e 	ldrb.w	r3, [r0, #62]	; 0x3e
 8006202:	3b01      	subs	r3, #1
 8006204:	bf18      	it	ne
 8006206:	2301      	movne	r3, #1
 8006208:	b183      	cbz	r3, 800622c <HAL_TIM_OC_Start+0x50>
 800620a:	2001      	movs	r0, #1
 800620c:	e042      	b.n	8006294 <HAL_TIM_OC_Start+0xb8>
 800620e:	f890 303f 	ldrb.w	r3, [r0, #63]	; 0x3f
 8006212:	e7f6      	b.n	8006202 <HAL_TIM_OC_Start+0x26>
 8006214:	f890 3040 	ldrb.w	r3, [r0, #64]	; 0x40
 8006218:	3b01      	subs	r3, #1
 800621a:	bf18      	it	ne
 800621c:	2301      	movne	r3, #1
 800621e:	2b00      	cmp	r3, #0
 8006220:	d1f3      	bne.n	800620a <HAL_TIM_OC_Start+0x2e>
 8006222:	2908      	cmp	r1, #8
 8006224:	f04f 0302 	mov.w	r3, #2
 8006228:	d038      	beq.n	800629c <HAL_TIM_OC_Start+0xc0>
 800622a:	d80a      	bhi.n	8006242 <HAL_TIM_OC_Start+0x66>
 800622c:	2302      	movs	r3, #2
 800622e:	b179      	cbz	r1, 8006250 <HAL_TIM_OC_Start+0x74>
 8006230:	2904      	cmp	r1, #4
 8006232:	d030      	beq.n	8006296 <HAL_TIM_OC_Start+0xba>
 8006234:	2302      	movs	r3, #2
 8006236:	f880 3043 	strb.w	r3, [r0, #67]	; 0x43
 800623a:	e00b      	b.n	8006254 <HAL_TIM_OC_Start+0x78>
 800623c:	f890 3041 	ldrb.w	r3, [r0, #65]	; 0x41
 8006240:	e7ea      	b.n	8006218 <HAL_TIM_OC_Start+0x3c>
 8006242:	290c      	cmp	r1, #12
 8006244:	d02d      	beq.n	80062a2 <HAL_TIM_OC_Start+0xc6>
 8006246:	2910      	cmp	r1, #16
 8006248:	d1f4      	bne.n	8006234 <HAL_TIM_OC_Start+0x58>
 800624a:	f880 3042 	strb.w	r3, [r0, #66]	; 0x42
 800624e:	e001      	b.n	8006254 <HAL_TIM_OC_Start+0x78>
 8006250:	f880 303e 	strb.w	r3, [r0, #62]	; 0x3e
 8006254:	6800      	ldr	r0, [r0, #0]
 8006256:	2201      	movs	r2, #1
 8006258:	f7ff ffb2 	bl	80061c0 <TIM_CCxChannelCmd>
 800625c:	4b22      	ldr	r3, [pc, #136]	; (80062e8 <HAL_TIM_OC_Start+0x10c>)
 800625e:	4298      	cmp	r0, r3
 8006260:	d022      	beq.n	80062a8 <HAL_TIM_OC_Start+0xcc>
 8006262:	f503 6300 	add.w	r3, r3, #2048	; 0x800
 8006266:	4298      	cmp	r0, r3
 8006268:	d01e      	beq.n	80062a8 <HAL_TIM_OC_Start+0xcc>
 800626a:	f503 6340 	add.w	r3, r3, #3072	; 0xc00
 800626e:	4298      	cmp	r0, r3
 8006270:	d01a      	beq.n	80062a8 <HAL_TIM_OC_Start+0xcc>
 8006272:	f503 6380 	add.w	r3, r3, #1024	; 0x400
 8006276:	4298      	cmp	r0, r3
 8006278:	d016      	beq.n	80062a8 <HAL_TIM_OC_Start+0xcc>
 800627a:	f503 6380 	add.w	r3, r3, #1024	; 0x400
 800627e:	4298      	cmp	r0, r3
 8006280:	d012      	beq.n	80062a8 <HAL_TIM_OC_Start+0xcc>
 8006282:	f1b0 4f80 	cmp.w	r0, #1073741824	; 0x40000000
 8006286:	d117      	bne.n	80062b8 <HAL_TIM_OC_Start+0xdc>
 8006288:	6882      	ldr	r2, [r0, #8]
 800628a:	4b18      	ldr	r3, [pc, #96]	; (80062ec <HAL_TIM_OC_Start+0x110>)
 800628c:	4013      	ands	r3, r2
 800628e:	2b06      	cmp	r3, #6
 8006290:	d126      	bne.n	80062e0 <HAL_TIM_OC_Start+0x104>
 8006292:	2000      	movs	r0, #0
 8006294:	bd08      	pop	{r3, pc}
 8006296:	f880 303f 	strb.w	r3, [r0, #63]	; 0x3f
 800629a:	e7db      	b.n	8006254 <HAL_TIM_OC_Start+0x78>
 800629c:	f880 3040 	strb.w	r3, [r0, #64]	; 0x40
 80062a0:	e7d8      	b.n	8006254 <HAL_TIM_OC_Start+0x78>
 80062a2:	f880 3041 	strb.w	r3, [r0, #65]	; 0x41
 80062a6:	e7d5      	b.n	8006254 <HAL_TIM_OC_Start+0x78>
 80062a8:	6c43      	ldr	r3, [r0, #68]	; 0x44
 80062aa:	f443 4300 	orr.w	r3, r3, #32768	; 0x8000
 80062ae:	6443      	str	r3, [r0, #68]	; 0x44
 80062b0:	4b0d      	ldr	r3, [pc, #52]	; (80062e8 <HAL_TIM_OC_Start+0x10c>)
 80062b2:	4298      	cmp	r0, r3
 80062b4:	d1e5      	bne.n	8006282 <HAL_TIM_OC_Start+0xa6>
 80062b6:	e7e7      	b.n	8006288 <HAL_TIM_OC_Start+0xac>
 80062b8:	4b0d      	ldr	r3, [pc, #52]	; (80062f0 <HAL_TIM_OC_Start+0x114>)
 80062ba:	4298      	cmp	r0, r3
 80062bc:	d0e4      	beq.n	8006288 <HAL_TIM_OC_Start+0xac>
 80062be:	f503 6380 	add.w	r3, r3, #1024	; 0x400
 80062c2:	4298      	cmp	r0, r3
 80062c4:	d0e0      	beq.n	8006288 <HAL_TIM_OC_Start+0xac>
 80062c6:	f503 3396 	add.w	r3, r3, #76800	; 0x12c00
 80062ca:	4298      	cmp	r0, r3
 80062cc:	d0dc      	beq.n	8006288 <HAL_TIM_OC_Start+0xac>
 80062ce:	f503 6340 	add.w	r3, r3, #3072	; 0xc00
 80062d2:	4298      	cmp	r0, r3
 80062d4:	d0d8      	beq.n	8006288 <HAL_TIM_OC_Start+0xac>
 80062d6:	6803      	ldr	r3, [r0, #0]
 80062d8:	f043 0301 	orr.w	r3, r3, #1
 80062dc:	6003      	str	r3, [r0, #0]
 80062de:	e7d8      	b.n	8006292 <HAL_TIM_OC_Start+0xb6>
 80062e0:	f5b3 3f80 	cmp.w	r3, #65536	; 0x10000
 80062e4:	d1f7      	bne.n	80062d6 <HAL_TIM_OC_Start+0xfa>
 80062e6:	e7d4      	b.n	8006292 <HAL_TIM_OC_Start+0xb6>
 80062e8:	40012c00 	.word	0x40012c00
 80062ec:	00010007 	.word	0x00010007
 80062f0:	40000400 	.word	0x40000400

080062f4 <HAL_TIM_PWM_Start>:
 80062f4:	f7ff bf72 	b.w	80061dc <HAL_TIM_OC_Start>

080062f8 <HAL_TIM_OC_Stop>:
 80062f8:	b568      	push	{r3, r5, r6, lr}
 80062fa:	2200      	movs	r2, #0
 80062fc:	4605      	mov	r5, r0
 80062fe:	6800      	ldr	r0, [r0, #0]
 8006300:	460e      	mov	r6, r1
 8006302:	f7ff ff5d 	bl	80061c0 <TIM_CCxChannelCmd>
 8006306:	4b27      	ldr	r3, [pc, #156]	; (80063a4 <HAL_TIM_OC_Stop+0xac>)
 8006308:	4298      	cmp	r0, r3
 800630a:	d00f      	beq.n	800632c <HAL_TIM_OC_Stop+0x34>
 800630c:	f503 6300 	add.w	r3, r3, #2048	; 0x800
 8006310:	4298      	cmp	r0, r3
 8006312:	d00b      	beq.n	800632c <HAL_TIM_OC_Stop+0x34>
 8006314:	f503 6340 	add.w	r3, r3, #3072	; 0xc00
 8006318:	4298      	cmp	r0, r3
 800631a:	d007      	beq.n	800632c <HAL_TIM_OC_Stop+0x34>
 800631c:	f503 6380 	add.w	r3, r3, #1024	; 0x400
 8006320:	4298      	cmp	r0, r3
 8006322:	d003      	beq.n	800632c <HAL_TIM_OC_Stop+0x34>
 8006324:	f503 6380 	add.w	r3, r3, #1024	; 0x400
 8006328:	4298      	cmp	r0, r3
 800632a:	d10d      	bne.n	8006348 <HAL_TIM_OC_Stop+0x50>
 800632c:	6a02      	ldr	r2, [r0, #32]
 800632e:	f241 1311 	movw	r3, #4369	; 0x1111
 8006332:	421a      	tst	r2, r3
 8006334:	d108      	bne.n	8006348 <HAL_TIM_OC_Stop+0x50>
 8006336:	6a02      	ldr	r2, [r0, #32]
 8006338:	f240 4344 	movw	r3, #1092	; 0x444
 800633c:	421a      	tst	r2, r3
 800633e:	bf02      	ittt	eq
 8006340:	6c43      	ldreq	r3, [r0, #68]	; 0x44
 8006342:	f423 4300 	biceq.w	r3, r3, #32768	; 0x8000
 8006346:	6443      	streq	r3, [r0, #68]	; 0x44
 8006348:	6a02      	ldr	r2, [r0, #32]
 800634a:	f241 1311 	movw	r3, #4369	; 0x1111
 800634e:	421a      	tst	r2, r3
 8006350:	d108      	bne.n	8006364 <HAL_TIM_OC_Stop+0x6c>
 8006352:	6a02      	ldr	r2, [r0, #32]
 8006354:	f240 4344 	movw	r3, #1092	; 0x444
 8006358:	421a      	tst	r2, r3
 800635a:	bf02      	ittt	eq
 800635c:	6803      	ldreq	r3, [r0, #0]
 800635e:	f023 0301 	biceq.w	r3, r3, #1
 8006362:	6003      	streq	r3, [r0, #0]
 8006364:	2301      	movs	r3, #1
 8006366:	b91e      	cbnz	r6, 8006370 <HAL_TIM_OC_Stop+0x78>
 8006368:	f885 303e 	strb.w	r3, [r5, #62]	; 0x3e
 800636c:	2000      	movs	r0, #0
 800636e:	bd68      	pop	{r3, r5, r6, pc}
 8006370:	2e0c      	cmp	r6, #12
 8006372:	d013      	beq.n	800639c <HAL_TIM_OC_Stop+0xa4>
 8006374:	d807      	bhi.n	8006386 <HAL_TIM_OC_Stop+0x8e>
 8006376:	2e04      	cmp	r6, #4
 8006378:	d00a      	beq.n	8006390 <HAL_TIM_OC_Stop+0x98>
 800637a:	2e08      	cmp	r6, #8
 800637c:	d00b      	beq.n	8006396 <HAL_TIM_OC_Stop+0x9e>
 800637e:	2301      	movs	r3, #1
 8006380:	f885 3043 	strb.w	r3, [r5, #67]	; 0x43
 8006384:	e7f2      	b.n	800636c <HAL_TIM_OC_Stop+0x74>
 8006386:	2e10      	cmp	r6, #16
 8006388:	d1f9      	bne.n	800637e <HAL_TIM_OC_Stop+0x86>
 800638a:	f885 3042 	strb.w	r3, [r5, #66]	; 0x42
 800638e:	e7ed      	b.n	800636c <HAL_TIM_OC_Stop+0x74>
 8006390:	f885 303f 	strb.w	r3, [r5, #63]	; 0x3f
 8006394:	e7ea      	b.n	800636c <HAL_TIM_OC_Stop+0x74>
 8006396:	f885 3040 	strb.w	r3, [r5, #64]	; 0x40
 800639a:	e7e7      	b.n	800636c <HAL_TIM_OC_Stop+0x74>
 800639c:	f885 3041 	strb.w	r3, [r5, #65]	; 0x41
 80063a0:	e7e4      	b.n	800636c <HAL_TIM_OC_Stop+0x74>
 80063a2:	bf00      	nop
 80063a4:	40012c00 	.word	0x40012c00

080063a8 <HAL_TIM_PWM_Stop>:
 80063a8:	f7ff bfa6 	b.w	80062f8 <HAL_TIM_OC_Stop>

080063ac <HAL_TIM_IC_Start_IT>:
 80063ac:	2908      	cmp	r1, #8
 80063ae:	b508      	push	{r3, lr}
 80063b0:	4603      	mov	r3, r0
 80063b2:	d01d      	beq.n	80063f0 <HAL_TIM_IC_Start_IT+0x44>
 80063b4:	d809      	bhi.n	80063ca <HAL_TIM_IC_Start_IT+0x1e>
 80063b6:	b179      	cbz	r1, 80063d8 <HAL_TIM_IC_Start_IT+0x2c>
 80063b8:	2904      	cmp	r1, #4
 80063ba:	d013      	beq.n	80063e4 <HAL_TIM_IC_Start_IT+0x38>
 80063bc:	f893 2043 	ldrb.w	r2, [r3, #67]	; 0x43
 80063c0:	b2d2      	uxtb	r2, r2
 80063c2:	b161      	cbz	r1, 80063de <HAL_TIM_IC_Start_IT+0x32>
 80063c4:	2904      	cmp	r1, #4
 80063c6:	d010      	beq.n	80063ea <HAL_TIM_IC_Start_IT+0x3e>
 80063c8:	e02e      	b.n	8006428 <HAL_TIM_IC_Start_IT+0x7c>
 80063ca:	290c      	cmp	r1, #12
 80063cc:	d029      	beq.n	8006422 <HAL_TIM_IC_Start_IT+0x76>
 80063ce:	2910      	cmp	r1, #16
 80063d0:	d1f4      	bne.n	80063bc <HAL_TIM_IC_Start_IT+0x10>
 80063d2:	f890 2042 	ldrb.w	r2, [r0, #66]	; 0x42
 80063d6:	e026      	b.n	8006426 <HAL_TIM_IC_Start_IT+0x7a>
 80063d8:	f890 203e 	ldrb.w	r2, [r0, #62]	; 0x3e
 80063dc:	b2d2      	uxtb	r2, r2
 80063de:	f893 0044 	ldrb.w	r0, [r3, #68]	; 0x44
 80063e2:	e00a      	b.n	80063fa <HAL_TIM_IC_Start_IT+0x4e>
 80063e4:	f890 203f 	ldrb.w	r2, [r0, #63]	; 0x3f
 80063e8:	b2d2      	uxtb	r2, r2
 80063ea:	f893 0045 	ldrb.w	r0, [r3, #69]	; 0x45
 80063ee:	e004      	b.n	80063fa <HAL_TIM_IC_Start_IT+0x4e>
 80063f0:	f890 2040 	ldrb.w	r2, [r0, #64]	; 0x40
 80063f4:	f890 0046 	ldrb.w	r0, [r0, #70]	; 0x46
 80063f8:	b2d2      	uxtb	r2, r2
 80063fa:	2a01      	cmp	r2, #1
 80063fc:	b2c0      	uxtb	r0, r0
 80063fe:	d176      	bne.n	80064ee <HAL_TIM_IC_Start_IT+0x142>
 8006400:	2801      	cmp	r0, #1
 8006402:	d174      	bne.n	80064ee <HAL_TIM_IC_Start_IT+0x142>
 8006404:	2908      	cmp	r1, #8
 8006406:	f04f 0202 	mov.w	r2, #2
 800640a:	d02b      	beq.n	8006464 <HAL_TIM_IC_Start_IT+0xb8>
 800640c:	d80f      	bhi.n	800642e <HAL_TIM_IC_Start_IT+0x82>
 800640e:	b1a9      	cbz	r1, 800643c <HAL_TIM_IC_Start_IT+0x90>
 8006410:	2904      	cmp	r1, #4
 8006412:	d01d      	beq.n	8006450 <HAL_TIM_IC_Start_IT+0xa4>
 8006414:	2202      	movs	r2, #2
 8006416:	f883 2043 	strb.w	r2, [r3, #67]	; 0x43
 800641a:	b189      	cbz	r1, 8006440 <HAL_TIM_IC_Start_IT+0x94>
 800641c:	2904      	cmp	r1, #4
 800641e:	d019      	beq.n	8006454 <HAL_TIM_IC_Start_IT+0xa8>
 8006420:	e053      	b.n	80064ca <HAL_TIM_IC_Start_IT+0x11e>
 8006422:	f890 2041 	ldrb.w	r2, [r0, #65]	; 0x41
 8006426:	b2d2      	uxtb	r2, r2
 8006428:	f893 0047 	ldrb.w	r0, [r3, #71]	; 0x47
 800642c:	e7e5      	b.n	80063fa <HAL_TIM_IC_Start_IT+0x4e>
 800642e:	290c      	cmp	r1, #12
 8006430:	d049      	beq.n	80064c6 <HAL_TIM_IC_Start_IT+0x11a>
 8006432:	2910      	cmp	r1, #16
 8006434:	d1ee      	bne.n	8006414 <HAL_TIM_IC_Start_IT+0x68>
 8006436:	f883 2042 	strb.w	r2, [r3, #66]	; 0x42
 800643a:	e046      	b.n	80064ca <HAL_TIM_IC_Start_IT+0x11e>
 800643c:	f883 203e 	strb.w	r2, [r3, #62]	; 0x3e
 8006440:	2202      	movs	r2, #2
 8006442:	f883 2044 	strb.w	r2, [r3, #68]	; 0x44
 8006446:	6818      	ldr	r0, [r3, #0]
 8006448:	68c2      	ldr	r2, [r0, #12]
 800644a:	f042 0202 	orr.w	r2, r2, #2
 800644e:	e011      	b.n	8006474 <HAL_TIM_IC_Start_IT+0xc8>
 8006450:	f883 203f 	strb.w	r2, [r3, #63]	; 0x3f
 8006454:	2202      	movs	r2, #2
 8006456:	f883 2045 	strb.w	r2, [r3, #69]	; 0x45
 800645a:	6818      	ldr	r0, [r3, #0]
 800645c:	68c2      	ldr	r2, [r0, #12]
 800645e:	f042 0204 	orr.w	r2, r2, #4
 8006462:	e007      	b.n	8006474 <HAL_TIM_IC_Start_IT+0xc8>
 8006464:	6818      	ldr	r0, [r3, #0]
 8006466:	f883 2040 	strb.w	r2, [r3, #64]	; 0x40
 800646a:	f883 2046 	strb.w	r2, [r3, #70]	; 0x46
 800646e:	68c2      	ldr	r2, [r0, #12]
 8006470:	f042 0208 	orr.w	r2, r2, #8
 8006474:	60c2      	str	r2, [r0, #12]
 8006476:	6818      	ldr	r0, [r3, #0]
 8006478:	2201      	movs	r2, #1
 800647a:	f7ff fea1 	bl	80061c0 <TIM_CCxChannelCmd>
 800647e:	4b1d      	ldr	r3, [pc, #116]	; (80064f4 <HAL_TIM_IC_Start_IT+0x148>)
 8006480:	4298      	cmp	r0, r3
 8006482:	d012      	beq.n	80064aa <HAL_TIM_IC_Start_IT+0xfe>
 8006484:	f1b0 4f80 	cmp.w	r0, #1073741824	; 0x40000000
 8006488:	d00f      	beq.n	80064aa <HAL_TIM_IC_Start_IT+0xfe>
 800648a:	f5a3 3394 	sub.w	r3, r3, #75776	; 0x12800
 800648e:	4298      	cmp	r0, r3
 8006490:	d00b      	beq.n	80064aa <HAL_TIM_IC_Start_IT+0xfe>
 8006492:	f503 6380 	add.w	r3, r3, #1024	; 0x400
 8006496:	4298      	cmp	r0, r3
 8006498:	d007      	beq.n	80064aa <HAL_TIM_IC_Start_IT+0xfe>
 800649a:	f503 3396 	add.w	r3, r3, #76800	; 0x12c00
 800649e:	4298      	cmp	r0, r3
 80064a0:	d003      	beq.n	80064aa <HAL_TIM_IC_Start_IT+0xfe>
 80064a2:	f503 6340 	add.w	r3, r3, #3072	; 0xc00
 80064a6:	4298      	cmp	r0, r3
 80064a8:	d107      	bne.n	80064ba <HAL_TIM_IC_Start_IT+0x10e>
 80064aa:	6882      	ldr	r2, [r0, #8]
 80064ac:	4b12      	ldr	r3, [pc, #72]	; (80064f8 <HAL_TIM_IC_Start_IT+0x14c>)
 80064ae:	4013      	ands	r3, r2
 80064b0:	2b06      	cmp	r3, #6
 80064b2:	d006      	beq.n	80064c2 <HAL_TIM_IC_Start_IT+0x116>
 80064b4:	f5b3 3f80 	cmp.w	r3, #65536	; 0x10000
 80064b8:	d003      	beq.n	80064c2 <HAL_TIM_IC_Start_IT+0x116>
 80064ba:	6803      	ldr	r3, [r0, #0]
 80064bc:	f043 0301 	orr.w	r3, r3, #1
 80064c0:	6003      	str	r3, [r0, #0]
 80064c2:	2000      	movs	r0, #0
 80064c4:	e014      	b.n	80064f0 <HAL_TIM_IC_Start_IT+0x144>
 80064c6:	f883 2041 	strb.w	r2, [r3, #65]	; 0x41
 80064ca:	2202      	movs	r2, #2
 80064cc:	290c      	cmp	r1, #12
 80064ce:	f883 2047 	strb.w	r2, [r3, #71]	; 0x47
 80064d2:	d007      	beq.n	80064e4 <HAL_TIM_IC_Start_IT+0x138>
 80064d4:	d80c      	bhi.n	80064f0 <HAL_TIM_IC_Start_IT+0x144>
 80064d6:	2908      	cmp	r1, #8
 80064d8:	d80a      	bhi.n	80064f0 <HAL_TIM_IC_Start_IT+0x144>
 80064da:	2900      	cmp	r1, #0
 80064dc:	d0b3      	beq.n	8006446 <HAL_TIM_IC_Start_IT+0x9a>
 80064de:	2904      	cmp	r1, #4
 80064e0:	d106      	bne.n	80064f0 <HAL_TIM_IC_Start_IT+0x144>
 80064e2:	e7ba      	b.n	800645a <HAL_TIM_IC_Start_IT+0xae>
 80064e4:	6818      	ldr	r0, [r3, #0]
 80064e6:	68c2      	ldr	r2, [r0, #12]
 80064e8:	f042 0210 	orr.w	r2, r2, #16
 80064ec:	e7c2      	b.n	8006474 <HAL_TIM_IC_Start_IT+0xc8>
 80064ee:	2001      	movs	r0, #1
 80064f0:	bd08      	pop	{r3, pc}
 80064f2:	bf00      	nop
 80064f4:	40012c00 	.word	0x40012c00
 80064f8:	00010007 	.word	0x00010007

080064fc <TIM_CCxNChannelCmd>:
 80064fc:	6a03      	ldr	r3, [r0, #32]
 80064fe:	f001 011f 	and.w	r1, r1, #31
 8006502:	b510      	push	{r4, lr}
 8006504:	2404      	movs	r4, #4
 8006506:	408c      	lsls	r4, r1
 8006508:	ea23 0304 	bic.w	r3, r3, r4
 800650c:	6203      	str	r3, [r0, #32]
 800650e:	6a03      	ldr	r3, [r0, #32]
 8006510:	408a      	lsls	r2, r1
 8006512:	431a      	orrs	r2, r3
 8006514:	6202      	str	r2, [r0, #32]
 8006516:	bd10      	pop	{r4, pc}

08006518 <HAL_TIMEx_OCN_Start>:
 8006518:	b508      	push	{r3, lr}
 800651a:	b929      	cbnz	r1, 8006528 <HAL_TIMEx_OCN_Start+0x10>
 800651c:	f890 3044 	ldrb.w	r3, [r0, #68]	; 0x44
 8006520:	2b01      	cmp	r3, #1
 8006522:	d01d      	beq.n	8006560 <HAL_TIMEx_OCN_Start+0x48>
 8006524:	2001      	movs	r0, #1
 8006526:	bd08      	pop	{r3, pc}
 8006528:	2904      	cmp	r1, #4
 800652a:	d107      	bne.n	800653c <HAL_TIMEx_OCN_Start+0x24>
 800652c:	f890 3045 	ldrb.w	r3, [r0, #69]	; 0x45
 8006530:	2b01      	cmp	r3, #1
 8006532:	d1f7      	bne.n	8006524 <HAL_TIMEx_OCN_Start+0xc>
 8006534:	2302      	movs	r3, #2
 8006536:	f880 3045 	strb.w	r3, [r0, #69]	; 0x45
 800653a:	e014      	b.n	8006566 <HAL_TIMEx_OCN_Start+0x4e>
 800653c:	2908      	cmp	r1, #8
 800653e:	d107      	bne.n	8006550 <HAL_TIMEx_OCN_Start+0x38>
 8006540:	f890 3046 	ldrb.w	r3, [r0, #70]	; 0x46
 8006544:	2b01      	cmp	r3, #1
 8006546:	d1ed      	bne.n	8006524 <HAL_TIMEx_OCN_Start+0xc>
 8006548:	2302      	movs	r3, #2
 800654a:	f880 3046 	strb.w	r3, [r0, #70]	; 0x46
 800654e:	e00a      	b.n	8006566 <HAL_TIMEx_OCN_Start+0x4e>
 8006550:	f890 3047 	ldrb.w	r3, [r0, #71]	; 0x47
 8006554:	2b01      	cmp	r3, #1
 8006556:	d1e5      	bne.n	8006524 <HAL_TIMEx_OCN_Start+0xc>
 8006558:	2302      	movs	r3, #2
 800655a:	f880 3047 	strb.w	r3, [r0, #71]	; 0x47
 800655e:	e002      	b.n	8006566 <HAL_TIMEx_OCN_Start+0x4e>
 8006560:	2302      	movs	r3, #2
 8006562:	f880 3044 	strb.w	r3, [r0, #68]	; 0x44
 8006566:	6800      	ldr	r0, [r0, #0]
 8006568:	2204      	movs	r2, #4
 800656a:	f7ff ffc7 	bl	80064fc <TIM_CCxNChannelCmd>
 800656e:	6c43      	ldr	r3, [r0, #68]	; 0x44
 8006570:	f443 4300 	orr.w	r3, r3, #32768	; 0x8000
 8006574:	6443      	str	r3, [r0, #68]	; 0x44
 8006576:	4b12      	ldr	r3, [pc, #72]	; (80065c0 <HAL_TIMEx_OCN_Start+0xa8>)
 8006578:	4298      	cmp	r0, r3
 800657a:	d012      	beq.n	80065a2 <HAL_TIMEx_OCN_Start+0x8a>
 800657c:	f1b0 4f80 	cmp.w	r0, #1073741824	; 0x40000000
 8006580:	d00f      	beq.n	80065a2 <HAL_TIMEx_OCN_Start+0x8a>
 8006582:	f5a3 3394 	sub.w	r3, r3, #75776	; 0x12800
 8006586:	4298      	cmp	r0, r3
 8006588:	d00b      	beq.n	80065a2 <HAL_TIMEx_OCN_Start+0x8a>
 800658a:	f503 6380 	add.w	r3, r3, #1024	; 0x400
 800658e:	4298      	cmp	r0, r3
 8006590:	d007      	beq.n	80065a2 <HAL_TIMEx_OCN_Start+0x8a>
 8006592:	f503 3396 	add.w	r3, r3, #76800	; 0x12c00
 8006596:	4298      	cmp	r0, r3
 8006598:	d003      	beq.n	80065a2 <HAL_TIMEx_OCN_Start+0x8a>
 800659a:	f503 6340 	add.w	r3, r3, #3072	; 0xc00
 800659e:	4298      	cmp	r0, r3
 80065a0:	d107      	bne.n	80065b2 <HAL_TIMEx_OCN_Start+0x9a>
 80065a2:	6882      	ldr	r2, [r0, #8]
 80065a4:	4b07      	ldr	r3, [pc, #28]	; (80065c4 <HAL_TIMEx_OCN_Start+0xac>)
 80065a6:	4013      	ands	r3, r2
 80065a8:	2b06      	cmp	r3, #6
 80065aa:	d006      	beq.n	80065ba <HAL_TIMEx_OCN_Start+0xa2>
 80065ac:	f5b3 3f80 	cmp.w	r3, #65536	; 0x10000
 80065b0:	d003      	beq.n	80065ba <HAL_TIMEx_OCN_Start+0xa2>
 80065b2:	6803      	ldr	r3, [r0, #0]
 80065b4:	f043 0301 	orr.w	r3, r3, #1
 80065b8:	6003      	str	r3, [r0, #0]
 80065ba:	2000      	movs	r0, #0
 80065bc:	e7b3      	b.n	8006526 <HAL_TIMEx_OCN_Start+0xe>
 80065be:	bf00      	nop
 80065c0:	40012c00 	.word	0x40012c00
 80065c4:	00010007 	.word	0x00010007

080065c8 <HAL_TIMEx_OCN_Stop>:
 80065c8:	b568      	push	{r3, r5, r6, lr}
 80065ca:	4605      	mov	r5, r0
 80065cc:	6800      	ldr	r0, [r0, #0]
 80065ce:	2200      	movs	r2, #0
 80065d0:	460e      	mov	r6, r1
 80065d2:	f7ff ff93 	bl	80064fc <TIM_CCxNChannelCmd>
 80065d6:	6a02      	ldr	r2, [r0, #32]
 80065d8:	f241 1311 	movw	r3, #4369	; 0x1111
 80065dc:	421a      	tst	r2, r3
 80065de:	d108      	bne.n	80065f2 <HAL_TIMEx_OCN_Stop+0x2a>
 80065e0:	6a02      	ldr	r2, [r0, #32]
 80065e2:	f240 4344 	movw	r3, #1092	; 0x444
 80065e6:	421a      	tst	r2, r3
 80065e8:	bf02      	ittt	eq
 80065ea:	6c43      	ldreq	r3, [r0, #68]	; 0x44
 80065ec:	f423 4300 	biceq.w	r3, r3, #32768	; 0x8000
 80065f0:	6443      	streq	r3, [r0, #68]	; 0x44
 80065f2:	6a02      	ldr	r2, [r0, #32]
 80065f4:	f241 1311 	movw	r3, #4369	; 0x1111
 80065f8:	421a      	tst	r2, r3
 80065fa:	d108      	bne.n	800660e <HAL_TIMEx_OCN_Stop+0x46>
 80065fc:	6a02      	ldr	r2, [r0, #32]
 80065fe:	f240 4344 	movw	r3, #1092	; 0x444
 8006602:	421a      	tst	r2, r3
 8006604:	bf02      	ittt	eq
 8006606:	6803      	ldreq	r3, [r0, #0]
 8006608:	f023 0301 	biceq.w	r3, r3, #1
 800660c:	6003      	streq	r3, [r0, #0]
 800660e:	2301      	movs	r3, #1
 8006610:	b91e      	cbnz	r6, 800661a <HAL_TIMEx_OCN_Stop+0x52>
 8006612:	f885 3044 	strb.w	r3, [r5, #68]	; 0x44
 8006616:	2000      	movs	r0, #0
 8006618:	bd68      	pop	{r3, r5, r6, pc}
 800661a:	2e04      	cmp	r6, #4
 800661c:	d102      	bne.n	8006624 <HAL_TIMEx_OCN_Stop+0x5c>
 800661e:	f885 3045 	strb.w	r3, [r5, #69]	; 0x45
 8006622:	e7f8      	b.n	8006616 <HAL_TIMEx_OCN_Stop+0x4e>
 8006624:	2e08      	cmp	r6, #8
 8006626:	bf0c      	ite	eq
 8006628:	f885 3046 	strbeq.w	r3, [r5, #70]	; 0x46
 800662c:	f885 3047 	strbne.w	r3, [r5, #71]	; 0x47
 8006630:	e7f1      	b.n	8006616 <HAL_TIMEx_OCN_Stop+0x4e>

08006632 <HAL_TIMEx_PWMN_Start>:
 8006632:	f7ff bf71 	b.w	8006518 <HAL_TIMEx_OCN_Start>

08006636 <HAL_TIMEx_PWMN_Stop>:
 8006636:	f7ff bfc7 	b.w	80065c8 <HAL_TIMEx_OCN_Stop>
	...

0800663c <HAL_TIMEx_MasterConfigSynchronization>:
 800663c:	b570      	push	{r4, r5, r6, lr}
 800663e:	f890 303c 	ldrb.w	r3, [r0, #60]	; 0x3c
 8006642:	2b01      	cmp	r3, #1
 8006644:	f04f 0302 	mov.w	r3, #2
 8006648:	d032      	beq.n	80066b0 <HAL_TIMEx_MasterConfigSynchronization+0x74>
 800664a:	f880 303d 	strb.w	r3, [r0, #61]	; 0x3d
 800664e:	4d19      	ldr	r5, [pc, #100]	; (80066b4 <HAL_TIMEx_MasterConfigSynchronization+0x78>)
 8006650:	6803      	ldr	r3, [r0, #0]
 8006652:	42ab      	cmp	r3, r5
 8006654:	685a      	ldr	r2, [r3, #4]
 8006656:	689c      	ldr	r4, [r3, #8]
 8006658:	d002      	beq.n	8006660 <HAL_TIMEx_MasterConfigSynchronization+0x24>
 800665a:	4e17      	ldr	r6, [pc, #92]	; (80066b8 <HAL_TIMEx_MasterConfigSynchronization+0x7c>)
 800665c:	42b3      	cmp	r3, r6
 800665e:	d103      	bne.n	8006668 <HAL_TIMEx_MasterConfigSynchronization+0x2c>
 8006660:	684e      	ldr	r6, [r1, #4]
 8006662:	f422 0270 	bic.w	r2, r2, #15728640	; 0xf00000
 8006666:	4332      	orrs	r2, r6
 8006668:	680e      	ldr	r6, [r1, #0]
 800666a:	f022 0270 	bic.w	r2, r2, #112	; 0x70
 800666e:	4332      	orrs	r2, r6
 8006670:	42ab      	cmp	r3, r5
 8006672:	605a      	str	r2, [r3, #4]
 8006674:	d011      	beq.n	800669a <HAL_TIMEx_MasterConfigSynchronization+0x5e>
 8006676:	f1b3 4f80 	cmp.w	r3, #1073741824	; 0x40000000
 800667a:	d00e      	beq.n	800669a <HAL_TIMEx_MasterConfigSynchronization+0x5e>
 800667c:	4a0f      	ldr	r2, [pc, #60]	; (80066bc <HAL_TIMEx_MasterConfigSynchronization+0x80>)
 800667e:	4293      	cmp	r3, r2
 8006680:	d00b      	beq.n	800669a <HAL_TIMEx_MasterConfigSynchronization+0x5e>
 8006682:	f502 6280 	add.w	r2, r2, #1024	; 0x400
 8006686:	4293      	cmp	r3, r2
 8006688:	d007      	beq.n	800669a <HAL_TIMEx_MasterConfigSynchronization+0x5e>
 800668a:	f502 3296 	add.w	r2, r2, #76800	; 0x12c00
 800668e:	4293      	cmp	r3, r2
 8006690:	d003      	beq.n	800669a <HAL_TIMEx_MasterConfigSynchronization+0x5e>
 8006692:	f502 6240 	add.w	r2, r2, #3072	; 0xc00
 8006696:	4293      	cmp	r3, r2
 8006698:	d104      	bne.n	80066a4 <HAL_TIMEx_MasterConfigSynchronization+0x68>
 800669a:	6889      	ldr	r1, [r1, #8]
 800669c:	f024 0280 	bic.w	r2, r4, #128	; 0x80
 80066a0:	430a      	orrs	r2, r1
 80066a2:	609a      	str	r2, [r3, #8]
 80066a4:	2301      	movs	r3, #1
 80066a6:	f880 303d 	strb.w	r3, [r0, #61]	; 0x3d
 80066aa:	2300      	movs	r3, #0
 80066ac:	f880 303c 	strb.w	r3, [r0, #60]	; 0x3c
 80066b0:	4618      	mov	r0, r3
 80066b2:	bd70      	pop	{r4, r5, r6, pc}
 80066b4:	40012c00 	.word	0x40012c00
 80066b8:	40013400 	.word	0x40013400
 80066bc:	40000400 	.word	0x40000400

080066c0 <HAL_TIMEx_ConfigBreakDeadTime>:
 80066c0:	b510      	push	{r4, lr}
 80066c2:	f890 303c 	ldrb.w	r3, [r0, #60]	; 0x3c
 80066c6:	2b01      	cmp	r3, #1
 80066c8:	d038      	beq.n	800673c <HAL_TIMEx_ConfigBreakDeadTime+0x7c>
 80066ca:	68cb      	ldr	r3, [r1, #12]
 80066cc:	688a      	ldr	r2, [r1, #8]
 80066ce:	4c1c      	ldr	r4, [pc, #112]	; (8006740 <HAL_TIMEx_ConfigBreakDeadTime+0x80>)
 80066d0:	f423 7340 	bic.w	r3, r3, #768	; 0x300
 80066d4:	4313      	orrs	r3, r2
 80066d6:	684a      	ldr	r2, [r1, #4]
 80066d8:	f423 6380 	bic.w	r3, r3, #1024	; 0x400
 80066dc:	4313      	orrs	r3, r2
 80066de:	680a      	ldr	r2, [r1, #0]
 80066e0:	f423 6300 	bic.w	r3, r3, #2048	; 0x800
 80066e4:	4313      	orrs	r3, r2
 80066e6:	690a      	ldr	r2, [r1, #16]
 80066e8:	f423 5380 	bic.w	r3, r3, #4096	; 0x1000
 80066ec:	4313      	orrs	r3, r2
 80066ee:	694a      	ldr	r2, [r1, #20]
 80066f0:	f423 5300 	bic.w	r3, r3, #8192	; 0x2000
 80066f4:	4313      	orrs	r3, r2
 80066f6:	6a8a      	ldr	r2, [r1, #40]	; 0x28
 80066f8:	f423 4380 	bic.w	r3, r3, #16384	; 0x4000
 80066fc:	4313      	orrs	r3, r2
 80066fe:	698a      	ldr	r2, [r1, #24]
 8006700:	f423 2370 	bic.w	r3, r3, #983040	; 0xf0000
 8006704:	ea43 4302 	orr.w	r3, r3, r2, lsl #16
 8006708:	6802      	ldr	r2, [r0, #0]
 800670a:	42a2      	cmp	r2, r4
 800670c:	d003      	beq.n	8006716 <HAL_TIMEx_ConfigBreakDeadTime+0x56>
 800670e:	f504 6400 	add.w	r4, r4, #2048	; 0x800
 8006712:	42a2      	cmp	r2, r4
 8006714:	d10c      	bne.n	8006730 <HAL_TIMEx_ConfigBreakDeadTime+0x70>
 8006716:	6a4c      	ldr	r4, [r1, #36]	; 0x24
 8006718:	f423 0370 	bic.w	r3, r3, #15728640	; 0xf00000
 800671c:	ea43 5304 	orr.w	r3, r3, r4, lsl #20
 8006720:	69cc      	ldr	r4, [r1, #28]
 8006722:	6a09      	ldr	r1, [r1, #32]
 8006724:	f023 7380 	bic.w	r3, r3, #16777216	; 0x1000000
 8006728:	4323      	orrs	r3, r4
 800672a:	f023 7300 	bic.w	r3, r3, #33554432	; 0x2000000
 800672e:	430b      	orrs	r3, r1
 8006730:	6453      	str	r3, [r2, #68]	; 0x44
 8006732:	2300      	movs	r3, #0
 8006734:	f880 303c 	strb.w	r3, [r0, #60]	; 0x3c
 8006738:	4618      	mov	r0, r3
 800673a:	bd10      	pop	{r4, pc}
 800673c:	2002      	movs	r0, #2
 800673e:	e7fc      	b.n	800673a <HAL_TIMEx_ConfigBreakDeadTime+0x7a>
 8006740:	40012c00 	.word	0x40012c00

08006744 <HAL_TIMEx_CommutCallback>:
 8006744:	4770      	bx	lr

08006746 <HAL_TIMEx_BreakCallback>:
 8006746:	4770      	bx	lr

08006748 <HAL_TIMEx_Break2Callback>:
 8006748:	4770      	bx	lr

0800674a <UART_EndRxTransfer>:
 800674a:	6802      	ldr	r2, [r0, #0]
 800674c:	e852 3f00 	ldrex	r3, [r2]
 8006750:	f423 7390 	bic.w	r3, r3, #288	; 0x120
 8006754:	e842 3100 	strex	r1, r3, [r2]
 8006758:	6802      	ldr	r2, [r0, #0]
 800675a:	2900      	cmp	r1, #0
 800675c:	d1f5      	bne.n	800674a <UART_EndRxTransfer>
 800675e:	f102 0308 	add.w	r3, r2, #8
 8006762:	e853 3f00 	ldrex	r3, [r3]
 8006766:	f023 0301 	bic.w	r3, r3, #1
 800676a:	f102 0c08 	add.w	ip, r2, #8
 800676e:	e84c 3100 	strex	r1, r3, [ip]
 8006772:	2900      	cmp	r1, #0
 8006774:	d1f3      	bne.n	800675e <UART_EndRxTransfer+0x14>
 8006776:	6e03      	ldr	r3, [r0, #96]	; 0x60
 8006778:	2b01      	cmp	r3, #1
 800677a:	d107      	bne.n	800678c <UART_EndRxTransfer+0x42>
 800677c:	e852 3f00 	ldrex	r3, [r2]
 8006780:	f023 0310 	bic.w	r3, r3, #16
 8006784:	e842 3100 	strex	r1, r3, [r2]
 8006788:	2900      	cmp	r1, #0
 800678a:	d1f7      	bne.n	800677c <UART_EndRxTransfer+0x32>
 800678c:	2320      	movs	r3, #32
 800678e:	f8c0 3080 	str.w	r3, [r0, #128]	; 0x80
 8006792:	2300      	movs	r3, #0
 8006794:	6603      	str	r3, [r0, #96]	; 0x60
 8006796:	6683      	str	r3, [r0, #104]	; 0x68
 8006798:	4770      	bx	lr

0800679a <HAL_UART_ErrorCallback>:
 800679a:	4770      	bx	lr

0800679c <UART_DMAAbortOnError>:
 800679c:	b508      	push	{r3, lr}
 800679e:	6a40      	ldr	r0, [r0, #36]	; 0x24
 80067a0:	2300      	movs	r3, #0
 80067a2:	f8a0 305a 	strh.w	r3, [r0, #90]	; 0x5a
 80067a6:	f8a0 3052 	strh.w	r3, [r0, #82]	; 0x52
 80067aa:	f7ff fff6 	bl	800679a <HAL_UART_ErrorCallback>
 80067ae:	bd08      	pop	{r3, pc}

080067b0 <HAL_UARTEx_RxEventCallback>:
 80067b0:	4770      	bx	lr
	...

080067b4 <HAL_UART_IRQHandler>:
 80067b4:	6803      	ldr	r3, [r0, #0]
 80067b6:	69da      	ldr	r2, [r3, #28]
 80067b8:	6819      	ldr	r1, [r3, #0]
 80067ba:	b570      	push	{r4, r5, r6, lr}
 80067bc:	f640 060f 	movw	r6, #2063	; 0x80f
 80067c0:	4232      	tst	r2, r6
 80067c2:	689d      	ldr	r5, [r3, #8]
 80067c4:	4604      	mov	r4, r0
 80067c6:	d10b      	bne.n	80067e0 <HAL_UART_IRQHandler+0x2c>
 80067c8:	0696      	lsls	r6, r2, #26
 80067ca:	f140 8088 	bpl.w	80068de <HAL_UART_IRQHandler+0x12a>
 80067ce:	068e      	lsls	r6, r1, #26
 80067d0:	f140 8085 	bpl.w	80068de <HAL_UART_IRQHandler+0x12a>
 80067d4:	6e83      	ldr	r3, [r0, #104]	; 0x68
 80067d6:	2b00      	cmp	r3, #0
 80067d8:	d07b      	beq.n	80068d2 <HAL_UART_IRQHandler+0x11e>
 80067da:	e8bd 4070 	ldmia.w	sp!, {r4, r5, r6, lr}
 80067de:	4718      	bx	r3
 80067e0:	4e9a      	ldr	r6, [pc, #616]	; (8006a4c <HAL_UART_IRQHandler+0x298>)
 80067e2:	f005 0001 	and.w	r0, r5, #1
 80067e6:	400e      	ands	r6, r1
 80067e8:	4306      	orrs	r6, r0
 80067ea:	d078      	beq.n	80068de <HAL_UART_IRQHandler+0x12a>
 80067ec:	07d5      	lsls	r5, r2, #31
 80067ee:	d509      	bpl.n	8006804 <HAL_UART_IRQHandler+0x50>
 80067f0:	05ce      	lsls	r6, r1, #23
 80067f2:	d507      	bpl.n	8006804 <HAL_UART_IRQHandler+0x50>
 80067f4:	2501      	movs	r5, #1
 80067f6:	621d      	str	r5, [r3, #32]
 80067f8:	f8d4 5084 	ldr.w	r5, [r4, #132]	; 0x84
 80067fc:	f045 0501 	orr.w	r5, r5, #1
 8006800:	f8c4 5084 	str.w	r5, [r4, #132]	; 0x84
 8006804:	0795      	lsls	r5, r2, #30
 8006806:	d508      	bpl.n	800681a <HAL_UART_IRQHandler+0x66>
 8006808:	b138      	cbz	r0, 800681a <HAL_UART_IRQHandler+0x66>
 800680a:	2502      	movs	r5, #2
 800680c:	621d      	str	r5, [r3, #32]
 800680e:	f8d4 5084 	ldr.w	r5, [r4, #132]	; 0x84
 8006812:	f045 0504 	orr.w	r5, r5, #4
 8006816:	f8c4 5084 	str.w	r5, [r4, #132]	; 0x84
 800681a:	0756      	lsls	r6, r2, #29
 800681c:	d508      	bpl.n	8006830 <HAL_UART_IRQHandler+0x7c>
 800681e:	b138      	cbz	r0, 8006830 <HAL_UART_IRQHandler+0x7c>
 8006820:	2504      	movs	r5, #4
 8006822:	621d      	str	r5, [r3, #32]
 8006824:	f8d4 5084 	ldr.w	r5, [r4, #132]	; 0x84
 8006828:	f045 0502 	orr.w	r5, r5, #2
 800682c:	f8c4 5084 	str.w	r5, [r4, #132]	; 0x84
 8006830:	0715      	lsls	r5, r2, #28
 8006832:	d50b      	bpl.n	800684c <HAL_UART_IRQHandler+0x98>
 8006834:	f001 0520 	and.w	r5, r1, #32
 8006838:	4305      	orrs	r5, r0
 800683a:	d007      	beq.n	800684c <HAL_UART_IRQHandler+0x98>
 800683c:	2008      	movs	r0, #8
 800683e:	6218      	str	r0, [r3, #32]
 8006840:	f8d4 0084 	ldr.w	r0, [r4, #132]	; 0x84
 8006844:	f040 0008 	orr.w	r0, r0, #8
 8006848:	f8c4 0084 	str.w	r0, [r4, #132]	; 0x84
 800684c:	0516      	lsls	r6, r2, #20
 800684e:	d50a      	bpl.n	8006866 <HAL_UART_IRQHandler+0xb2>
 8006850:	014d      	lsls	r5, r1, #5
 8006852:	d508      	bpl.n	8006866 <HAL_UART_IRQHandler+0xb2>
 8006854:	f44f 6000 	mov.w	r0, #2048	; 0x800
 8006858:	6218      	str	r0, [r3, #32]
 800685a:	f8d4 3084 	ldr.w	r3, [r4, #132]	; 0x84
 800685e:	f043 0320 	orr.w	r3, r3, #32
 8006862:	f8c4 3084 	str.w	r3, [r4, #132]	; 0x84
 8006866:	f8d4 3084 	ldr.w	r3, [r4, #132]	; 0x84
 800686a:	2b00      	cmp	r3, #0
 800686c:	d031      	beq.n	80068d2 <HAL_UART_IRQHandler+0x11e>
 800686e:	0690      	lsls	r0, r2, #26
 8006870:	d505      	bpl.n	800687e <HAL_UART_IRQHandler+0xca>
 8006872:	068a      	lsls	r2, r1, #26
 8006874:	d503      	bpl.n	800687e <HAL_UART_IRQHandler+0xca>
 8006876:	6ea3      	ldr	r3, [r4, #104]	; 0x68
 8006878:	b10b      	cbz	r3, 800687e <HAL_UART_IRQHandler+0xca>
 800687a:	4620      	mov	r0, r4
 800687c:	4798      	blx	r3
 800687e:	6826      	ldr	r6, [r4, #0]
 8006880:	f8d4 2084 	ldr.w	r2, [r4, #132]	; 0x84
 8006884:	68b3      	ldr	r3, [r6, #8]
 8006886:	f002 0228 	and.w	r2, r2, #40	; 0x28
 800688a:	f003 0340 	and.w	r3, r3, #64	; 0x40
 800688e:	ea53 0502 	orrs.w	r5, r3, r2
 8006892:	4620      	mov	r0, r4
 8006894:	d01e      	beq.n	80068d4 <HAL_UART_IRQHandler+0x120>
 8006896:	f7ff ff58 	bl	800674a <UART_EndRxTransfer>
 800689a:	68b3      	ldr	r3, [r6, #8]
 800689c:	065b      	lsls	r3, r3, #25
 800689e:	d515      	bpl.n	80068cc <HAL_UART_IRQHandler+0x118>
 80068a0:	6822      	ldr	r2, [r4, #0]
 80068a2:	f102 0308 	add.w	r3, r2, #8
 80068a6:	e853 3f00 	ldrex	r3, [r3]
 80068aa:	f023 0340 	bic.w	r3, r3, #64	; 0x40
 80068ae:	3208      	adds	r2, #8
 80068b0:	e842 3100 	strex	r1, r3, [r2]
 80068b4:	2900      	cmp	r1, #0
 80068b6:	d1f3      	bne.n	80068a0 <HAL_UART_IRQHandler+0xec>
 80068b8:	6f60      	ldr	r0, [r4, #116]	; 0x74
 80068ba:	b138      	cbz	r0, 80068cc <HAL_UART_IRQHandler+0x118>
 80068bc:	4b64      	ldr	r3, [pc, #400]	; (8006a50 <HAL_UART_IRQHandler+0x29c>)
 80068be:	6343      	str	r3, [r0, #52]	; 0x34
 80068c0:	f7fc fd9d 	bl	80033fe <HAL_DMA_Abort_IT>
 80068c4:	b128      	cbz	r0, 80068d2 <HAL_UART_IRQHandler+0x11e>
 80068c6:	6f60      	ldr	r0, [r4, #116]	; 0x74
 80068c8:	6b43      	ldr	r3, [r0, #52]	; 0x34
 80068ca:	e786      	b.n	80067da <HAL_UART_IRQHandler+0x26>
 80068cc:	4620      	mov	r0, r4
 80068ce:	f7ff ff64 	bl	800679a <HAL_UART_ErrorCallback>
 80068d2:	bd70      	pop	{r4, r5, r6, pc}
 80068d4:	f7ff ff61 	bl	800679a <HAL_UART_ErrorCallback>
 80068d8:	f8c4 5084 	str.w	r5, [r4, #132]	; 0x84
 80068dc:	e7f9      	b.n	80068d2 <HAL_UART_IRQHandler+0x11e>
 80068de:	6e20      	ldr	r0, [r4, #96]	; 0x60
 80068e0:	2801      	cmp	r0, #1
 80068e2:	f040 8087 	bne.w	80069f4 <HAL_UART_IRQHandler+0x240>
 80068e6:	06d6      	lsls	r6, r2, #27
 80068e8:	f140 8084 	bpl.w	80069f4 <HAL_UART_IRQHandler+0x240>
 80068ec:	06c8      	lsls	r0, r1, #27
 80068ee:	f140 8081 	bpl.w	80069f4 <HAL_UART_IRQHandler+0x240>
 80068f2:	2210      	movs	r2, #16
 80068f4:	621a      	str	r2, [r3, #32]
 80068f6:	689a      	ldr	r2, [r3, #8]
 80068f8:	0652      	lsls	r2, r2, #25
 80068fa:	d549      	bpl.n	8006990 <HAL_UART_IRQHandler+0x1dc>
 80068fc:	6f61      	ldr	r1, [r4, #116]	; 0x74
 80068fe:	680a      	ldr	r2, [r1, #0]
 8006900:	6852      	ldr	r2, [r2, #4]
 8006902:	b292      	uxth	r2, r2
 8006904:	2a00      	cmp	r2, #0
 8006906:	d0e4      	beq.n	80068d2 <HAL_UART_IRQHandler+0x11e>
 8006908:	f8b4 0058 	ldrh.w	r0, [r4, #88]	; 0x58
 800690c:	4290      	cmp	r0, r2
 800690e:	d9e0      	bls.n	80068d2 <HAL_UART_IRQHandler+0x11e>
 8006910:	f8a4 205a 	strh.w	r2, [r4, #90]	; 0x5a
 8006914:	698a      	ldr	r2, [r1, #24]
 8006916:	2a20      	cmp	r2, #32
 8006918:	d02e      	beq.n	8006978 <HAL_UART_IRQHandler+0x1c4>
 800691a:	e853 2f00 	ldrex	r2, [r3]
 800691e:	f422 7280 	bic.w	r2, r2, #256	; 0x100
 8006922:	e843 2100 	strex	r1, r2, [r3]
 8006926:	2900      	cmp	r1, #0
 8006928:	d1f7      	bne.n	800691a <HAL_UART_IRQHandler+0x166>
 800692a:	f103 0208 	add.w	r2, r3, #8
 800692e:	e852 2f00 	ldrex	r2, [r2]
 8006932:	f022 0201 	bic.w	r2, r2, #1
 8006936:	f103 0008 	add.w	r0, r3, #8
 800693a:	e840 2100 	strex	r1, r2, [r0]
 800693e:	2900      	cmp	r1, #0
 8006940:	d1f3      	bne.n	800692a <HAL_UART_IRQHandler+0x176>
 8006942:	f103 0208 	add.w	r2, r3, #8
 8006946:	e852 2f00 	ldrex	r2, [r2]
 800694a:	f022 0240 	bic.w	r2, r2, #64	; 0x40
 800694e:	f103 0008 	add.w	r0, r3, #8
 8006952:	e840 2100 	strex	r1, r2, [r0]
 8006956:	2900      	cmp	r1, #0
 8006958:	d1f3      	bne.n	8006942 <HAL_UART_IRQHandler+0x18e>
 800695a:	2220      	movs	r2, #32
 800695c:	f8c4 2080 	str.w	r2, [r4, #128]	; 0x80
 8006960:	6621      	str	r1, [r4, #96]	; 0x60
 8006962:	e853 2f00 	ldrex	r2, [r3]
 8006966:	f022 0210 	bic.w	r2, r2, #16
 800696a:	e843 2100 	strex	r1, r2, [r3]
 800696e:	2900      	cmp	r1, #0
 8006970:	d1f7      	bne.n	8006962 <HAL_UART_IRQHandler+0x1ae>
 8006972:	6f60      	ldr	r0, [r4, #116]	; 0x74
 8006974:	f7fc fd24 	bl	80033c0 <HAL_DMA_Abort>
 8006978:	2302      	movs	r3, #2
 800697a:	6663      	str	r3, [r4, #100]	; 0x64
 800697c:	f8b4 305a 	ldrh.w	r3, [r4, #90]	; 0x5a
 8006980:	f8b4 1058 	ldrh.w	r1, [r4, #88]	; 0x58
 8006984:	1ac9      	subs	r1, r1, r3
 8006986:	b289      	uxth	r1, r1
 8006988:	4620      	mov	r0, r4
 800698a:	f7ff ff11 	bl	80067b0 <HAL_UARTEx_RxEventCallback>
 800698e:	e7a0      	b.n	80068d2 <HAL_UART_IRQHandler+0x11e>
 8006990:	f8b4 205a 	ldrh.w	r2, [r4, #90]	; 0x5a
 8006994:	f8b4 005a 	ldrh.w	r0, [r4, #90]	; 0x5a
 8006998:	f8b4 1058 	ldrh.w	r1, [r4, #88]	; 0x58
 800699c:	b280      	uxth	r0, r0
 800699e:	b292      	uxth	r2, r2
 80069a0:	2800      	cmp	r0, #0
 80069a2:	d096      	beq.n	80068d2 <HAL_UART_IRQHandler+0x11e>
 80069a4:	1a89      	subs	r1, r1, r2
 80069a6:	b289      	uxth	r1, r1
 80069a8:	2900      	cmp	r1, #0
 80069aa:	d092      	beq.n	80068d2 <HAL_UART_IRQHandler+0x11e>
 80069ac:	e853 2f00 	ldrex	r2, [r3]
 80069b0:	f422 7290 	bic.w	r2, r2, #288	; 0x120
 80069b4:	e843 2000 	strex	r0, r2, [r3]
 80069b8:	2800      	cmp	r0, #0
 80069ba:	d1f7      	bne.n	80069ac <HAL_UART_IRQHandler+0x1f8>
 80069bc:	f103 0208 	add.w	r2, r3, #8
 80069c0:	e852 2f00 	ldrex	r2, [r2]
 80069c4:	f022 0201 	bic.w	r2, r2, #1
 80069c8:	f103 0508 	add.w	r5, r3, #8
 80069cc:	e845 2000 	strex	r0, r2, [r5]
 80069d0:	2800      	cmp	r0, #0
 80069d2:	d1f3      	bne.n	80069bc <HAL_UART_IRQHandler+0x208>
 80069d4:	2220      	movs	r2, #32
 80069d6:	f8c4 2080 	str.w	r2, [r4, #128]	; 0x80
 80069da:	66a0      	str	r0, [r4, #104]	; 0x68
 80069dc:	6620      	str	r0, [r4, #96]	; 0x60
 80069de:	e853 2f00 	ldrex	r2, [r3]
 80069e2:	f022 0210 	bic.w	r2, r2, #16
 80069e6:	e843 2000 	strex	r0, r2, [r3]
 80069ea:	2800      	cmp	r0, #0
 80069ec:	d1f7      	bne.n	80069de <HAL_UART_IRQHandler+0x22a>
 80069ee:	2302      	movs	r3, #2
 80069f0:	6663      	str	r3, [r4, #100]	; 0x64
 80069f2:	e7c9      	b.n	8006988 <HAL_UART_IRQHandler+0x1d4>
 80069f4:	02d6      	lsls	r6, r2, #11
 80069f6:	d509      	bpl.n	8006a0c <HAL_UART_IRQHandler+0x258>
 80069f8:	0268      	lsls	r0, r5, #9
 80069fa:	d507      	bpl.n	8006a0c <HAL_UART_IRQHandler+0x258>
 80069fc:	f44f 1280 	mov.w	r2, #1048576	; 0x100000
 8006a00:	4620      	mov	r0, r4
 8006a02:	621a      	str	r2, [r3, #32]
 8006a04:	e8bd 4070 	ldmia.w	sp!, {r4, r5, r6, lr}
 8006a08:	f000 ba46 	b.w	8006e98 <HAL_UARTEx_WakeupCallback>
 8006a0c:	0616      	lsls	r6, r2, #24
 8006a0e:	d507      	bpl.n	8006a20 <HAL_UART_IRQHandler+0x26c>
 8006a10:	060d      	lsls	r5, r1, #24
 8006a12:	d505      	bpl.n	8006a20 <HAL_UART_IRQHandler+0x26c>
 8006a14:	6ee3      	ldr	r3, [r4, #108]	; 0x6c
 8006a16:	2b00      	cmp	r3, #0
 8006a18:	f43f af5b 	beq.w	80068d2 <HAL_UART_IRQHandler+0x11e>
 8006a1c:	4620      	mov	r0, r4
 8006a1e:	e6dc      	b.n	80067da <HAL_UART_IRQHandler+0x26>
 8006a20:	0650      	lsls	r0, r2, #25
 8006a22:	f57f af56 	bpl.w	80068d2 <HAL_UART_IRQHandler+0x11e>
 8006a26:	064a      	lsls	r2, r1, #25
 8006a28:	f57f af53 	bpl.w	80068d2 <HAL_UART_IRQHandler+0x11e>
 8006a2c:	e853 2f00 	ldrex	r2, [r3]
 8006a30:	f022 0240 	bic.w	r2, r2, #64	; 0x40
 8006a34:	e843 2100 	strex	r1, r2, [r3]
 8006a38:	2900      	cmp	r1, #0
 8006a3a:	d1f7      	bne.n	8006a2c <HAL_UART_IRQHandler+0x278>
 8006a3c:	2320      	movs	r3, #32
 8006a3e:	67e3      	str	r3, [r4, #124]	; 0x7c
 8006a40:	66e1      	str	r1, [r4, #108]	; 0x6c
 8006a42:	4620      	mov	r0, r4
 8006a44:	f7fa fee4 	bl	8001810 <HAL_UART_TxCpltCallback>
 8006a48:	e743      	b.n	80068d2 <HAL_UART_IRQHandler+0x11e>
 8006a4a:	bf00      	nop
 8006a4c:	04000120 	.word	0x04000120
 8006a50:	0800679d 	.word	0x0800679d

08006a54 <UART_SetConfig>:
 8006a54:	b538      	push	{r3, r4, r5, lr}
 8006a56:	4604      	mov	r4, r0
 8006a58:	69c0      	ldr	r0, [r0, #28]
 8006a5a:	6823      	ldr	r3, [r4, #0]
 8006a5c:	6925      	ldr	r5, [r4, #16]
 8006a5e:	68a2      	ldr	r2, [r4, #8]
 8006a60:	6819      	ldr	r1, [r3, #0]
 8006a62:	432a      	orrs	r2, r5
 8006a64:	6965      	ldr	r5, [r4, #20]
 8006a66:	f421 4116 	bic.w	r1, r1, #38400	; 0x9600
 8006a6a:	432a      	orrs	r2, r5
 8006a6c:	f021 010c 	bic.w	r1, r1, #12
 8006a70:	4302      	orrs	r2, r0
 8006a72:	430a      	orrs	r2, r1
 8006a74:	601a      	str	r2, [r3, #0]
 8006a76:	685a      	ldr	r2, [r3, #4]
 8006a78:	68e1      	ldr	r1, [r4, #12]
 8006a7a:	6a25      	ldr	r5, [r4, #32]
 8006a7c:	f422 5240 	bic.w	r2, r2, #12288	; 0x3000
 8006a80:	430a      	orrs	r2, r1
 8006a82:	605a      	str	r2, [r3, #4]
 8006a84:	6899      	ldr	r1, [r3, #8]
 8006a86:	69a2      	ldr	r2, [r4, #24]
 8006a88:	f421 6130 	bic.w	r1, r1, #2816	; 0xb00
 8006a8c:	432a      	orrs	r2, r5
 8006a8e:	430a      	orrs	r2, r1
 8006a90:	609a      	str	r2, [r3, #8]
 8006a92:	4a69      	ldr	r2, [pc, #420]	; (8006c38 <UART_SetConfig+0x1e4>)
 8006a94:	4293      	cmp	r3, r2
 8006a96:	d115      	bne.n	8006ac4 <UART_SetConfig+0x70>
 8006a98:	4b68      	ldr	r3, [pc, #416]	; (8006c3c <UART_SetConfig+0x1e8>)
 8006a9a:	6b1b      	ldr	r3, [r3, #48]	; 0x30
 8006a9c:	f003 0303 	and.w	r3, r3, #3
 8006aa0:	3b01      	subs	r3, #1
 8006aa2:	2b02      	cmp	r3, #2
 8006aa4:	f200 80a0 	bhi.w	8006be8 <UART_SetConfig+0x194>
 8006aa8:	4a65      	ldr	r2, [pc, #404]	; (8006c40 <UART_SetConfig+0x1ec>)
 8006aaa:	f5b0 4f00 	cmp.w	r0, #32768	; 0x8000
 8006aae:	5cd3      	ldrb	r3, [r2, r3]
 8006ab0:	d17c      	bne.n	8006bac <UART_SetConfig+0x158>
 8006ab2:	2b08      	cmp	r3, #8
 8006ab4:	d819      	bhi.n	8006aea <UART_SetConfig+0x96>
 8006ab6:	e8df f003 	tbb	[pc, r3]
 8006aba:	9a5b      	.short	0x9a5b
 8006abc:	18a61863 	.word	0x18a61863
 8006ac0:	1818      	.short	0x1818
 8006ac2:	64          	.byte	0x64
 8006ac3:	00          	.byte	0x00
 8006ac4:	4a5f      	ldr	r2, [pc, #380]	; (8006c44 <UART_SetConfig+0x1f0>)
 8006ac6:	4293      	cmp	r3, r2
 8006ac8:	d119      	bne.n	8006afe <UART_SetConfig+0xaa>
 8006aca:	4b5c      	ldr	r3, [pc, #368]	; (8006c3c <UART_SetConfig+0x1e8>)
 8006acc:	6b1b      	ldr	r3, [r3, #48]	; 0x30
 8006ace:	f403 3340 	and.w	r3, r3, #196608	; 0x30000
 8006ad2:	f5b3 3f00 	cmp.w	r3, #131072	; 0x20000
 8006ad6:	f000 808d 	beq.w	8006bf4 <UART_SetConfig+0x1a0>
 8006ada:	d808      	bhi.n	8006aee <UART_SetConfig+0x9a>
 8006adc:	2b00      	cmp	r3, #0
 8006ade:	f000 8095 	beq.w	8006c0c <UART_SetConfig+0x1b8>
 8006ae2:	f5b3 3f80 	cmp.w	r3, #65536	; 0x10000
 8006ae6:	f000 808b 	beq.w	8006c00 <UART_SetConfig+0x1ac>
 8006aea:	2001      	movs	r0, #1
 8006aec:	e044      	b.n	8006b78 <UART_SetConfig+0x124>
 8006aee:	f5b3 3f40 	cmp.w	r3, #196608	; 0x30000
 8006af2:	d1fa      	bne.n	8006aea <UART_SetConfig+0x96>
 8006af4:	f5b0 4f00 	cmp.w	r0, #32768	; 0x8000
 8006af8:	d042      	beq.n	8006b80 <UART_SetConfig+0x12c>
 8006afa:	4853      	ldr	r0, [pc, #332]	; (8006c48 <UART_SetConfig+0x1f4>)
 8006afc:	e08d      	b.n	8006c1a <UART_SetConfig+0x1c6>
 8006afe:	4a53      	ldr	r2, [pc, #332]	; (8006c4c <UART_SetConfig+0x1f8>)
 8006b00:	4293      	cmp	r3, r2
 8006b02:	d10f      	bne.n	8006b24 <UART_SetConfig+0xd0>
 8006b04:	4b4d      	ldr	r3, [pc, #308]	; (8006c3c <UART_SetConfig+0x1e8>)
 8006b06:	6b1b      	ldr	r3, [r3, #48]	; 0x30
 8006b08:	f403 2340 	and.w	r3, r3, #786432	; 0xc0000
 8006b0c:	f5b3 2f00 	cmp.w	r3, #524288	; 0x80000
 8006b10:	d070      	beq.n	8006bf4 <UART_SetConfig+0x1a0>
 8006b12:	d804      	bhi.n	8006b1e <UART_SetConfig+0xca>
 8006b14:	2b00      	cmp	r3, #0
 8006b16:	d079      	beq.n	8006c0c <UART_SetConfig+0x1b8>
 8006b18:	f5b3 2f80 	cmp.w	r3, #262144	; 0x40000
 8006b1c:	e7e3      	b.n	8006ae6 <UART_SetConfig+0x92>
 8006b1e:	f5b3 2f40 	cmp.w	r3, #786432	; 0xc0000
 8006b22:	e7e6      	b.n	8006af2 <UART_SetConfig+0x9e>
 8006b24:	4a4a      	ldr	r2, [pc, #296]	; (8006c50 <UART_SetConfig+0x1fc>)
 8006b26:	4293      	cmp	r3, r2
 8006b28:	d10f      	bne.n	8006b4a <UART_SetConfig+0xf6>
 8006b2a:	4b44      	ldr	r3, [pc, #272]	; (8006c3c <UART_SetConfig+0x1e8>)
 8006b2c:	6b1b      	ldr	r3, [r3, #48]	; 0x30
 8006b2e:	f403 1340 	and.w	r3, r3, #3145728	; 0x300000
 8006b32:	f5b3 1f00 	cmp.w	r3, #2097152	; 0x200000
 8006b36:	d05d      	beq.n	8006bf4 <UART_SetConfig+0x1a0>
 8006b38:	d804      	bhi.n	8006b44 <UART_SetConfig+0xf0>
 8006b3a:	2b00      	cmp	r3, #0
 8006b3c:	d066      	beq.n	8006c0c <UART_SetConfig+0x1b8>
 8006b3e:	f5b3 1f80 	cmp.w	r3, #1048576	; 0x100000
 8006b42:	e7d0      	b.n	8006ae6 <UART_SetConfig+0x92>
 8006b44:	f5b3 1f40 	cmp.w	r3, #3145728	; 0x300000
 8006b48:	e7d3      	b.n	8006af2 <UART_SetConfig+0x9e>
 8006b4a:	4a42      	ldr	r2, [pc, #264]	; (8006c54 <UART_SetConfig+0x200>)
 8006b4c:	4293      	cmp	r3, r2
 8006b4e:	d1cc      	bne.n	8006aea <UART_SetConfig+0x96>
 8006b50:	4b3a      	ldr	r3, [pc, #232]	; (8006c3c <UART_SetConfig+0x1e8>)
 8006b52:	6b1b      	ldr	r3, [r3, #48]	; 0x30
 8006b54:	f403 0340 	and.w	r3, r3, #12582912	; 0xc00000
 8006b58:	f5b3 0f00 	cmp.w	r3, #8388608	; 0x800000
 8006b5c:	d04a      	beq.n	8006bf4 <UART_SetConfig+0x1a0>
 8006b5e:	d804      	bhi.n	8006b6a <UART_SetConfig+0x116>
 8006b60:	2b00      	cmp	r3, #0
 8006b62:	d053      	beq.n	8006c0c <UART_SetConfig+0x1b8>
 8006b64:	f5b3 0f80 	cmp.w	r3, #4194304	; 0x400000
 8006b68:	e7bd      	b.n	8006ae6 <UART_SetConfig+0x92>
 8006b6a:	f5b3 0f40 	cmp.w	r3, #12582912	; 0xc00000
 8006b6e:	e7c0      	b.n	8006af2 <UART_SetConfig+0x9e>
 8006b70:	f7fe fb54 	bl	800521c <HAL_RCC_GetPCLK1Freq>
 8006b74:	b928      	cbnz	r0, 8006b82 <UART_SetConfig+0x12e>
 8006b76:	2000      	movs	r0, #0
 8006b78:	2300      	movs	r3, #0
 8006b7a:	e9c4 331a 	strd	r3, r3, [r4, #104]	; 0x68
 8006b7e:	bd38      	pop	{r3, r4, r5, pc}
 8006b80:	4831      	ldr	r0, [pc, #196]	; (8006c48 <UART_SetConfig+0x1f4>)
 8006b82:	6862      	ldr	r2, [r4, #4]
 8006b84:	0853      	lsrs	r3, r2, #1
 8006b86:	eb03 0340 	add.w	r3, r3, r0, lsl #1
 8006b8a:	fbb3 f3f2 	udiv	r3, r3, r2
 8006b8e:	f64f 72ef 	movw	r2, #65519	; 0xffef
 8006b92:	f1a3 0110 	sub.w	r1, r3, #16
 8006b96:	4291      	cmp	r1, r2
 8006b98:	d8a7      	bhi.n	8006aea <UART_SetConfig+0x96>
 8006b9a:	f023 020f 	bic.w	r2, r3, #15
 8006b9e:	6821      	ldr	r1, [r4, #0]
 8006ba0:	b292      	uxth	r2, r2
 8006ba2:	f3c3 0342 	ubfx	r3, r3, #1, #3
 8006ba6:	4313      	orrs	r3, r2
 8006ba8:	60cb      	str	r3, [r1, #12]
 8006baa:	e7e4      	b.n	8006b76 <UART_SetConfig+0x122>
 8006bac:	2b08      	cmp	r3, #8
 8006bae:	d89c      	bhi.n	8006aea <UART_SetConfig+0x96>
 8006bb0:	a201      	add	r2, pc, #4	; (adr r2, 8006bb8 <UART_SetConfig+0x164>)
 8006bb2:	f852 f023 	ldr.w	pc, [r2, r3, lsl #2]
 8006bb6:	bf00      	nop
 8006bb8:	08006c13 	.word	0x08006c13
 8006bbc:	08006bdd 	.word	0x08006bdd
 8006bc0:	08006afb 	.word	0x08006afb
 8006bc4:	08006aeb 	.word	0x08006aeb
 8006bc8:	08006be3 	.word	0x08006be3
 8006bcc:	08006aeb 	.word	0x08006aeb
 8006bd0:	08006aeb 	.word	0x08006aeb
 8006bd4:	08006aeb 	.word	0x08006aeb
 8006bd8:	08006bfb 	.word	0x08006bfb
 8006bdc:	f7fe fb36 	bl	800524c <HAL_RCC_GetPCLK2Freq>
 8006be0:	e019      	b.n	8006c16 <UART_SetConfig+0x1c2>
 8006be2:	f7fe fa3f 	bl	8005064 <HAL_RCC_GetSysClockFreq>
 8006be6:	e016      	b.n	8006c16 <UART_SetConfig+0x1c2>
 8006be8:	f5b0 4f00 	cmp.w	r0, #32768	; 0x8000
 8006bec:	d1f6      	bne.n	8006bdc <UART_SetConfig+0x188>
 8006bee:	f7fe fb2d 	bl	800524c <HAL_RCC_GetPCLK2Freq>
 8006bf2:	e7bf      	b.n	8006b74 <UART_SetConfig+0x120>
 8006bf4:	f5b0 4f00 	cmp.w	r0, #32768	; 0x8000
 8006bf8:	d0c3      	beq.n	8006b82 <UART_SetConfig+0x12e>
 8006bfa:	f44f 4000 	mov.w	r0, #32768	; 0x8000
 8006bfe:	e00c      	b.n	8006c1a <UART_SetConfig+0x1c6>
 8006c00:	f5b0 4f00 	cmp.w	r0, #32768	; 0x8000
 8006c04:	d1ed      	bne.n	8006be2 <UART_SetConfig+0x18e>
 8006c06:	f7fe fa2d 	bl	8005064 <HAL_RCC_GetSysClockFreq>
 8006c0a:	e7b3      	b.n	8006b74 <UART_SetConfig+0x120>
 8006c0c:	f5b0 4f00 	cmp.w	r0, #32768	; 0x8000
 8006c10:	d0ae      	beq.n	8006b70 <UART_SetConfig+0x11c>
 8006c12:	f7fe fb03 	bl	800521c <HAL_RCC_GetPCLK1Freq>
 8006c16:	2800      	cmp	r0, #0
 8006c18:	d0ad      	beq.n	8006b76 <UART_SetConfig+0x122>
 8006c1a:	6862      	ldr	r2, [r4, #4]
 8006c1c:	eb00 0352 	add.w	r3, r0, r2, lsr #1
 8006c20:	fbb3 f3f2 	udiv	r3, r3, r2
 8006c24:	f64f 72ef 	movw	r2, #65519	; 0xffef
 8006c28:	f1a3 0110 	sub.w	r1, r3, #16
 8006c2c:	4291      	cmp	r1, r2
 8006c2e:	f63f af5c 	bhi.w	8006aea <UART_SetConfig+0x96>
 8006c32:	6822      	ldr	r2, [r4, #0]
 8006c34:	60d3      	str	r3, [r2, #12]
 8006c36:	e79e      	b.n	8006b76 <UART_SetConfig+0x122>
 8006c38:	40013800 	.word	0x40013800
 8006c3c:	40021000 	.word	0x40021000
 8006c40:	080078ba 	.word	0x080078ba
 8006c44:	40004400 	.word	0x40004400
 8006c48:	007a1200 	.word	0x007a1200
 8006c4c:	40004800 	.word	0x40004800
 8006c50:	40004c00 	.word	0x40004c00
 8006c54:	40005000 	.word	0x40005000

08006c58 <UART_AdvFeatureConfig>:
 8006c58:	6a43      	ldr	r3, [r0, #36]	; 0x24
 8006c5a:	07da      	lsls	r2, r3, #31
 8006c5c:	b510      	push	{r4, lr}
 8006c5e:	d506      	bpl.n	8006c6e <UART_AdvFeatureConfig+0x16>
 8006c60:	6801      	ldr	r1, [r0, #0]
 8006c62:	6a84      	ldr	r4, [r0, #40]	; 0x28
 8006c64:	684a      	ldr	r2, [r1, #4]
 8006c66:	f422 3200 	bic.w	r2, r2, #131072	; 0x20000
 8006c6a:	4322      	orrs	r2, r4
 8006c6c:	604a      	str	r2, [r1, #4]
 8006c6e:	079c      	lsls	r4, r3, #30
 8006c70:	d506      	bpl.n	8006c80 <UART_AdvFeatureConfig+0x28>
 8006c72:	6801      	ldr	r1, [r0, #0]
 8006c74:	6ac4      	ldr	r4, [r0, #44]	; 0x2c
 8006c76:	684a      	ldr	r2, [r1, #4]
 8006c78:	f422 3280 	bic.w	r2, r2, #65536	; 0x10000
 8006c7c:	4322      	orrs	r2, r4
 8006c7e:	604a      	str	r2, [r1, #4]
 8006c80:	0759      	lsls	r1, r3, #29
 8006c82:	d506      	bpl.n	8006c92 <UART_AdvFeatureConfig+0x3a>
 8006c84:	6801      	ldr	r1, [r0, #0]
 8006c86:	6b04      	ldr	r4, [r0, #48]	; 0x30
 8006c88:	684a      	ldr	r2, [r1, #4]
 8006c8a:	f422 2280 	bic.w	r2, r2, #262144	; 0x40000
 8006c8e:	4322      	orrs	r2, r4
 8006c90:	604a      	str	r2, [r1, #4]
 8006c92:	071a      	lsls	r2, r3, #28
 8006c94:	d506      	bpl.n	8006ca4 <UART_AdvFeatureConfig+0x4c>
 8006c96:	6801      	ldr	r1, [r0, #0]
 8006c98:	6b44      	ldr	r4, [r0, #52]	; 0x34
 8006c9a:	684a      	ldr	r2, [r1, #4]
 8006c9c:	f422 4200 	bic.w	r2, r2, #32768	; 0x8000
 8006ca0:	4322      	orrs	r2, r4
 8006ca2:	604a      	str	r2, [r1, #4]
 8006ca4:	06dc      	lsls	r4, r3, #27
 8006ca6:	d506      	bpl.n	8006cb6 <UART_AdvFeatureConfig+0x5e>
 8006ca8:	6801      	ldr	r1, [r0, #0]
 8006caa:	6b84      	ldr	r4, [r0, #56]	; 0x38
 8006cac:	688a      	ldr	r2, [r1, #8]
 8006cae:	f422 5280 	bic.w	r2, r2, #4096	; 0x1000
 8006cb2:	4322      	orrs	r2, r4
 8006cb4:	608a      	str	r2, [r1, #8]
 8006cb6:	0699      	lsls	r1, r3, #26
 8006cb8:	d506      	bpl.n	8006cc8 <UART_AdvFeatureConfig+0x70>
 8006cba:	6801      	ldr	r1, [r0, #0]
 8006cbc:	6bc4      	ldr	r4, [r0, #60]	; 0x3c
 8006cbe:	688a      	ldr	r2, [r1, #8]
 8006cc0:	f422 5200 	bic.w	r2, r2, #8192	; 0x2000
 8006cc4:	4322      	orrs	r2, r4
 8006cc6:	608a      	str	r2, [r1, #8]
 8006cc8:	065a      	lsls	r2, r3, #25
 8006cca:	d50f      	bpl.n	8006cec <UART_AdvFeatureConfig+0x94>
 8006ccc:	6801      	ldr	r1, [r0, #0]
 8006cce:	6c04      	ldr	r4, [r0, #64]	; 0x40
 8006cd0:	684a      	ldr	r2, [r1, #4]
 8006cd2:	f422 1280 	bic.w	r2, r2, #1048576	; 0x100000
 8006cd6:	4322      	orrs	r2, r4
 8006cd8:	f5b4 1f80 	cmp.w	r4, #1048576	; 0x100000
 8006cdc:	604a      	str	r2, [r1, #4]
 8006cde:	d105      	bne.n	8006cec <UART_AdvFeatureConfig+0x94>
 8006ce0:	684a      	ldr	r2, [r1, #4]
 8006ce2:	6c44      	ldr	r4, [r0, #68]	; 0x44
 8006ce4:	f422 02c0 	bic.w	r2, r2, #6291456	; 0x600000
 8006ce8:	4322      	orrs	r2, r4
 8006cea:	604a      	str	r2, [r1, #4]
 8006cec:	061b      	lsls	r3, r3, #24
 8006cee:	d506      	bpl.n	8006cfe <UART_AdvFeatureConfig+0xa6>
 8006cf0:	6802      	ldr	r2, [r0, #0]
 8006cf2:	6c81      	ldr	r1, [r0, #72]	; 0x48
 8006cf4:	6853      	ldr	r3, [r2, #4]
 8006cf6:	f423 2300 	bic.w	r3, r3, #524288	; 0x80000
 8006cfa:	430b      	orrs	r3, r1
 8006cfc:	6053      	str	r3, [r2, #4]
 8006cfe:	bd10      	pop	{r4, pc}

08006d00 <UART_WaitOnFlagUntilTimeout>:
 8006d00:	e92d 43f8 	stmdb	sp!, {r3, r4, r5, r6, r7, r8, r9, lr}
 8006d04:	f8dd 9020 	ldr.w	r9, [sp, #32]
 8006d08:	4604      	mov	r4, r0
 8006d0a:	460f      	mov	r7, r1
 8006d0c:	4616      	mov	r6, r2
 8006d0e:	4698      	mov	r8, r3
 8006d10:	6822      	ldr	r2, [r4, #0]
 8006d12:	69d3      	ldr	r3, [r2, #28]
 8006d14:	ea37 0303 	bics.w	r3, r7, r3
 8006d18:	bf0c      	ite	eq
 8006d1a:	2301      	moveq	r3, #1
 8006d1c:	2300      	movne	r3, #0
 8006d1e:	42b3      	cmp	r3, r6
 8006d20:	d001      	beq.n	8006d26 <UART_WaitOnFlagUntilTimeout+0x26>
 8006d22:	2000      	movs	r0, #0
 8006d24:	e01e      	b.n	8006d64 <UART_WaitOnFlagUntilTimeout+0x64>
 8006d26:	f1b9 3fff 	cmp.w	r9, #4294967295
 8006d2a:	d0f2      	beq.n	8006d12 <UART_WaitOnFlagUntilTimeout+0x12>
 8006d2c:	f7fb f98a 	bl	8002044 <HAL_GetTick>
 8006d30:	eba0 0008 	sub.w	r0, r0, r8
 8006d34:	4548      	cmp	r0, r9
 8006d36:	d825      	bhi.n	8006d84 <UART_WaitOnFlagUntilTimeout+0x84>
 8006d38:	f1b9 0f00 	cmp.w	r9, #0
 8006d3c:	d022      	beq.n	8006d84 <UART_WaitOnFlagUntilTimeout+0x84>
 8006d3e:	6820      	ldr	r0, [r4, #0]
 8006d40:	6803      	ldr	r3, [r0, #0]
 8006d42:	075a      	lsls	r2, r3, #29
 8006d44:	d5e4      	bpl.n	8006d10 <UART_WaitOnFlagUntilTimeout+0x10>
 8006d46:	69c5      	ldr	r5, [r0, #28]
 8006d48:	f015 0508 	ands.w	r5, r5, #8
 8006d4c:	d00c      	beq.n	8006d68 <UART_WaitOnFlagUntilTimeout+0x68>
 8006d4e:	2508      	movs	r5, #8
 8006d50:	6205      	str	r5, [r0, #32]
 8006d52:	4620      	mov	r0, r4
 8006d54:	f7ff fcf9 	bl	800674a <UART_EndRxTransfer>
 8006d58:	2300      	movs	r3, #0
 8006d5a:	f8c4 5084 	str.w	r5, [r4, #132]	; 0x84
 8006d5e:	f884 3078 	strb.w	r3, [r4, #120]	; 0x78
 8006d62:	2001      	movs	r0, #1
 8006d64:	e8bd 83f8 	ldmia.w	sp!, {r3, r4, r5, r6, r7, r8, r9, pc}
 8006d68:	69c3      	ldr	r3, [r0, #28]
 8006d6a:	051b      	lsls	r3, r3, #20
 8006d6c:	d5d0      	bpl.n	8006d10 <UART_WaitOnFlagUntilTimeout+0x10>
 8006d6e:	f44f 6300 	mov.w	r3, #2048	; 0x800
 8006d72:	6203      	str	r3, [r0, #32]
 8006d74:	4620      	mov	r0, r4
 8006d76:	f7ff fce8 	bl	800674a <UART_EndRxTransfer>
 8006d7a:	2320      	movs	r3, #32
 8006d7c:	f8c4 3084 	str.w	r3, [r4, #132]	; 0x84
 8006d80:	f884 5078 	strb.w	r5, [r4, #120]	; 0x78
 8006d84:	2003      	movs	r0, #3
 8006d86:	e7ed      	b.n	8006d64 <UART_WaitOnFlagUntilTimeout+0x64>

08006d88 <UART_CheckIdleState>:
 8006d88:	b530      	push	{r4, r5, lr}
 8006d8a:	4604      	mov	r4, r0
 8006d8c:	2500      	movs	r5, #0
 8006d8e:	b085      	sub	sp, #20
 8006d90:	f8c0 5084 	str.w	r5, [r0, #132]	; 0x84
 8006d94:	f7fb f956 	bl	8002044 <HAL_GetTick>
 8006d98:	6822      	ldr	r2, [r4, #0]
 8006d9a:	6812      	ldr	r2, [r2, #0]
 8006d9c:	0711      	lsls	r1, r2, #28
 8006d9e:	4603      	mov	r3, r0
 8006da0:	d51c      	bpl.n	8006ddc <UART_CheckIdleState+0x54>
 8006da2:	f06f 427e 	mvn.w	r2, #4261412864	; 0xfe000000
 8006da6:	9200      	str	r2, [sp, #0]
 8006da8:	9003      	str	r0, [sp, #12]
 8006daa:	462a      	mov	r2, r5
 8006dac:	f44f 1100 	mov.w	r1, #2097152	; 0x200000
 8006db0:	4620      	mov	r0, r4
 8006db2:	f7ff ffa5 	bl	8006d00 <UART_WaitOnFlagUntilTimeout>
 8006db6:	9b03      	ldr	r3, [sp, #12]
 8006db8:	b180      	cbz	r0, 8006ddc <UART_CheckIdleState+0x54>
 8006dba:	6822      	ldr	r2, [r4, #0]
 8006dbc:	e852 3f00 	ldrex	r3, [r2]
 8006dc0:	f023 0380 	bic.w	r3, r3, #128	; 0x80
 8006dc4:	e842 3100 	strex	r1, r3, [r2]
 8006dc8:	2900      	cmp	r1, #0
 8006dca:	d1f6      	bne.n	8006dba <UART_CheckIdleState+0x32>
 8006dcc:	2320      	movs	r3, #32
 8006dce:	67e3      	str	r3, [r4, #124]	; 0x7c
 8006dd0:	2003      	movs	r0, #3
 8006dd2:	2300      	movs	r3, #0
 8006dd4:	f884 3078 	strb.w	r3, [r4, #120]	; 0x78
 8006dd8:	b005      	add	sp, #20
 8006dda:	bd30      	pop	{r4, r5, pc}
 8006ddc:	6822      	ldr	r2, [r4, #0]
 8006dde:	6812      	ldr	r2, [r2, #0]
 8006de0:	0752      	lsls	r2, r2, #29
 8006de2:	d523      	bpl.n	8006e2c <UART_CheckIdleState+0xa4>
 8006de4:	f06f 427e 	mvn.w	r2, #4261412864	; 0xfe000000
 8006de8:	9200      	str	r2, [sp, #0]
 8006dea:	f44f 0180 	mov.w	r1, #4194304	; 0x400000
 8006dee:	2200      	movs	r2, #0
 8006df0:	4620      	mov	r0, r4
 8006df2:	f7ff ff85 	bl	8006d00 <UART_WaitOnFlagUntilTimeout>
 8006df6:	b1c8      	cbz	r0, 8006e2c <UART_CheckIdleState+0xa4>
 8006df8:	6822      	ldr	r2, [r4, #0]
 8006dfa:	e852 3f00 	ldrex	r3, [r2]
 8006dfe:	f423 7390 	bic.w	r3, r3, #288	; 0x120
 8006e02:	e842 3100 	strex	r1, r3, [r2]
 8006e06:	6822      	ldr	r2, [r4, #0]
 8006e08:	2900      	cmp	r1, #0
 8006e0a:	d1f5      	bne.n	8006df8 <UART_CheckIdleState+0x70>
 8006e0c:	f102 0308 	add.w	r3, r2, #8
 8006e10:	e853 3f00 	ldrex	r3, [r3]
 8006e14:	f023 0301 	bic.w	r3, r3, #1
 8006e18:	f102 0008 	add.w	r0, r2, #8
 8006e1c:	e840 3100 	strex	r1, r3, [r0]
 8006e20:	2900      	cmp	r1, #0
 8006e22:	d1f3      	bne.n	8006e0c <UART_CheckIdleState+0x84>
 8006e24:	2320      	movs	r3, #32
 8006e26:	f8c4 3080 	str.w	r3, [r4, #128]	; 0x80
 8006e2a:	e7d1      	b.n	8006dd0 <UART_CheckIdleState+0x48>
 8006e2c:	2320      	movs	r3, #32
 8006e2e:	2000      	movs	r0, #0
 8006e30:	67e3      	str	r3, [r4, #124]	; 0x7c
 8006e32:	f8c4 3080 	str.w	r3, [r4, #128]	; 0x80
 8006e36:	6620      	str	r0, [r4, #96]	; 0x60
 8006e38:	6660      	str	r0, [r4, #100]	; 0x64
 8006e3a:	e7ca      	b.n	8006dd2 <UART_CheckIdleState+0x4a>

08006e3c <HAL_UART_Init>:
 8006e3c:	b510      	push	{r4, lr}
 8006e3e:	4604      	mov	r4, r0
 8006e40:	b340      	cbz	r0, 8006e94 <HAL_UART_Init+0x58>
 8006e42:	6fc3      	ldr	r3, [r0, #124]	; 0x7c
 8006e44:	b91b      	cbnz	r3, 8006e4e <HAL_UART_Init+0x12>
 8006e46:	f880 3078 	strb.w	r3, [r0, #120]	; 0x78
 8006e4a:	f7fa ff4f 	bl	8001cec <HAL_UART_MspInit>
 8006e4e:	6822      	ldr	r2, [r4, #0]
 8006e50:	2324      	movs	r3, #36	; 0x24
 8006e52:	67e3      	str	r3, [r4, #124]	; 0x7c
 8006e54:	6813      	ldr	r3, [r2, #0]
 8006e56:	f023 0301 	bic.w	r3, r3, #1
 8006e5a:	6013      	str	r3, [r2, #0]
 8006e5c:	4620      	mov	r0, r4
 8006e5e:	f7ff fdf9 	bl	8006a54 <UART_SetConfig>
 8006e62:	2801      	cmp	r0, #1
 8006e64:	d016      	beq.n	8006e94 <HAL_UART_Init+0x58>
 8006e66:	6a63      	ldr	r3, [r4, #36]	; 0x24
 8006e68:	b113      	cbz	r3, 8006e70 <HAL_UART_Init+0x34>
 8006e6a:	4620      	mov	r0, r4
 8006e6c:	f7ff fef4 	bl	8006c58 <UART_AdvFeatureConfig>
 8006e70:	6823      	ldr	r3, [r4, #0]
 8006e72:	685a      	ldr	r2, [r3, #4]
 8006e74:	f422 4290 	bic.w	r2, r2, #18432	; 0x4800
 8006e78:	605a      	str	r2, [r3, #4]
 8006e7a:	689a      	ldr	r2, [r3, #8]
 8006e7c:	f022 022a 	bic.w	r2, r2, #42	; 0x2a
 8006e80:	609a      	str	r2, [r3, #8]
 8006e82:	681a      	ldr	r2, [r3, #0]
 8006e84:	f042 0201 	orr.w	r2, r2, #1
 8006e88:	4620      	mov	r0, r4
 8006e8a:	601a      	str	r2, [r3, #0]
 8006e8c:	e8bd 4010 	ldmia.w	sp!, {r4, lr}
 8006e90:	f7ff bf7a 	b.w	8006d88 <UART_CheckIdleState>
 8006e94:	2001      	movs	r0, #1
 8006e96:	bd10      	pop	{r4, pc}

08006e98 <HAL_UARTEx_WakeupCallback>:
 8006e98:	4770      	bx	lr
	...

08006e9c <siprintf>:
 8006e9c:	b40e      	push	{r1, r2, r3}
 8006e9e:	b500      	push	{lr}
 8006ea0:	b09c      	sub	sp, #112	; 0x70
 8006ea2:	ab1d      	add	r3, sp, #116	; 0x74
 8006ea4:	9002      	str	r0, [sp, #8]
 8006ea6:	9006      	str	r0, [sp, #24]
 8006ea8:	f06f 4100 	mvn.w	r1, #2147483648	; 0x80000000
 8006eac:	4809      	ldr	r0, [pc, #36]	; (8006ed4 <siprintf+0x38>)
 8006eae:	9107      	str	r1, [sp, #28]
 8006eb0:	9104      	str	r1, [sp, #16]
 8006eb2:	4909      	ldr	r1, [pc, #36]	; (8006ed8 <siprintf+0x3c>)
 8006eb4:	f853 2b04 	ldr.w	r2, [r3], #4
 8006eb8:	9105      	str	r1, [sp, #20]
 8006eba:	6800      	ldr	r0, [r0, #0]
 8006ebc:	9301      	str	r3, [sp, #4]
 8006ebe:	a902      	add	r1, sp, #8
 8006ec0:	f000 f9a0 	bl	8007204 <_svfiprintf_r>
 8006ec4:	9b02      	ldr	r3, [sp, #8]
 8006ec6:	2200      	movs	r2, #0
 8006ec8:	701a      	strb	r2, [r3, #0]
 8006eca:	b01c      	add	sp, #112	; 0x70
 8006ecc:	f85d eb04 	ldr.w	lr, [sp], #4
 8006ed0:	b003      	add	sp, #12
 8006ed2:	4770      	bx	lr
 8006ed4:	20000064 	.word	0x20000064
 8006ed8:	ffff0208 	.word	0xffff0208

08006edc <memset>:
 8006edc:	4402      	add	r2, r0
 8006ede:	4603      	mov	r3, r0
 8006ee0:	4293      	cmp	r3, r2
 8006ee2:	d100      	bne.n	8006ee6 <memset+0xa>
 8006ee4:	4770      	bx	lr
 8006ee6:	f803 1b01 	strb.w	r1, [r3], #1
 8006eea:	e7f9      	b.n	8006ee0 <memset+0x4>

08006eec <__errno>:
 8006eec:	4b01      	ldr	r3, [pc, #4]	; (8006ef4 <__errno+0x8>)
 8006eee:	6818      	ldr	r0, [r3, #0]
 8006ef0:	4770      	bx	lr
 8006ef2:	bf00      	nop
 8006ef4:	20000064 	.word	0x20000064

08006ef8 <__libc_init_array>:
 8006ef8:	b570      	push	{r4, r5, r6, lr}
 8006efa:	4d0d      	ldr	r5, [pc, #52]	; (8006f30 <__libc_init_array+0x38>)
 8006efc:	4c0d      	ldr	r4, [pc, #52]	; (8006f34 <__libc_init_array+0x3c>)
 8006efe:	1b64      	subs	r4, r4, r5
 8006f00:	10a4      	asrs	r4, r4, #2
 8006f02:	2600      	movs	r6, #0
 8006f04:	42a6      	cmp	r6, r4
 8006f06:	d109      	bne.n	8006f1c <__libc_init_array+0x24>
 8006f08:	4d0b      	ldr	r5, [pc, #44]	; (8006f38 <__libc_init_array+0x40>)
 8006f0a:	4c0c      	ldr	r4, [pc, #48]	; (8006f3c <__libc_init_array+0x44>)
 8006f0c:	f000 fc6a 	bl	80077e4 <_init>
 8006f10:	1b64      	subs	r4, r4, r5
 8006f12:	10a4      	asrs	r4, r4, #2
 8006f14:	2600      	movs	r6, #0
 8006f16:	42a6      	cmp	r6, r4
 8006f18:	d105      	bne.n	8006f26 <__libc_init_array+0x2e>
 8006f1a:	bd70      	pop	{r4, r5, r6, pc}
 8006f1c:	f855 3b04 	ldr.w	r3, [r5], #4
 8006f20:	4798      	blx	r3
 8006f22:	3601      	adds	r6, #1
 8006f24:	e7ee      	b.n	8006f04 <__libc_init_array+0xc>
 8006f26:	f855 3b04 	ldr.w	r3, [r5], #4
 8006f2a:	4798      	blx	r3
 8006f2c:	3601      	adds	r6, #1
 8006f2e:	e7f2      	b.n	8006f16 <__libc_init_array+0x1e>
 8006f30:	080078f0 	.word	0x080078f0
 8006f34:	080078f0 	.word	0x080078f0
 8006f38:	080078f0 	.word	0x080078f0
 8006f3c:	080078f4 	.word	0x080078f4

08006f40 <__retarget_lock_acquire_recursive>:
 8006f40:	4770      	bx	lr

08006f42 <__retarget_lock_release_recursive>:
 8006f42:	4770      	bx	lr

08006f44 <memcpy>:
 8006f44:	440a      	add	r2, r1
 8006f46:	4291      	cmp	r1, r2
 8006f48:	f100 33ff 	add.w	r3, r0, #4294967295
 8006f4c:	d100      	bne.n	8006f50 <memcpy+0xc>
 8006f4e:	4770      	bx	lr
 8006f50:	b510      	push	{r4, lr}
 8006f52:	f811 4b01 	ldrb.w	r4, [r1], #1
 8006f56:	f803 4f01 	strb.w	r4, [r3, #1]!
 8006f5a:	4291      	cmp	r1, r2
 8006f5c:	d1f9      	bne.n	8006f52 <memcpy+0xe>
 8006f5e:	bd10      	pop	{r4, pc}

08006f60 <_free_r>:
 8006f60:	b537      	push	{r0, r1, r2, r4, r5, lr}
 8006f62:	2900      	cmp	r1, #0
 8006f64:	d044      	beq.n	8006ff0 <_free_r+0x90>
 8006f66:	f851 3c04 	ldr.w	r3, [r1, #-4]
 8006f6a:	9001      	str	r0, [sp, #4]
 8006f6c:	2b00      	cmp	r3, #0
 8006f6e:	f1a1 0404 	sub.w	r4, r1, #4
 8006f72:	bfb8      	it	lt
 8006f74:	18e4      	addlt	r4, r4, r3
 8006f76:	f000 f8df 	bl	8007138 <__malloc_lock>
 8006f7a:	4a1e      	ldr	r2, [pc, #120]	; (8006ff4 <_free_r+0x94>)
 8006f7c:	9801      	ldr	r0, [sp, #4]
 8006f7e:	6813      	ldr	r3, [r2, #0]
 8006f80:	b933      	cbnz	r3, 8006f90 <_free_r+0x30>
 8006f82:	6063      	str	r3, [r4, #4]
 8006f84:	6014      	str	r4, [r2, #0]
 8006f86:	b003      	add	sp, #12
 8006f88:	e8bd 4030 	ldmia.w	sp!, {r4, r5, lr}
 8006f8c:	f000 b8da 	b.w	8007144 <__malloc_unlock>
 8006f90:	42a3      	cmp	r3, r4
 8006f92:	d908      	bls.n	8006fa6 <_free_r+0x46>
 8006f94:	6825      	ldr	r5, [r4, #0]
 8006f96:	1961      	adds	r1, r4, r5
 8006f98:	428b      	cmp	r3, r1
 8006f9a:	bf01      	itttt	eq
 8006f9c:	6819      	ldreq	r1, [r3, #0]
 8006f9e:	685b      	ldreq	r3, [r3, #4]
 8006fa0:	1949      	addeq	r1, r1, r5
 8006fa2:	6021      	streq	r1, [r4, #0]
 8006fa4:	e7ed      	b.n	8006f82 <_free_r+0x22>
 8006fa6:	461a      	mov	r2, r3
 8006fa8:	685b      	ldr	r3, [r3, #4]
 8006faa:	b10b      	cbz	r3, 8006fb0 <_free_r+0x50>
 8006fac:	42a3      	cmp	r3, r4
 8006fae:	d9fa      	bls.n	8006fa6 <_free_r+0x46>
 8006fb0:	6811      	ldr	r1, [r2, #0]
 8006fb2:	1855      	adds	r5, r2, r1
 8006fb4:	42a5      	cmp	r5, r4
 8006fb6:	d10b      	bne.n	8006fd0 <_free_r+0x70>
 8006fb8:	6824      	ldr	r4, [r4, #0]
 8006fba:	4421      	add	r1, r4
 8006fbc:	1854      	adds	r4, r2, r1
 8006fbe:	42a3      	cmp	r3, r4
 8006fc0:	6011      	str	r1, [r2, #0]
 8006fc2:	d1e0      	bne.n	8006f86 <_free_r+0x26>
 8006fc4:	681c      	ldr	r4, [r3, #0]
 8006fc6:	685b      	ldr	r3, [r3, #4]
 8006fc8:	6053      	str	r3, [r2, #4]
 8006fca:	440c      	add	r4, r1
 8006fcc:	6014      	str	r4, [r2, #0]
 8006fce:	e7da      	b.n	8006f86 <_free_r+0x26>
 8006fd0:	d902      	bls.n	8006fd8 <_free_r+0x78>
 8006fd2:	230c      	movs	r3, #12
 8006fd4:	6003      	str	r3, [r0, #0]
 8006fd6:	e7d6      	b.n	8006f86 <_free_r+0x26>
 8006fd8:	6825      	ldr	r5, [r4, #0]
 8006fda:	1961      	adds	r1, r4, r5
 8006fdc:	428b      	cmp	r3, r1
 8006fde:	bf04      	itt	eq
 8006fe0:	6819      	ldreq	r1, [r3, #0]
 8006fe2:	685b      	ldreq	r3, [r3, #4]
 8006fe4:	6063      	str	r3, [r4, #4]
 8006fe6:	bf04      	itt	eq
 8006fe8:	1949      	addeq	r1, r1, r5
 8006fea:	6021      	streq	r1, [r4, #0]
 8006fec:	6054      	str	r4, [r2, #4]
 8006fee:	e7ca      	b.n	8006f86 <_free_r+0x26>
 8006ff0:	b003      	add	sp, #12
 8006ff2:	bd30      	pop	{r4, r5, pc}
 8006ff4:	2000075c 	.word	0x2000075c

08006ff8 <sbrk_aligned>:
 8006ff8:	b570      	push	{r4, r5, r6, lr}
 8006ffa:	4e0e      	ldr	r6, [pc, #56]	; (8007034 <sbrk_aligned+0x3c>)
 8006ffc:	460c      	mov	r4, r1
 8006ffe:	6831      	ldr	r1, [r6, #0]
 8007000:	4605      	mov	r5, r0
 8007002:	b911      	cbnz	r1, 800700a <sbrk_aligned+0x12>
 8007004:	f000 fba6 	bl	8007754 <_sbrk_r>
 8007008:	6030      	str	r0, [r6, #0]
 800700a:	4621      	mov	r1, r4
 800700c:	4628      	mov	r0, r5
 800700e:	f000 fba1 	bl	8007754 <_sbrk_r>
 8007012:	1c43      	adds	r3, r0, #1
 8007014:	d00a      	beq.n	800702c <sbrk_aligned+0x34>
 8007016:	1cc4      	adds	r4, r0, #3
 8007018:	f024 0403 	bic.w	r4, r4, #3
 800701c:	42a0      	cmp	r0, r4
 800701e:	d007      	beq.n	8007030 <sbrk_aligned+0x38>
 8007020:	1a21      	subs	r1, r4, r0
 8007022:	4628      	mov	r0, r5
 8007024:	f000 fb96 	bl	8007754 <_sbrk_r>
 8007028:	3001      	adds	r0, #1
 800702a:	d101      	bne.n	8007030 <sbrk_aligned+0x38>
 800702c:	f04f 34ff 	mov.w	r4, #4294967295
 8007030:	4620      	mov	r0, r4
 8007032:	bd70      	pop	{r4, r5, r6, pc}
 8007034:	20000760 	.word	0x20000760

08007038 <_malloc_r>:
 8007038:	e92d 43f8 	stmdb	sp!, {r3, r4, r5, r6, r7, r8, r9, lr}
 800703c:	1ccd      	adds	r5, r1, #3
 800703e:	f025 0503 	bic.w	r5, r5, #3
 8007042:	3508      	adds	r5, #8
 8007044:	2d0c      	cmp	r5, #12
 8007046:	bf38      	it	cc
 8007048:	250c      	movcc	r5, #12
 800704a:	2d00      	cmp	r5, #0
 800704c:	4607      	mov	r7, r0
 800704e:	db01      	blt.n	8007054 <_malloc_r+0x1c>
 8007050:	42a9      	cmp	r1, r5
 8007052:	d905      	bls.n	8007060 <_malloc_r+0x28>
 8007054:	230c      	movs	r3, #12
 8007056:	603b      	str	r3, [r7, #0]
 8007058:	2600      	movs	r6, #0
 800705a:	4630      	mov	r0, r6
 800705c:	e8bd 83f8 	ldmia.w	sp!, {r3, r4, r5, r6, r7, r8, r9, pc}
 8007060:	f8df 80d0 	ldr.w	r8, [pc, #208]	; 8007134 <_malloc_r+0xfc>
 8007064:	f000 f868 	bl	8007138 <__malloc_lock>
 8007068:	f8d8 3000 	ldr.w	r3, [r8]
 800706c:	461c      	mov	r4, r3
 800706e:	bb5c      	cbnz	r4, 80070c8 <_malloc_r+0x90>
 8007070:	4629      	mov	r1, r5
 8007072:	4638      	mov	r0, r7
 8007074:	f7ff ffc0 	bl	8006ff8 <sbrk_aligned>
 8007078:	1c43      	adds	r3, r0, #1
 800707a:	4604      	mov	r4, r0
 800707c:	d155      	bne.n	800712a <_malloc_r+0xf2>
 800707e:	f8d8 4000 	ldr.w	r4, [r8]
 8007082:	4626      	mov	r6, r4
 8007084:	2e00      	cmp	r6, #0
 8007086:	d145      	bne.n	8007114 <_malloc_r+0xdc>
 8007088:	2c00      	cmp	r4, #0
 800708a:	d048      	beq.n	800711e <_malloc_r+0xe6>
 800708c:	6823      	ldr	r3, [r4, #0]
 800708e:	4631      	mov	r1, r6
 8007090:	4638      	mov	r0, r7
 8007092:	eb04 0903 	add.w	r9, r4, r3
 8007096:	f000 fb5d 	bl	8007754 <_sbrk_r>
 800709a:	4581      	cmp	r9, r0
 800709c:	d13f      	bne.n	800711e <_malloc_r+0xe6>
 800709e:	6821      	ldr	r1, [r4, #0]
 80070a0:	1a6d      	subs	r5, r5, r1
 80070a2:	4629      	mov	r1, r5
 80070a4:	4638      	mov	r0, r7
 80070a6:	f7ff ffa7 	bl	8006ff8 <sbrk_aligned>
 80070aa:	3001      	adds	r0, #1
 80070ac:	d037      	beq.n	800711e <_malloc_r+0xe6>
 80070ae:	6823      	ldr	r3, [r4, #0]
 80070b0:	442b      	add	r3, r5
 80070b2:	6023      	str	r3, [r4, #0]
 80070b4:	f8d8 3000 	ldr.w	r3, [r8]
 80070b8:	2b00      	cmp	r3, #0
 80070ba:	d038      	beq.n	800712e <_malloc_r+0xf6>
 80070bc:	685a      	ldr	r2, [r3, #4]
 80070be:	42a2      	cmp	r2, r4
 80070c0:	d12b      	bne.n	800711a <_malloc_r+0xe2>
 80070c2:	2200      	movs	r2, #0
 80070c4:	605a      	str	r2, [r3, #4]
 80070c6:	e00f      	b.n	80070e8 <_malloc_r+0xb0>
 80070c8:	6822      	ldr	r2, [r4, #0]
 80070ca:	1b52      	subs	r2, r2, r5
 80070cc:	d41f      	bmi.n	800710e <_malloc_r+0xd6>
 80070ce:	2a0b      	cmp	r2, #11
 80070d0:	d917      	bls.n	8007102 <_malloc_r+0xca>
 80070d2:	1961      	adds	r1, r4, r5
 80070d4:	42a3      	cmp	r3, r4
 80070d6:	6025      	str	r5, [r4, #0]
 80070d8:	bf18      	it	ne
 80070da:	6059      	strne	r1, [r3, #4]
 80070dc:	6863      	ldr	r3, [r4, #4]
 80070de:	bf08      	it	eq
 80070e0:	f8c8 1000 	streq.w	r1, [r8]
 80070e4:	5162      	str	r2, [r4, r5]
 80070e6:	604b      	str	r3, [r1, #4]
 80070e8:	4638      	mov	r0, r7
 80070ea:	f104 060b 	add.w	r6, r4, #11
 80070ee:	f000 f829 	bl	8007144 <__malloc_unlock>
 80070f2:	f026 0607 	bic.w	r6, r6, #7
 80070f6:	1d23      	adds	r3, r4, #4
 80070f8:	1af2      	subs	r2, r6, r3
 80070fa:	d0ae      	beq.n	800705a <_malloc_r+0x22>
 80070fc:	1b9b      	subs	r3, r3, r6
 80070fe:	50a3      	str	r3, [r4, r2]
 8007100:	e7ab      	b.n	800705a <_malloc_r+0x22>
 8007102:	42a3      	cmp	r3, r4
 8007104:	6862      	ldr	r2, [r4, #4]
 8007106:	d1dd      	bne.n	80070c4 <_malloc_r+0x8c>
 8007108:	f8c8 2000 	str.w	r2, [r8]
 800710c:	e7ec      	b.n	80070e8 <_malloc_r+0xb0>
 800710e:	4623      	mov	r3, r4
 8007110:	6864      	ldr	r4, [r4, #4]
 8007112:	e7ac      	b.n	800706e <_malloc_r+0x36>
 8007114:	4634      	mov	r4, r6
 8007116:	6876      	ldr	r6, [r6, #4]
 8007118:	e7b4      	b.n	8007084 <_malloc_r+0x4c>
 800711a:	4613      	mov	r3, r2
 800711c:	e7cc      	b.n	80070b8 <_malloc_r+0x80>
 800711e:	230c      	movs	r3, #12
 8007120:	603b      	str	r3, [r7, #0]
 8007122:	4638      	mov	r0, r7
 8007124:	f000 f80e 	bl	8007144 <__malloc_unlock>
 8007128:	e797      	b.n	800705a <_malloc_r+0x22>
 800712a:	6025      	str	r5, [r4, #0]
 800712c:	e7dc      	b.n	80070e8 <_malloc_r+0xb0>
 800712e:	605b      	str	r3, [r3, #4]
 8007130:	deff      	udf	#255	; 0xff
 8007132:	bf00      	nop
 8007134:	2000075c 	.word	0x2000075c

08007138 <__malloc_lock>:
 8007138:	4801      	ldr	r0, [pc, #4]	; (8007140 <__malloc_lock+0x8>)
 800713a:	f7ff bf01 	b.w	8006f40 <__retarget_lock_acquire_recursive>
 800713e:	bf00      	nop
 8007140:	20000758 	.word	0x20000758

08007144 <__malloc_unlock>:
 8007144:	4801      	ldr	r0, [pc, #4]	; (800714c <__malloc_unlock+0x8>)
 8007146:	f7ff befc 	b.w	8006f42 <__retarget_lock_release_recursive>
 800714a:	bf00      	nop
 800714c:	20000758 	.word	0x20000758

08007150 <__ssputs_r>:
 8007150:	e92d 47f0 	stmdb	sp!, {r4, r5, r6, r7, r8, r9, sl, lr}
 8007154:	688e      	ldr	r6, [r1, #8]
 8007156:	461f      	mov	r7, r3
 8007158:	42be      	cmp	r6, r7
 800715a:	680b      	ldr	r3, [r1, #0]
 800715c:	4682      	mov	sl, r0
 800715e:	460c      	mov	r4, r1
 8007160:	4690      	mov	r8, r2
 8007162:	d82c      	bhi.n	80071be <__ssputs_r+0x6e>
 8007164:	898a      	ldrh	r2, [r1, #12]
 8007166:	f412 6f90 	tst.w	r2, #1152	; 0x480
 800716a:	d026      	beq.n	80071ba <__ssputs_r+0x6a>
 800716c:	6965      	ldr	r5, [r4, #20]
 800716e:	6909      	ldr	r1, [r1, #16]
 8007170:	eb05 0545 	add.w	r5, r5, r5, lsl #1
 8007174:	eba3 0901 	sub.w	r9, r3, r1
 8007178:	eb05 75d5 	add.w	r5, r5, r5, lsr #31
 800717c:	1c7b      	adds	r3, r7, #1
 800717e:	444b      	add	r3, r9
 8007180:	106d      	asrs	r5, r5, #1
 8007182:	429d      	cmp	r5, r3
 8007184:	bf38      	it	cc
 8007186:	461d      	movcc	r5, r3
 8007188:	0553      	lsls	r3, r2, #21
 800718a:	d527      	bpl.n	80071dc <__ssputs_r+0x8c>
 800718c:	4629      	mov	r1, r5
 800718e:	f7ff ff53 	bl	8007038 <_malloc_r>
 8007192:	4606      	mov	r6, r0
 8007194:	b360      	cbz	r0, 80071f0 <__ssputs_r+0xa0>
 8007196:	6921      	ldr	r1, [r4, #16]
 8007198:	464a      	mov	r2, r9
 800719a:	f7ff fed3 	bl	8006f44 <memcpy>
 800719e:	89a3      	ldrh	r3, [r4, #12]
 80071a0:	f423 6390 	bic.w	r3, r3, #1152	; 0x480
 80071a4:	f043 0380 	orr.w	r3, r3, #128	; 0x80
 80071a8:	81a3      	strh	r3, [r4, #12]
 80071aa:	6126      	str	r6, [r4, #16]
 80071ac:	6165      	str	r5, [r4, #20]
 80071ae:	444e      	add	r6, r9
 80071b0:	eba5 0509 	sub.w	r5, r5, r9
 80071b4:	6026      	str	r6, [r4, #0]
 80071b6:	60a5      	str	r5, [r4, #8]
 80071b8:	463e      	mov	r6, r7
 80071ba:	42be      	cmp	r6, r7
 80071bc:	d900      	bls.n	80071c0 <__ssputs_r+0x70>
 80071be:	463e      	mov	r6, r7
 80071c0:	6820      	ldr	r0, [r4, #0]
 80071c2:	4632      	mov	r2, r6
 80071c4:	4641      	mov	r1, r8
 80071c6:	f000 faab 	bl	8007720 <memmove>
 80071ca:	68a3      	ldr	r3, [r4, #8]
 80071cc:	1b9b      	subs	r3, r3, r6
 80071ce:	60a3      	str	r3, [r4, #8]
 80071d0:	6823      	ldr	r3, [r4, #0]
 80071d2:	4433      	add	r3, r6
 80071d4:	6023      	str	r3, [r4, #0]
 80071d6:	2000      	movs	r0, #0
 80071d8:	e8bd 87f0 	ldmia.w	sp!, {r4, r5, r6, r7, r8, r9, sl, pc}
 80071dc:	462a      	mov	r2, r5
 80071de:	f000 fac9 	bl	8007774 <_realloc_r>
 80071e2:	4606      	mov	r6, r0
 80071e4:	2800      	cmp	r0, #0
 80071e6:	d1e0      	bne.n	80071aa <__ssputs_r+0x5a>
 80071e8:	6921      	ldr	r1, [r4, #16]
 80071ea:	4650      	mov	r0, sl
 80071ec:	f7ff feb8 	bl	8006f60 <_free_r>
 80071f0:	230c      	movs	r3, #12
 80071f2:	f8ca 3000 	str.w	r3, [sl]
 80071f6:	89a3      	ldrh	r3, [r4, #12]
 80071f8:	f043 0340 	orr.w	r3, r3, #64	; 0x40
 80071fc:	81a3      	strh	r3, [r4, #12]
 80071fe:	f04f 30ff 	mov.w	r0, #4294967295
 8007202:	e7e9      	b.n	80071d8 <__ssputs_r+0x88>

08007204 <_svfiprintf_r>:
 8007204:	e92d 4ff0 	stmdb	sp!, {r4, r5, r6, r7, r8, r9, sl, fp, lr}
 8007208:	4698      	mov	r8, r3
 800720a:	898b      	ldrh	r3, [r1, #12]
 800720c:	061b      	lsls	r3, r3, #24
 800720e:	b09d      	sub	sp, #116	; 0x74
 8007210:	4607      	mov	r7, r0
 8007212:	460d      	mov	r5, r1
 8007214:	4614      	mov	r4, r2
 8007216:	d50e      	bpl.n	8007236 <_svfiprintf_r+0x32>
 8007218:	690b      	ldr	r3, [r1, #16]
 800721a:	b963      	cbnz	r3, 8007236 <_svfiprintf_r+0x32>
 800721c:	2140      	movs	r1, #64	; 0x40
 800721e:	f7ff ff0b 	bl	8007038 <_malloc_r>
 8007222:	6028      	str	r0, [r5, #0]
 8007224:	6128      	str	r0, [r5, #16]
 8007226:	b920      	cbnz	r0, 8007232 <_svfiprintf_r+0x2e>
 8007228:	230c      	movs	r3, #12
 800722a:	603b      	str	r3, [r7, #0]
 800722c:	f04f 30ff 	mov.w	r0, #4294967295
 8007230:	e0d0      	b.n	80073d4 <_svfiprintf_r+0x1d0>
 8007232:	2340      	movs	r3, #64	; 0x40
 8007234:	616b      	str	r3, [r5, #20]
 8007236:	2300      	movs	r3, #0
 8007238:	9309      	str	r3, [sp, #36]	; 0x24
 800723a:	2320      	movs	r3, #32
 800723c:	f88d 3029 	strb.w	r3, [sp, #41]	; 0x29
 8007240:	f8cd 800c 	str.w	r8, [sp, #12]
 8007244:	2330      	movs	r3, #48	; 0x30
 8007246:	f8df 81a4 	ldr.w	r8, [pc, #420]	; 80073ec <_svfiprintf_r+0x1e8>
 800724a:	f88d 302a 	strb.w	r3, [sp, #42]	; 0x2a
 800724e:	f04f 0901 	mov.w	r9, #1
 8007252:	4623      	mov	r3, r4
 8007254:	469a      	mov	sl, r3
 8007256:	f813 2b01 	ldrb.w	r2, [r3], #1
 800725a:	b10a      	cbz	r2, 8007260 <_svfiprintf_r+0x5c>
 800725c:	2a25      	cmp	r2, #37	; 0x25
 800725e:	d1f9      	bne.n	8007254 <_svfiprintf_r+0x50>
 8007260:	ebba 0b04 	subs.w	fp, sl, r4
 8007264:	d00b      	beq.n	800727e <_svfiprintf_r+0x7a>
 8007266:	465b      	mov	r3, fp
 8007268:	4622      	mov	r2, r4
 800726a:	4629      	mov	r1, r5
 800726c:	4638      	mov	r0, r7
 800726e:	f7ff ff6f 	bl	8007150 <__ssputs_r>
 8007272:	3001      	adds	r0, #1
 8007274:	f000 80a9 	beq.w	80073ca <_svfiprintf_r+0x1c6>
 8007278:	9a09      	ldr	r2, [sp, #36]	; 0x24
 800727a:	445a      	add	r2, fp
 800727c:	9209      	str	r2, [sp, #36]	; 0x24
 800727e:	f89a 3000 	ldrb.w	r3, [sl]
 8007282:	2b00      	cmp	r3, #0
 8007284:	f000 80a1 	beq.w	80073ca <_svfiprintf_r+0x1c6>
 8007288:	2300      	movs	r3, #0
 800728a:	f04f 32ff 	mov.w	r2, #4294967295
 800728e:	e9cd 2305 	strd	r2, r3, [sp, #20]
 8007292:	f10a 0a01 	add.w	sl, sl, #1
 8007296:	9304      	str	r3, [sp, #16]
 8007298:	9307      	str	r3, [sp, #28]
 800729a:	f88d 3053 	strb.w	r3, [sp, #83]	; 0x53
 800729e:	931a      	str	r3, [sp, #104]	; 0x68
 80072a0:	4654      	mov	r4, sl
 80072a2:	2205      	movs	r2, #5
 80072a4:	f814 1b01 	ldrb.w	r1, [r4], #1
 80072a8:	4850      	ldr	r0, [pc, #320]	; (80073ec <_svfiprintf_r+0x1e8>)
 80072aa:	f7f8 ff91 	bl	80001d0 <memchr>
 80072ae:	9a04      	ldr	r2, [sp, #16]
 80072b0:	b9d8      	cbnz	r0, 80072ea <_svfiprintf_r+0xe6>
 80072b2:	06d0      	lsls	r0, r2, #27
 80072b4:	bf44      	itt	mi
 80072b6:	2320      	movmi	r3, #32
 80072b8:	f88d 3053 	strbmi.w	r3, [sp, #83]	; 0x53
 80072bc:	0711      	lsls	r1, r2, #28
 80072be:	bf44      	itt	mi
 80072c0:	232b      	movmi	r3, #43	; 0x2b
 80072c2:	f88d 3053 	strbmi.w	r3, [sp, #83]	; 0x53
 80072c6:	f89a 3000 	ldrb.w	r3, [sl]
 80072ca:	2b2a      	cmp	r3, #42	; 0x2a
 80072cc:	d015      	beq.n	80072fa <_svfiprintf_r+0xf6>
 80072ce:	9a07      	ldr	r2, [sp, #28]
 80072d0:	4654      	mov	r4, sl
 80072d2:	2000      	movs	r0, #0
 80072d4:	f04f 0c0a 	mov.w	ip, #10
 80072d8:	4621      	mov	r1, r4
 80072da:	f811 3b01 	ldrb.w	r3, [r1], #1
 80072de:	3b30      	subs	r3, #48	; 0x30
 80072e0:	2b09      	cmp	r3, #9
 80072e2:	d94d      	bls.n	8007380 <_svfiprintf_r+0x17c>
 80072e4:	b1b0      	cbz	r0, 8007314 <_svfiprintf_r+0x110>
 80072e6:	9207      	str	r2, [sp, #28]
 80072e8:	e014      	b.n	8007314 <_svfiprintf_r+0x110>
 80072ea:	eba0 0308 	sub.w	r3, r0, r8
 80072ee:	fa09 f303 	lsl.w	r3, r9, r3
 80072f2:	4313      	orrs	r3, r2
 80072f4:	9304      	str	r3, [sp, #16]
 80072f6:	46a2      	mov	sl, r4
 80072f8:	e7d2      	b.n	80072a0 <_svfiprintf_r+0x9c>
 80072fa:	9b03      	ldr	r3, [sp, #12]
 80072fc:	1d19      	adds	r1, r3, #4
 80072fe:	681b      	ldr	r3, [r3, #0]
 8007300:	9103      	str	r1, [sp, #12]
 8007302:	2b00      	cmp	r3, #0
 8007304:	bfbb      	ittet	lt
 8007306:	425b      	neglt	r3, r3
 8007308:	f042 0202 	orrlt.w	r2, r2, #2
 800730c:	9307      	strge	r3, [sp, #28]
 800730e:	9307      	strlt	r3, [sp, #28]
 8007310:	bfb8      	it	lt
 8007312:	9204      	strlt	r2, [sp, #16]
 8007314:	7823      	ldrb	r3, [r4, #0]
 8007316:	2b2e      	cmp	r3, #46	; 0x2e
 8007318:	d10c      	bne.n	8007334 <_svfiprintf_r+0x130>
 800731a:	7863      	ldrb	r3, [r4, #1]
 800731c:	2b2a      	cmp	r3, #42	; 0x2a
 800731e:	d134      	bne.n	800738a <_svfiprintf_r+0x186>
 8007320:	9b03      	ldr	r3, [sp, #12]
 8007322:	1d1a      	adds	r2, r3, #4
 8007324:	681b      	ldr	r3, [r3, #0]
 8007326:	9203      	str	r2, [sp, #12]
 8007328:	2b00      	cmp	r3, #0
 800732a:	bfb8      	it	lt
 800732c:	f04f 33ff 	movlt.w	r3, #4294967295
 8007330:	3402      	adds	r4, #2
 8007332:	9305      	str	r3, [sp, #20]
 8007334:	f8df a0c4 	ldr.w	sl, [pc, #196]	; 80073fc <_svfiprintf_r+0x1f8>
 8007338:	7821      	ldrb	r1, [r4, #0]
 800733a:	2203      	movs	r2, #3
 800733c:	4650      	mov	r0, sl
 800733e:	f7f8 ff47 	bl	80001d0 <memchr>
 8007342:	b138      	cbz	r0, 8007354 <_svfiprintf_r+0x150>
 8007344:	9b04      	ldr	r3, [sp, #16]
 8007346:	eba0 000a 	sub.w	r0, r0, sl
 800734a:	2240      	movs	r2, #64	; 0x40
 800734c:	4082      	lsls	r2, r0
 800734e:	4313      	orrs	r3, r2
 8007350:	3401      	adds	r4, #1
 8007352:	9304      	str	r3, [sp, #16]
 8007354:	f814 1b01 	ldrb.w	r1, [r4], #1
 8007358:	4825      	ldr	r0, [pc, #148]	; (80073f0 <_svfiprintf_r+0x1ec>)
 800735a:	f88d 1028 	strb.w	r1, [sp, #40]	; 0x28
 800735e:	2206      	movs	r2, #6
 8007360:	f7f8 ff36 	bl	80001d0 <memchr>
 8007364:	2800      	cmp	r0, #0
 8007366:	d038      	beq.n	80073da <_svfiprintf_r+0x1d6>
 8007368:	4b22      	ldr	r3, [pc, #136]	; (80073f4 <_svfiprintf_r+0x1f0>)
 800736a:	bb1b      	cbnz	r3, 80073b4 <_svfiprintf_r+0x1b0>
 800736c:	9b03      	ldr	r3, [sp, #12]
 800736e:	3307      	adds	r3, #7
 8007370:	f023 0307 	bic.w	r3, r3, #7
 8007374:	3308      	adds	r3, #8
 8007376:	9303      	str	r3, [sp, #12]
 8007378:	9b09      	ldr	r3, [sp, #36]	; 0x24
 800737a:	4433      	add	r3, r6
 800737c:	9309      	str	r3, [sp, #36]	; 0x24
 800737e:	e768      	b.n	8007252 <_svfiprintf_r+0x4e>
 8007380:	fb0c 3202 	mla	r2, ip, r2, r3
 8007384:	460c      	mov	r4, r1
 8007386:	2001      	movs	r0, #1
 8007388:	e7a6      	b.n	80072d8 <_svfiprintf_r+0xd4>
 800738a:	2300      	movs	r3, #0
 800738c:	3401      	adds	r4, #1
 800738e:	9305      	str	r3, [sp, #20]
 8007390:	4619      	mov	r1, r3
 8007392:	f04f 0c0a 	mov.w	ip, #10
 8007396:	4620      	mov	r0, r4
 8007398:	f810 2b01 	ldrb.w	r2, [r0], #1
 800739c:	3a30      	subs	r2, #48	; 0x30
 800739e:	2a09      	cmp	r2, #9
 80073a0:	d903      	bls.n	80073aa <_svfiprintf_r+0x1a6>
 80073a2:	2b00      	cmp	r3, #0
 80073a4:	d0c6      	beq.n	8007334 <_svfiprintf_r+0x130>
 80073a6:	9105      	str	r1, [sp, #20]
 80073a8:	e7c4      	b.n	8007334 <_svfiprintf_r+0x130>
 80073aa:	fb0c 2101 	mla	r1, ip, r1, r2
 80073ae:	4604      	mov	r4, r0
 80073b0:	2301      	movs	r3, #1
 80073b2:	e7f0      	b.n	8007396 <_svfiprintf_r+0x192>
 80073b4:	ab03      	add	r3, sp, #12
 80073b6:	9300      	str	r3, [sp, #0]
 80073b8:	462a      	mov	r2, r5
 80073ba:	4b0f      	ldr	r3, [pc, #60]	; (80073f8 <_svfiprintf_r+0x1f4>)
 80073bc:	a904      	add	r1, sp, #16
 80073be:	4638      	mov	r0, r7
 80073c0:	f3af 8000 	nop.w
 80073c4:	1c42      	adds	r2, r0, #1
 80073c6:	4606      	mov	r6, r0
 80073c8:	d1d6      	bne.n	8007378 <_svfiprintf_r+0x174>
 80073ca:	89ab      	ldrh	r3, [r5, #12]
 80073cc:	065b      	lsls	r3, r3, #25
 80073ce:	f53f af2d 	bmi.w	800722c <_svfiprintf_r+0x28>
 80073d2:	9809      	ldr	r0, [sp, #36]	; 0x24
 80073d4:	b01d      	add	sp, #116	; 0x74
 80073d6:	e8bd 8ff0 	ldmia.w	sp!, {r4, r5, r6, r7, r8, r9, sl, fp, pc}
 80073da:	ab03      	add	r3, sp, #12
 80073dc:	9300      	str	r3, [sp, #0]
 80073de:	462a      	mov	r2, r5
 80073e0:	4b05      	ldr	r3, [pc, #20]	; (80073f8 <_svfiprintf_r+0x1f4>)
 80073e2:	a904      	add	r1, sp, #16
 80073e4:	4638      	mov	r0, r7
 80073e6:	f000 f879 	bl	80074dc <_printf_i>
 80073ea:	e7eb      	b.n	80073c4 <_svfiprintf_r+0x1c0>
 80073ec:	080078bd 	.word	0x080078bd
 80073f0:	080078c7 	.word	0x080078c7
 80073f4:	00000000 	.word	0x00000000
 80073f8:	08007151 	.word	0x08007151
 80073fc:	080078c3 	.word	0x080078c3

08007400 <_printf_common>:
 8007400:	e92d 47f0 	stmdb	sp!, {r4, r5, r6, r7, r8, r9, sl, lr}
 8007404:	4616      	mov	r6, r2
 8007406:	4699      	mov	r9, r3
 8007408:	688a      	ldr	r2, [r1, #8]
 800740a:	690b      	ldr	r3, [r1, #16]
 800740c:	f8dd 8020 	ldr.w	r8, [sp, #32]
 8007410:	4293      	cmp	r3, r2
 8007412:	bfb8      	it	lt
 8007414:	4613      	movlt	r3, r2
 8007416:	6033      	str	r3, [r6, #0]
 8007418:	f891 2043 	ldrb.w	r2, [r1, #67]	; 0x43
 800741c:	4607      	mov	r7, r0
 800741e:	460c      	mov	r4, r1
 8007420:	b10a      	cbz	r2, 8007426 <_printf_common+0x26>
 8007422:	3301      	adds	r3, #1
 8007424:	6033      	str	r3, [r6, #0]
 8007426:	6823      	ldr	r3, [r4, #0]
 8007428:	0699      	lsls	r1, r3, #26
 800742a:	bf42      	ittt	mi
 800742c:	6833      	ldrmi	r3, [r6, #0]
 800742e:	3302      	addmi	r3, #2
 8007430:	6033      	strmi	r3, [r6, #0]
 8007432:	6825      	ldr	r5, [r4, #0]
 8007434:	f015 0506 	ands.w	r5, r5, #6
 8007438:	d106      	bne.n	8007448 <_printf_common+0x48>
 800743a:	f104 0a19 	add.w	sl, r4, #25
 800743e:	68e3      	ldr	r3, [r4, #12]
 8007440:	6832      	ldr	r2, [r6, #0]
 8007442:	1a9b      	subs	r3, r3, r2
 8007444:	42ab      	cmp	r3, r5
 8007446:	dc26      	bgt.n	8007496 <_printf_common+0x96>
 8007448:	f894 2043 	ldrb.w	r2, [r4, #67]	; 0x43
 800744c:	1e13      	subs	r3, r2, #0
 800744e:	6822      	ldr	r2, [r4, #0]
 8007450:	bf18      	it	ne
 8007452:	2301      	movne	r3, #1
 8007454:	0692      	lsls	r2, r2, #26
 8007456:	d42b      	bmi.n	80074b0 <_printf_common+0xb0>
 8007458:	f104 0243 	add.w	r2, r4, #67	; 0x43
 800745c:	4649      	mov	r1, r9
 800745e:	4638      	mov	r0, r7
 8007460:	47c0      	blx	r8
 8007462:	3001      	adds	r0, #1
 8007464:	d01e      	beq.n	80074a4 <_printf_common+0xa4>
 8007466:	6823      	ldr	r3, [r4, #0]
 8007468:	6922      	ldr	r2, [r4, #16]
 800746a:	f003 0306 	and.w	r3, r3, #6
 800746e:	2b04      	cmp	r3, #4
 8007470:	bf02      	ittt	eq
 8007472:	68e5      	ldreq	r5, [r4, #12]
 8007474:	6833      	ldreq	r3, [r6, #0]
 8007476:	1aed      	subeq	r5, r5, r3
 8007478:	68a3      	ldr	r3, [r4, #8]
 800747a:	bf0c      	ite	eq
 800747c:	ea25 75e5 	biceq.w	r5, r5, r5, asr #31
 8007480:	2500      	movne	r5, #0
 8007482:	4293      	cmp	r3, r2
 8007484:	bfc4      	itt	gt
 8007486:	1a9b      	subgt	r3, r3, r2
 8007488:	18ed      	addgt	r5, r5, r3
 800748a:	2600      	movs	r6, #0
 800748c:	341a      	adds	r4, #26
 800748e:	42b5      	cmp	r5, r6
 8007490:	d11a      	bne.n	80074c8 <_printf_common+0xc8>
 8007492:	2000      	movs	r0, #0
 8007494:	e008      	b.n	80074a8 <_printf_common+0xa8>
 8007496:	2301      	movs	r3, #1
 8007498:	4652      	mov	r2, sl
 800749a:	4649      	mov	r1, r9
 800749c:	4638      	mov	r0, r7
 800749e:	47c0      	blx	r8
 80074a0:	3001      	adds	r0, #1
 80074a2:	d103      	bne.n	80074ac <_printf_common+0xac>
 80074a4:	f04f 30ff 	mov.w	r0, #4294967295
 80074a8:	e8bd 87f0 	ldmia.w	sp!, {r4, r5, r6, r7, r8, r9, sl, pc}
 80074ac:	3501      	adds	r5, #1
 80074ae:	e7c6      	b.n	800743e <_printf_common+0x3e>
 80074b0:	18e1      	adds	r1, r4, r3
 80074b2:	1c5a      	adds	r2, r3, #1
 80074b4:	2030      	movs	r0, #48	; 0x30
 80074b6:	f881 0043 	strb.w	r0, [r1, #67]	; 0x43
 80074ba:	4422      	add	r2, r4
 80074bc:	f894 1045 	ldrb.w	r1, [r4, #69]	; 0x45
 80074c0:	f882 1043 	strb.w	r1, [r2, #67]	; 0x43
 80074c4:	3302      	adds	r3, #2
 80074c6:	e7c7      	b.n	8007458 <_printf_common+0x58>
 80074c8:	2301      	movs	r3, #1
 80074ca:	4622      	mov	r2, r4
 80074cc:	4649      	mov	r1, r9
 80074ce:	4638      	mov	r0, r7
 80074d0:	47c0      	blx	r8
 80074d2:	3001      	adds	r0, #1
 80074d4:	d0e6      	beq.n	80074a4 <_printf_common+0xa4>
 80074d6:	3601      	adds	r6, #1
 80074d8:	e7d9      	b.n	800748e <_printf_common+0x8e>
	...

080074dc <_printf_i>:
 80074dc:	e92d 47ff 	stmdb	sp!, {r0, r1, r2, r3, r4, r5, r6, r7, r8, r9, sl, lr}
 80074e0:	7e0f      	ldrb	r7, [r1, #24]
 80074e2:	9d0c      	ldr	r5, [sp, #48]	; 0x30
 80074e4:	2f78      	cmp	r7, #120	; 0x78
 80074e6:	4691      	mov	r9, r2
 80074e8:	4680      	mov	r8, r0
 80074ea:	460c      	mov	r4, r1
 80074ec:	469a      	mov	sl, r3
 80074ee:	f101 0243 	add.w	r2, r1, #67	; 0x43
 80074f2:	d807      	bhi.n	8007504 <_printf_i+0x28>
 80074f4:	2f62      	cmp	r7, #98	; 0x62
 80074f6:	d80a      	bhi.n	800750e <_printf_i+0x32>
 80074f8:	2f00      	cmp	r7, #0
 80074fa:	f000 80d4 	beq.w	80076a6 <_printf_i+0x1ca>
 80074fe:	2f58      	cmp	r7, #88	; 0x58
 8007500:	f000 80c0 	beq.w	8007684 <_printf_i+0x1a8>
 8007504:	f104 0542 	add.w	r5, r4, #66	; 0x42
 8007508:	f884 7042 	strb.w	r7, [r4, #66]	; 0x42
 800750c:	e03a      	b.n	8007584 <_printf_i+0xa8>
 800750e:	f1a7 0363 	sub.w	r3, r7, #99	; 0x63
 8007512:	2b15      	cmp	r3, #21
 8007514:	d8f6      	bhi.n	8007504 <_printf_i+0x28>
 8007516:	a101      	add	r1, pc, #4	; (adr r1, 800751c <_printf_i+0x40>)
 8007518:	f851 f023 	ldr.w	pc, [r1, r3, lsl #2]
 800751c:	08007575 	.word	0x08007575
 8007520:	08007589 	.word	0x08007589
 8007524:	08007505 	.word	0x08007505
 8007528:	08007505 	.word	0x08007505
 800752c:	08007505 	.word	0x08007505
 8007530:	08007505 	.word	0x08007505
 8007534:	08007589 	.word	0x08007589
 8007538:	08007505 	.word	0x08007505
 800753c:	08007505 	.word	0x08007505
 8007540:	08007505 	.word	0x08007505
 8007544:	08007505 	.word	0x08007505
 8007548:	0800768d 	.word	0x0800768d
 800754c:	080075b5 	.word	0x080075b5
 8007550:	08007647 	.word	0x08007647
 8007554:	08007505 	.word	0x08007505
 8007558:	08007505 	.word	0x08007505
 800755c:	080076af 	.word	0x080076af
 8007560:	08007505 	.word	0x08007505
 8007564:	080075b5 	.word	0x080075b5
 8007568:	08007505 	.word	0x08007505
 800756c:	08007505 	.word	0x08007505
 8007570:	0800764f 	.word	0x0800764f
 8007574:	682b      	ldr	r3, [r5, #0]
 8007576:	1d1a      	adds	r2, r3, #4
 8007578:	681b      	ldr	r3, [r3, #0]
 800757a:	602a      	str	r2, [r5, #0]
 800757c:	f104 0542 	add.w	r5, r4, #66	; 0x42
 8007580:	f884 3042 	strb.w	r3, [r4, #66]	; 0x42
 8007584:	2301      	movs	r3, #1
 8007586:	e09f      	b.n	80076c8 <_printf_i+0x1ec>
 8007588:	6820      	ldr	r0, [r4, #0]
 800758a:	682b      	ldr	r3, [r5, #0]
 800758c:	0607      	lsls	r7, r0, #24
 800758e:	f103 0104 	add.w	r1, r3, #4
 8007592:	6029      	str	r1, [r5, #0]
 8007594:	d501      	bpl.n	800759a <_printf_i+0xbe>
 8007596:	681e      	ldr	r6, [r3, #0]
 8007598:	e003      	b.n	80075a2 <_printf_i+0xc6>
 800759a:	0646      	lsls	r6, r0, #25
 800759c:	d5fb      	bpl.n	8007596 <_printf_i+0xba>
 800759e:	f9b3 6000 	ldrsh.w	r6, [r3]
 80075a2:	2e00      	cmp	r6, #0
 80075a4:	da03      	bge.n	80075ae <_printf_i+0xd2>
 80075a6:	232d      	movs	r3, #45	; 0x2d
 80075a8:	4276      	negs	r6, r6
 80075aa:	f884 3043 	strb.w	r3, [r4, #67]	; 0x43
 80075ae:	485a      	ldr	r0, [pc, #360]	; (8007718 <_printf_i+0x23c>)
 80075b0:	230a      	movs	r3, #10
 80075b2:	e012      	b.n	80075da <_printf_i+0xfe>
 80075b4:	682b      	ldr	r3, [r5, #0]
 80075b6:	6820      	ldr	r0, [r4, #0]
 80075b8:	1d19      	adds	r1, r3, #4
 80075ba:	6029      	str	r1, [r5, #0]
 80075bc:	0605      	lsls	r5, r0, #24
 80075be:	d501      	bpl.n	80075c4 <_printf_i+0xe8>
 80075c0:	681e      	ldr	r6, [r3, #0]
 80075c2:	e002      	b.n	80075ca <_printf_i+0xee>
 80075c4:	0641      	lsls	r1, r0, #25
 80075c6:	d5fb      	bpl.n	80075c0 <_printf_i+0xe4>
 80075c8:	881e      	ldrh	r6, [r3, #0]
 80075ca:	4853      	ldr	r0, [pc, #332]	; (8007718 <_printf_i+0x23c>)
 80075cc:	2f6f      	cmp	r7, #111	; 0x6f
 80075ce:	bf0c      	ite	eq
 80075d0:	2308      	moveq	r3, #8
 80075d2:	230a      	movne	r3, #10
 80075d4:	2100      	movs	r1, #0
 80075d6:	f884 1043 	strb.w	r1, [r4, #67]	; 0x43
 80075da:	6865      	ldr	r5, [r4, #4]
 80075dc:	60a5      	str	r5, [r4, #8]
 80075de:	2d00      	cmp	r5, #0
 80075e0:	bfa2      	ittt	ge
 80075e2:	6821      	ldrge	r1, [r4, #0]
 80075e4:	f021 0104 	bicge.w	r1, r1, #4
 80075e8:	6021      	strge	r1, [r4, #0]
 80075ea:	b90e      	cbnz	r6, 80075f0 <_printf_i+0x114>
 80075ec:	2d00      	cmp	r5, #0
 80075ee:	d04b      	beq.n	8007688 <_printf_i+0x1ac>
 80075f0:	4615      	mov	r5, r2
 80075f2:	fbb6 f1f3 	udiv	r1, r6, r3
 80075f6:	fb03 6711 	mls	r7, r3, r1, r6
 80075fa:	5dc7      	ldrb	r7, [r0, r7]
 80075fc:	f805 7d01 	strb.w	r7, [r5, #-1]!
 8007600:	4637      	mov	r7, r6
 8007602:	42bb      	cmp	r3, r7
 8007604:	460e      	mov	r6, r1
 8007606:	d9f4      	bls.n	80075f2 <_printf_i+0x116>
 8007608:	2b08      	cmp	r3, #8
 800760a:	d10b      	bne.n	8007624 <_printf_i+0x148>
 800760c:	6823      	ldr	r3, [r4, #0]
 800760e:	07de      	lsls	r6, r3, #31
 8007610:	d508      	bpl.n	8007624 <_printf_i+0x148>
 8007612:	6923      	ldr	r3, [r4, #16]
 8007614:	6861      	ldr	r1, [r4, #4]
 8007616:	4299      	cmp	r1, r3
 8007618:	bfde      	ittt	le
 800761a:	2330      	movle	r3, #48	; 0x30
 800761c:	f805 3c01 	strble.w	r3, [r5, #-1]
 8007620:	f105 35ff 	addle.w	r5, r5, #4294967295
 8007624:	1b52      	subs	r2, r2, r5
 8007626:	6122      	str	r2, [r4, #16]
 8007628:	f8cd a000 	str.w	sl, [sp]
 800762c:	464b      	mov	r3, r9
 800762e:	aa03      	add	r2, sp, #12
 8007630:	4621      	mov	r1, r4
 8007632:	4640      	mov	r0, r8
 8007634:	f7ff fee4 	bl	8007400 <_printf_common>
 8007638:	3001      	adds	r0, #1
 800763a:	d14a      	bne.n	80076d2 <_printf_i+0x1f6>
 800763c:	f04f 30ff 	mov.w	r0, #4294967295
 8007640:	b004      	add	sp, #16
 8007642:	e8bd 87f0 	ldmia.w	sp!, {r4, r5, r6, r7, r8, r9, sl, pc}
 8007646:	6823      	ldr	r3, [r4, #0]
 8007648:	f043 0320 	orr.w	r3, r3, #32
 800764c:	6023      	str	r3, [r4, #0]
 800764e:	4833      	ldr	r0, [pc, #204]	; (800771c <_printf_i+0x240>)
 8007650:	2778      	movs	r7, #120	; 0x78
 8007652:	f884 7045 	strb.w	r7, [r4, #69]	; 0x45
 8007656:	6823      	ldr	r3, [r4, #0]
 8007658:	6829      	ldr	r1, [r5, #0]
 800765a:	061f      	lsls	r7, r3, #24
 800765c:	f851 6b04 	ldr.w	r6, [r1], #4
 8007660:	d402      	bmi.n	8007668 <_printf_i+0x18c>
 8007662:	065f      	lsls	r7, r3, #25
 8007664:	bf48      	it	mi
 8007666:	b2b6      	uxthmi	r6, r6
 8007668:	07df      	lsls	r7, r3, #31
 800766a:	bf48      	it	mi
 800766c:	f043 0320 	orrmi.w	r3, r3, #32
 8007670:	6029      	str	r1, [r5, #0]
 8007672:	bf48      	it	mi
 8007674:	6023      	strmi	r3, [r4, #0]
 8007676:	b91e      	cbnz	r6, 8007680 <_printf_i+0x1a4>
 8007678:	6823      	ldr	r3, [r4, #0]
 800767a:	f023 0320 	bic.w	r3, r3, #32
 800767e:	6023      	str	r3, [r4, #0]
 8007680:	2310      	movs	r3, #16
 8007682:	e7a7      	b.n	80075d4 <_printf_i+0xf8>
 8007684:	4824      	ldr	r0, [pc, #144]	; (8007718 <_printf_i+0x23c>)
 8007686:	e7e4      	b.n	8007652 <_printf_i+0x176>
 8007688:	4615      	mov	r5, r2
 800768a:	e7bd      	b.n	8007608 <_printf_i+0x12c>
 800768c:	682b      	ldr	r3, [r5, #0]
 800768e:	6826      	ldr	r6, [r4, #0]
 8007690:	6961      	ldr	r1, [r4, #20]
 8007692:	1d18      	adds	r0, r3, #4
 8007694:	6028      	str	r0, [r5, #0]
 8007696:	0635      	lsls	r5, r6, #24
 8007698:	681b      	ldr	r3, [r3, #0]
 800769a:	d501      	bpl.n	80076a0 <_printf_i+0x1c4>
 800769c:	6019      	str	r1, [r3, #0]
 800769e:	e002      	b.n	80076a6 <_printf_i+0x1ca>
 80076a0:	0670      	lsls	r0, r6, #25
 80076a2:	d5fb      	bpl.n	800769c <_printf_i+0x1c0>
 80076a4:	8019      	strh	r1, [r3, #0]
 80076a6:	2300      	movs	r3, #0
 80076a8:	6123      	str	r3, [r4, #16]
 80076aa:	4615      	mov	r5, r2
 80076ac:	e7bc      	b.n	8007628 <_printf_i+0x14c>
 80076ae:	682b      	ldr	r3, [r5, #0]
 80076b0:	1d1a      	adds	r2, r3, #4
 80076b2:	602a      	str	r2, [r5, #0]
 80076b4:	681d      	ldr	r5, [r3, #0]
 80076b6:	6862      	ldr	r2, [r4, #4]
 80076b8:	2100      	movs	r1, #0
 80076ba:	4628      	mov	r0, r5
 80076bc:	f7f8 fd88 	bl	80001d0 <memchr>
 80076c0:	b108      	cbz	r0, 80076c6 <_printf_i+0x1ea>
 80076c2:	1b40      	subs	r0, r0, r5
 80076c4:	6060      	str	r0, [r4, #4]
 80076c6:	6863      	ldr	r3, [r4, #4]
 80076c8:	6123      	str	r3, [r4, #16]
 80076ca:	2300      	movs	r3, #0
 80076cc:	f884 3043 	strb.w	r3, [r4, #67]	; 0x43
 80076d0:	e7aa      	b.n	8007628 <_printf_i+0x14c>
 80076d2:	6923      	ldr	r3, [r4, #16]
 80076d4:	462a      	mov	r2, r5
 80076d6:	4649      	mov	r1, r9
 80076d8:	4640      	mov	r0, r8
 80076da:	47d0      	blx	sl
 80076dc:	3001      	adds	r0, #1
 80076de:	d0ad      	beq.n	800763c <_printf_i+0x160>
 80076e0:	6823      	ldr	r3, [r4, #0]
 80076e2:	079b      	lsls	r3, r3, #30
 80076e4:	d413      	bmi.n	800770e <_printf_i+0x232>
 80076e6:	68e0      	ldr	r0, [r4, #12]
 80076e8:	9b03      	ldr	r3, [sp, #12]
 80076ea:	4298      	cmp	r0, r3
 80076ec:	bfb8      	it	lt
 80076ee:	4618      	movlt	r0, r3
 80076f0:	e7a6      	b.n	8007640 <_printf_i+0x164>
 80076f2:	2301      	movs	r3, #1
 80076f4:	4632      	mov	r2, r6
 80076f6:	4649      	mov	r1, r9
 80076f8:	4640      	mov	r0, r8
 80076fa:	47d0      	blx	sl
 80076fc:	3001      	adds	r0, #1
 80076fe:	d09d      	beq.n	800763c <_printf_i+0x160>
 8007700:	3501      	adds	r5, #1
 8007702:	68e3      	ldr	r3, [r4, #12]
 8007704:	9903      	ldr	r1, [sp, #12]
 8007706:	1a5b      	subs	r3, r3, r1
 8007708:	42ab      	cmp	r3, r5
 800770a:	dcf2      	bgt.n	80076f2 <_printf_i+0x216>
 800770c:	e7eb      	b.n	80076e6 <_printf_i+0x20a>
 800770e:	2500      	movs	r5, #0
 8007710:	f104 0619 	add.w	r6, r4, #25
 8007714:	e7f5      	b.n	8007702 <_printf_i+0x226>
 8007716:	bf00      	nop
 8007718:	080078ce 	.word	0x080078ce
 800771c:	080078df 	.word	0x080078df

08007720 <memmove>:
 8007720:	4288      	cmp	r0, r1
 8007722:	b510      	push	{r4, lr}
 8007724:	eb01 0402 	add.w	r4, r1, r2
 8007728:	d902      	bls.n	8007730 <memmove+0x10>
 800772a:	4284      	cmp	r4, r0
 800772c:	4623      	mov	r3, r4
 800772e:	d807      	bhi.n	8007740 <memmove+0x20>
 8007730:	1e43      	subs	r3, r0, #1
 8007732:	42a1      	cmp	r1, r4
 8007734:	d008      	beq.n	8007748 <memmove+0x28>
 8007736:	f811 2b01 	ldrb.w	r2, [r1], #1
 800773a:	f803 2f01 	strb.w	r2, [r3, #1]!
 800773e:	e7f8      	b.n	8007732 <memmove+0x12>
 8007740:	4402      	add	r2, r0
 8007742:	4601      	mov	r1, r0
 8007744:	428a      	cmp	r2, r1
 8007746:	d100      	bne.n	800774a <memmove+0x2a>
 8007748:	bd10      	pop	{r4, pc}
 800774a:	f813 4d01 	ldrb.w	r4, [r3, #-1]!
 800774e:	f802 4d01 	strb.w	r4, [r2, #-1]!
 8007752:	e7f7      	b.n	8007744 <memmove+0x24>

08007754 <_sbrk_r>:
 8007754:	b538      	push	{r3, r4, r5, lr}
 8007756:	4d06      	ldr	r5, [pc, #24]	; (8007770 <_sbrk_r+0x1c>)
 8007758:	2300      	movs	r3, #0
 800775a:	4604      	mov	r4, r0
 800775c:	4608      	mov	r0, r1
 800775e:	602b      	str	r3, [r5, #0]
 8007760:	f7fa fbda 	bl	8001f18 <_sbrk>
 8007764:	1c43      	adds	r3, r0, #1
 8007766:	d102      	bne.n	800776e <_sbrk_r+0x1a>
 8007768:	682b      	ldr	r3, [r5, #0]
 800776a:	b103      	cbz	r3, 800776e <_sbrk_r+0x1a>
 800776c:	6023      	str	r3, [r4, #0]
 800776e:	bd38      	pop	{r3, r4, r5, pc}
 8007770:	20000754 	.word	0x20000754

08007774 <_realloc_r>:
 8007774:	e92d 41f0 	stmdb	sp!, {r4, r5, r6, r7, r8, lr}
 8007778:	4680      	mov	r8, r0
 800777a:	4614      	mov	r4, r2
 800777c:	460e      	mov	r6, r1
 800777e:	b921      	cbnz	r1, 800778a <_realloc_r+0x16>
 8007780:	e8bd 41f0 	ldmia.w	sp!, {r4, r5, r6, r7, r8, lr}
 8007784:	4611      	mov	r1, r2
 8007786:	f7ff bc57 	b.w	8007038 <_malloc_r>
 800778a:	b92a      	cbnz	r2, 8007798 <_realloc_r+0x24>
 800778c:	f7ff fbe8 	bl	8006f60 <_free_r>
 8007790:	4625      	mov	r5, r4
 8007792:	4628      	mov	r0, r5
 8007794:	e8bd 81f0 	ldmia.w	sp!, {r4, r5, r6, r7, r8, pc}
 8007798:	f000 f81b 	bl	80077d2 <_malloc_usable_size_r>
 800779c:	4284      	cmp	r4, r0
 800779e:	4607      	mov	r7, r0
 80077a0:	d802      	bhi.n	80077a8 <_realloc_r+0x34>
 80077a2:	ebb4 0f50 	cmp.w	r4, r0, lsr #1
 80077a6:	d812      	bhi.n	80077ce <_realloc_r+0x5a>
 80077a8:	4621      	mov	r1, r4
 80077aa:	4640      	mov	r0, r8
 80077ac:	f7ff fc44 	bl	8007038 <_malloc_r>
 80077b0:	4605      	mov	r5, r0
 80077b2:	2800      	cmp	r0, #0
 80077b4:	d0ed      	beq.n	8007792 <_realloc_r+0x1e>
 80077b6:	42bc      	cmp	r4, r7
 80077b8:	4622      	mov	r2, r4
 80077ba:	4631      	mov	r1, r6
 80077bc:	bf28      	it	cs
 80077be:	463a      	movcs	r2, r7
 80077c0:	f7ff fbc0 	bl	8006f44 <memcpy>
 80077c4:	4631      	mov	r1, r6
 80077c6:	4640      	mov	r0, r8
 80077c8:	f7ff fbca 	bl	8006f60 <_free_r>
 80077cc:	e7e1      	b.n	8007792 <_realloc_r+0x1e>
 80077ce:	4635      	mov	r5, r6
 80077d0:	e7df      	b.n	8007792 <_realloc_r+0x1e>

080077d2 <_malloc_usable_size_r>:
 80077d2:	f851 3c04 	ldr.w	r3, [r1, #-4]
 80077d6:	1f18      	subs	r0, r3, #4
 80077d8:	2b00      	cmp	r3, #0
 80077da:	bfbc      	itt	lt
 80077dc:	580b      	ldrlt	r3, [r1, r0]
 80077de:	18c0      	addlt	r0, r0, r3
 80077e0:	4770      	bx	lr
	...

080077e4 <_init>:
 80077e4:	b5f8      	push	{r3, r4, r5, r6, r7, lr}
 80077e6:	bf00      	nop
 80077e8:	bcf8      	pop	{r3, r4, r5, r6, r7}
 80077ea:	bc08      	pop	{r3}
 80077ec:	469e      	mov	lr, r3
 80077ee:	4770      	bx	lr

080077f0 <_fini>:
 80077f0:	b5f8      	push	{r3, r4, r5, r6, r7, lr}
 80077f2:	bf00      	nop
 80077f4:	bcf8      	pop	{r3, r4, r5, r6, r7}
 80077f6:	bc08      	pop	{r3}
 80077f8:	469e      	mov	lr, r3
 80077fa:	4770      	bx	lr
